; ModuleID = './MicroBenchmark/single_v1_nv1/pre_bc/single_v1_nv1_30_2.pre.bc'
source_filename = "llvm-link"	 ;;;;; 
target datalayout = "e-m:e-p270:32:32-p271:32:32-p272:64:64-i64:64-f80:128-n8:16:32:64-S128"	 ;;;;; 
target triple = "x86_64-unknown-linux-gnu"	 ;;;;; 

%class.DD = type { %class.BB, i64 }	 ;;;;; 
%class.BB = type { i32 (...)**, i64* }	 ;;;;; 

$_ZN2DDC2Ev = comdat any	 ;;;;; 

$_ZN2DD14ff_nv_00000000Ev = comdat any	 ;;;;; 

$_ZN2BBC2Ev = comdat any	 ;;;;; 

$_ZN2BB13gg_v_00000000Ev = comdat any	 ;;;;; 

$_ZN2BB13gg_v_00000001Ev = comdat any	 ;;;;; 

$_ZN2BB13gg_v_00000002Ev = comdat any	 ;;;;; 

$_ZN2BB13gg_v_00000003Ev = comdat any	 ;;;;; 

$_ZN2BB13gg_v_00000004Ev = comdat any	 ;;;;; 

$_ZN2BB13gg_v_00000005Ev = comdat any	 ;;;;; 

$_ZN2BB13gg_v_00000006Ev = comdat any	 ;;;;; 

$_ZN2BB13gg_v_00000007Ev = comdat any	 ;;;;; 

$_ZN2BB13gg_v_00000008Ev = comdat any	 ;;;;; 

$_ZN2BB13gg_v_00000009Ev = comdat any	 ;;;;; 

$_ZN2BB13gg_v_00000010Ev = comdat any	 ;;;;; 

$_ZN2BB13gg_v_00000011Ev = comdat any	 ;;;;; 

$_ZN2BB13gg_v_00000012Ev = comdat any	 ;;;;; 

$_ZN2BB13gg_v_00000013Ev = comdat any	 ;;;;; 

$_ZN2BB13gg_v_00000014Ev = comdat any	 ;;;;; 

$_ZN2BB13gg_v_00000015Ev = comdat any	 ;;;;; 

$_ZN2BB13gg_v_00000016Ev = comdat any	 ;;;;; 

$_ZN2BB13gg_v_00000017Ev = comdat any	 ;;;;; 

$_ZN2BB13gg_v_00000018Ev = comdat any	 ;;;;; 

$_ZN2BB13gg_v_00000019Ev = comdat any	 ;;;;; 

$_ZN2BB13gg_v_00000020Ev = comdat any	 ;;;;; 

$_ZN2BB13gg_v_00000021Ev = comdat any	 ;;;;; 

$_ZN2BB13gg_v_00000022Ev = comdat any	 ;;;;; 

$_ZN2BB13gg_v_00000023Ev = comdat any	 ;;;;; 

$_ZN2BB13gg_v_00000024Ev = comdat any	 ;;;;; 

$_ZN2BB13gg_v_00000025Ev = comdat any	 ;;;;; 

$_ZN2BB13gg_v_00000026Ev = comdat any	 ;;;;; 

$_ZN2BB13gg_v_00000027Ev = comdat any	 ;;;;; 

$_ZN2BB13gg_v_00000028Ev = comdat any	 ;;;;; 

$_ZN2BB13gg_v_00000029Ev = comdat any	 ;;;;; 

$_ZN2DD13ff_v_00000000Ev = comdat any	 ;;;;; 

$_ZN2DD13ff_v_00000001Ev = comdat any	 ;;;;; 

$_ZN2DD13ff_v_00000002Ev = comdat any	 ;;;;; 

$_ZN2DD13ff_v_00000003Ev = comdat any	 ;;;;; 

$_ZN2DD13ff_v_00000004Ev = comdat any	 ;;;;; 

$_ZN2DD13ff_v_00000005Ev = comdat any	 ;;;;; 

$_ZN2DD13ff_v_00000006Ev = comdat any	 ;;;;; 

$_ZN2DD13ff_v_00000007Ev = comdat any	 ;;;;; 

$_ZN2DD13ff_v_00000008Ev = comdat any	 ;;;;; 

$_ZN2DD13ff_v_00000009Ev = comdat any	 ;;;;; 

$_ZN2DD13ff_v_00000010Ev = comdat any	 ;;;;; 

$_ZN2DD13ff_v_00000011Ev = comdat any	 ;;;;; 

$_ZN2DD13ff_v_00000012Ev = comdat any	 ;;;;; 

$_ZN2DD13ff_v_00000013Ev = comdat any	 ;;;;; 

$_ZN2DD13ff_v_00000014Ev = comdat any	 ;;;;; 

$_ZN2DD13ff_v_00000015Ev = comdat any	 ;;;;; 

$_ZN2DD13ff_v_00000016Ev = comdat any	 ;;;;; 

$_ZN2DD13ff_v_00000017Ev = comdat any	 ;;;;; 

$_ZN2DD13ff_v_00000018Ev = comdat any	 ;;;;; 

$_ZN2DD13ff_v_00000019Ev = comdat any	 ;;;;; 

$_ZN2DD13ff_v_00000020Ev = comdat any	 ;;;;; 

$_ZN2DD13ff_v_00000021Ev = comdat any	 ;;;;; 

$_ZN2DD13ff_v_00000022Ev = comdat any	 ;;;;; 

$_ZN2DD13ff_v_00000023Ev = comdat any	 ;;;;; 

$_ZN2DD13ff_v_00000024Ev = comdat any	 ;;;;; 

$_ZN2DD13ff_v_00000025Ev = comdat any	 ;;;;; 

$_ZN2DD13ff_v_00000026Ev = comdat any	 ;;;;; 

$_ZN2DD13ff_v_00000027Ev = comdat any	 ;;;;; 

$_ZN2DD13ff_v_00000028Ev = comdat any	 ;;;;; 

$_ZN2DD13ff_v_00000029Ev = comdat any	 ;;;;; 

$_ZTV2DD = comdat any	 ;;;;; 

$_ZTS2DD = comdat any	 ;;;;; 

$_ZTS2BB = comdat any	 ;;;;; 

$_ZTI2BB = comdat any	 ;;;;; 

$_ZTI2DD = comdat any	 ;;;;; 

$_ZTV2BB = comdat any	 ;;;;; 

@_ZTV2DD = linkonce_odr dso_local unnamed_addr constant { [62 x i8*] } { [62 x i8*] [i8* null, i8* bitcast ({ i8*, i8*, i8* }* @_ZTI2DD to i8*), i8* bitcast (void (%class.BB*)* @_ZN2BB13gg_v_00000000Ev to i8*), i8* bitcast (void (%class.BB*)* @_ZN2BB13gg_v_00000001Ev to i8*), i8* bitcast (void (%class.BB*)* @_ZN2BB13gg_v_00000002Ev to i8*), i8* bitcast (void (%class.BB*)* @_ZN2BB13gg_v_00000003Ev to i8*), i8* bitcast (void (%class.BB*)* @_ZN2BB13gg_v_00000004Ev to i8*), i8* bitcast (void (%class.BB*)* @_ZN2BB13gg_v_00000005Ev to i8*), i8* bitcast (void (%class.BB*)* @_ZN2BB13gg_v_00000006Ev to i8*), i8* bitcast (void (%class.BB*)* @_ZN2BB13gg_v_00000007Ev to i8*), i8* bitcast (void (%class.BB*)* @_ZN2BB13gg_v_00000008Ev to i8*), i8* bitcast (void (%class.BB*)* @_ZN2BB13gg_v_00000009Ev to i8*), i8* bitcast (void (%class.BB*)* @_ZN2BB13gg_v_00000010Ev to i8*), i8* bitcast (void (%class.BB*)* @_ZN2BB13gg_v_00000011Ev to i8*), i8* bitcast (void (%class.BB*)* @_ZN2BB13gg_v_00000012Ev to i8*), i8* bitcast (void (%class.BB*)* @_ZN2BB13gg_v_00000013Ev to i8*), i8* bitcast (void (%class.BB*)* @_ZN2BB13gg_v_00000014Ev to i8*), i8* bitcast (void (%class.BB*)* @_ZN2BB13gg_v_00000015Ev to i8*), i8* bitcast (void (%class.BB*)* @_ZN2BB13gg_v_00000016Ev to i8*), i8* bitcast (void (%class.BB*)* @_ZN2BB13gg_v_00000017Ev to i8*), i8* bitcast (void (%class.BB*)* @_ZN2BB13gg_v_00000018Ev to i8*), i8* bitcast (void (%class.BB*)* @_ZN2BB13gg_v_00000019Ev to i8*), i8* bitcast (void (%class.BB*)* @_ZN2BB13gg_v_00000020Ev to i8*), i8* bitcast (void (%class.BB*)* @_ZN2BB13gg_v_00000021Ev to i8*), i8* bitcast (void (%class.BB*)* @_ZN2BB13gg_v_00000022Ev to i8*), i8* bitcast (void (%class.BB*)* @_ZN2BB13gg_v_00000023Ev to i8*), i8* bitcast (void (%class.BB*)* @_ZN2BB13gg_v_00000024Ev to i8*), i8* bitcast (void (%class.BB*)* @_ZN2BB13gg_v_00000025Ev to i8*), i8* bitcast (void (%class.BB*)* @_ZN2BB13gg_v_00000026Ev to i8*), i8* bitcast (void (%class.BB*)* @_ZN2BB13gg_v_00000027Ev to i8*), i8* bitcast (void (%class.BB*)* @_ZN2BB13gg_v_00000028Ev to i8*), i8* bitcast (void (%class.BB*)* @_ZN2BB13gg_v_00000029Ev to i8*), i8* bitcast (void (%class.DD*)* @_ZN2DD13ff_v_00000000Ev to i8*), i8* bitcast (void (%class.DD*)* @_ZN2DD13ff_v_00000001Ev to i8*), i8* bitcast (void (%class.DD*)* @_ZN2DD13ff_v_00000002Ev to i8*), i8* bitcast (void (%class.DD*)* @_ZN2DD13ff_v_00000003Ev to i8*), i8* bitcast (void (%class.DD*)* @_ZN2DD13ff_v_00000004Ev to i8*), i8* bitcast (void (%class.DD*)* @_ZN2DD13ff_v_00000005Ev to i8*), i8* bitcast (void (%class.DD*)* @_ZN2DD13ff_v_00000006Ev to i8*), i8* bitcast (void (%class.DD*)* @_ZN2DD13ff_v_00000007Ev to i8*), i8* bitcast (void (%class.DD*)* @_ZN2DD13ff_v_00000008Ev to i8*), i8* bitcast (void (%class.DD*)* @_ZN2DD13ff_v_00000009Ev to i8*), i8* bitcast (void (%class.DD*)* @_ZN2DD13ff_v_00000010Ev to i8*), i8* bitcast (void (%class.DD*)* @_ZN2DD13ff_v_00000011Ev to i8*), i8* bitcast (void (%class.DD*)* @_ZN2DD13ff_v_00000012Ev to i8*), i8* bitcast (void (%class.DD*)* @_ZN2DD13ff_v_00000013Ev to i8*), i8* bitcast (void (%class.DD*)* @_ZN2DD13ff_v_00000014Ev to i8*), i8* bitcast (void (%class.DD*)* @_ZN2DD13ff_v_00000015Ev to i8*), i8* bitcast (void (%class.DD*)* @_ZN2DD13ff_v_00000016Ev to i8*), i8* bitcast (void (%class.DD*)* @_ZN2DD13ff_v_00000017Ev to i8*), i8* bitcast (void (%class.DD*)* @_ZN2DD13ff_v_00000018Ev to i8*), i8* bitcast (void (%class.DD*)* @_ZN2DD13ff_v_00000019Ev to i8*), i8* bitcast (void (%class.DD*)* @_ZN2DD13ff_v_00000020Ev to i8*), i8* bitcast (void (%class.DD*)* @_ZN2DD13ff_v_00000021Ev to i8*), i8* bitcast (void (%class.DD*)* @_ZN2DD13ff_v_00000022Ev to i8*), i8* bitcast (void (%class.DD*)* @_ZN2DD13ff_v_00000023Ev to i8*), i8* bitcast (void (%class.DD*)* @_ZN2DD13ff_v_00000024Ev to i8*), i8* bitcast (void (%class.DD*)* @_ZN2DD13ff_v_00000025Ev to i8*), i8* bitcast (void (%class.DD*)* @_ZN2DD13ff_v_00000026Ev to i8*), i8* bitcast (void (%class.DD*)* @_ZN2DD13ff_v_00000027Ev to i8*), i8* bitcast (void (%class.DD*)* @_ZN2DD13ff_v_00000028Ev to i8*), i8* bitcast (void (%class.DD*)* @_ZN2DD13ff_v_00000029Ev to i8*)] }, comdat, align 8	 ;;;;; 
@_ZTVN10__cxxabiv120__si_class_type_infoE = external dso_local global i8*	 ;;;;; 
@_ZTS2DD = linkonce_odr dso_local constant [4 x i8] c"2DD\00", comdat, align 1	 ;;;;; 
@_ZTVN10__cxxabiv117__class_type_infoE = external dso_local global i8*	 ;;;;; 
@_ZTS2BB = linkonce_odr dso_local constant [4 x i8] c"2BB\00", comdat, align 1	 ;;;;; 
@_ZTI2BB = linkonce_odr dso_local constant { i8*, i8* } { i8* bitcast (i8** getelementptr inbounds (i8*, i8** @_ZTVN10__cxxabiv117__class_type_infoE, i64 2) to i8*), i8* getelementptr inbounds ([4 x i8], [4 x i8]* @_ZTS2BB, i32 0, i32 0) }, comdat, align 8	 ;;;;; 
@_ZTI2DD = linkonce_odr dso_local constant { i8*, i8*, i8* } { i8* bitcast (i8** getelementptr inbounds (i8*, i8** @_ZTVN10__cxxabiv120__si_class_type_infoE, i64 2) to i8*), i8* getelementptr inbounds ([4 x i8], [4 x i8]* @_ZTS2DD, i32 0, i32 0), i8* bitcast ({ i8*, i8* }* @_ZTI2BB to i8*) }, comdat, align 8	 ;;;;; 
@_ZTV2BB = linkonce_odr dso_local unnamed_addr constant { [32 x i8*] } { [32 x i8*] [i8* null, i8* bitcast ({ i8*, i8* }* @_ZTI2BB to i8*), i8* bitcast (void (%class.BB*)* @_ZN2BB13gg_v_00000000Ev to i8*), i8* bitcast (void (%class.BB*)* @_ZN2BB13gg_v_00000001Ev to i8*), i8* bitcast (void (%class.BB*)* @_ZN2BB13gg_v_00000002Ev to i8*), i8* bitcast (void (%class.BB*)* @_ZN2BB13gg_v_00000003Ev to i8*), i8* bitcast (void (%class.BB*)* @_ZN2BB13gg_v_00000004Ev to i8*), i8* bitcast (void (%class.BB*)* @_ZN2BB13gg_v_00000005Ev to i8*), i8* bitcast (void (%class.BB*)* @_ZN2BB13gg_v_00000006Ev to i8*), i8* bitcast (void (%class.BB*)* @_ZN2BB13gg_v_00000007Ev to i8*), i8* bitcast (void (%class.BB*)* @_ZN2BB13gg_v_00000008Ev to i8*), i8* bitcast (void (%class.BB*)* @_ZN2BB13gg_v_00000009Ev to i8*), i8* bitcast (void (%class.BB*)* @_ZN2BB13gg_v_00000010Ev to i8*), i8* bitcast (void (%class.BB*)* @_ZN2BB13gg_v_00000011Ev to i8*), i8* bitcast (void (%class.BB*)* @_ZN2BB13gg_v_00000012Ev to i8*), i8* bitcast (void (%class.BB*)* @_ZN2BB13gg_v_00000013Ev to i8*), i8* bitcast (void (%class.BB*)* @_ZN2BB13gg_v_00000014Ev to i8*), i8* bitcast (void (%class.BB*)* @_ZN2BB13gg_v_00000015Ev to i8*), i8* bitcast (void (%class.BB*)* @_ZN2BB13gg_v_00000016Ev to i8*), i8* bitcast (void (%class.BB*)* @_ZN2BB13gg_v_00000017Ev to i8*), i8* bitcast (void (%class.BB*)* @_ZN2BB13gg_v_00000018Ev to i8*), i8* bitcast (void (%class.BB*)* @_ZN2BB13gg_v_00000019Ev to i8*), i8* bitcast (void (%class.BB*)* @_ZN2BB13gg_v_00000020Ev to i8*), i8* bitcast (void (%class.BB*)* @_ZN2BB13gg_v_00000021Ev to i8*), i8* bitcast (void (%class.BB*)* @_ZN2BB13gg_v_00000022Ev to i8*), i8* bitcast (void (%class.BB*)* @_ZN2BB13gg_v_00000023Ev to i8*), i8* bitcast (void (%class.BB*)* @_ZN2BB13gg_v_00000024Ev to i8*), i8* bitcast (void (%class.BB*)* @_ZN2BB13gg_v_00000025Ev to i8*), i8* bitcast (void (%class.BB*)* @_ZN2BB13gg_v_00000026Ev to i8*), i8* bitcast (void (%class.BB*)* @_ZN2BB13gg_v_00000027Ev to i8*), i8* bitcast (void (%class.BB*)* @_ZN2BB13gg_v_00000028Ev to i8*), i8* bitcast (void (%class.BB*)* @_ZN2BB13gg_v_00000029Ev to i8*)] }, comdat, align 8	 ;;;;; 

; Function Attrs: mustprogress noinline uwtable
define dso_local void @_Z4testP2DDMS_FvvE(%class.DD* noundef %dptr, i64 %mfptr.coerce0, i64 %mfptr.coerce1) #0 !dbg !151 {	 ;;; filename : "./MicroBenchmark/single_v1_nv1/single_v1_nv1_30_2.cpp", line : 140, 
entry:	 ;;;;; filename : "./MicroBenchmark/single_v1_nv1/single_v1_nv1_30_2.cpp", line : 140, 
  %mfptr = alloca { i64, i64 }, align 8	 ;;;;; filename : "./MicroBenchmark/single_v1_nv1/single_v1_nv1_30_2.cpp", line : 140, 
  %0 = getelementptr inbounds { i64, i64 }, { i64, i64 }* %mfptr, i32 0, i32 0	 ;;;;; filename : "./MicroBenchmark/single_v1_nv1/single_v1_nv1_30_2.cpp", line : 140, 
  store i64 %mfptr.coerce0, i64* %0, align 8	 ;;;;; filename : "./MicroBenchmark/single_v1_nv1/single_v1_nv1_30_2.cpp", line : 140, 
  %1 = getelementptr inbounds { i64, i64 }, { i64, i64 }* %mfptr, i32 0, i32 1	 ;;;;; filename : "./MicroBenchmark/single_v1_nv1/single_v1_nv1_30_2.cpp", line : 140, 
  store i64 %mfptr.coerce1, i64* %1, align 8	 ;;;;; filename : "./MicroBenchmark/single_v1_nv1/single_v1_nv1_30_2.cpp", line : 140, 
  %TIPS_gep_00 = getelementptr { i64, i64 }, { i64, i64 }* %mfptr, i32 0, i32 0	 ;;;;; filename : "./MicroBenchmark/single_v1_nv1/single_v1_nv1_30_2.cpp", line : 140, 
  %TIPS_load_00 = load i64, i64* %TIPS_gep_00, align 8	 ;;;;; filename : "./MicroBenchmark/single_v1_nv1/single_v1_nv1_30_2.cpp", line : 140, 
  %TIPS_gep_01 = getelementptr { i64, i64 }, { i64, i64 }* %mfptr, i32 0, i32 1	 ;;;;; filename : "./MicroBenchmark/single_v1_nv1/single_v1_nv1_30_2.cpp", line : 140, 
  %TIPS_load_01 = load i64, i64* %TIPS_gep_01, align 8	 ;;;;; filename : "./MicroBenchmark/single_v1_nv1/single_v1_nv1_30_2.cpp", line : 140, 
  %mfptr1 = load { i64, i64 }, { i64, i64 }* %mfptr, align 8	 ;;;;; filename : "./MicroBenchmark/single_v1_nv1/single_v1_nv1_30_2.cpp", line : 140, 
  call void @llvm.dbg.value(metadata %class.DD* %dptr, metadata !158, metadata !DIExpression()), !dbg !159	 ;;;;; filename : "./MicroBenchmark/single_v1_nv1/single_v1_nv1_30_2.cpp", line : 140, 
  call void @llvm.dbg.value(metadata { i64, i64 } %mfptr1, metadata !160, metadata !DIExpression()), !dbg !159	 ;;;;; filename : "./MicroBenchmark/single_v1_nv1/single_v1_nv1_30_2.cpp", line : 140, 
  %memptr.adj = extractvalue { i64, i64 } %mfptr1, 1, !dbg !161	 ;;; line : 141, column : 4, filename : "./MicroBenchmark/single_v1_nv1/single_v1_nv1_30_2.cpp", 
  %2 = bitcast %class.DD* %dptr to i8*, !dbg !161	 ;;; line : 141, column : 4, filename : "./MicroBenchmark/single_v1_nv1/single_v1_nv1_30_2.cpp", 
  %3 = getelementptr inbounds i8, i8* %2, i64 %TIPS_load_01, !dbg !161	 ;;; line : 141, column : 4, filename : "./MicroBenchmark/single_v1_nv1/single_v1_nv1_30_2.cpp", 
  %this.adjusted = bitcast i8* %3 to %class.DD*, !dbg !161	 ;;; line : 141, column : 4, filename : "./MicroBenchmark/single_v1_nv1/single_v1_nv1_30_2.cpp", 
  %memptr.ptr = extractvalue { i64, i64 } %mfptr1, 0, !dbg !161	 ;;; line : 141, column : 4, filename : "./MicroBenchmark/single_v1_nv1/single_v1_nv1_30_2.cpp", 
  %4 = and i64 %TIPS_load_00, 1, !dbg !161	 ;;; line : 141, column : 4, filename : "./MicroBenchmark/single_v1_nv1/single_v1_nv1_30_2.cpp", 
  %memptr.isvirtual = icmp ne i64 %4, 0, !dbg !161	 ;;; line : 141, column : 4, filename : "./MicroBenchmark/single_v1_nv1/single_v1_nv1_30_2.cpp", 
  br i1 %memptr.isvirtual, label %memptr.virtual, label %memptr.nonvirtual, !dbg !161	 ;;; line : 141, column : 4, filename : "./MicroBenchmark/single_v1_nv1/single_v1_nv1_30_2.cpp", 

memptr.virtual:                                   ; preds = %entry	 ;;;;; line : 141, column : 4, filename : "./MicroBenchmark/single_v1_nv1/single_v1_nv1_30_2.cpp", 
  %5 = bitcast %class.DD* %this.adjusted to i8**, !dbg !161	 ;;; line : 141, column : 4, filename : "./MicroBenchmark/single_v1_nv1/single_v1_nv1_30_2.cpp", 
  %vtable = load i8*, i8** %5, align 8, !dbg !161	 ;;; line : 141, column : 4, filename : "./MicroBenchmark/single_v1_nv1/single_v1_nv1_30_2.cpp", 
  %6 = sub i64 %TIPS_load_00, 1, !dbg !161	 ;;; line : 141, column : 4, filename : "./MicroBenchmark/single_v1_nv1/single_v1_nv1_30_2.cpp", 
  %7 = getelementptr i8, i8* %vtable, i64 %6, !dbg !161, !nosanitize !157	 ;;;;; line : 141, column : 4, filename : "./MicroBenchmark/single_v1_nv1/single_v1_nv1_30_2.cpp", 
  %8 = bitcast i8* %7 to void (%class.DD*)**, !dbg !161, !nosanitize !157	 ;;;;; line : 141, column : 4, filename : "./MicroBenchmark/single_v1_nv1/single_v1_nv1_30_2.cpp", 
  %memptr.virtualfn = load void (%class.DD*)*, void (%class.DD*)** %8, align 8, !dbg !161, !nosanitize !157	 ;;;;; line : 141, column : 4, filename : "./MicroBenchmark/single_v1_nv1/single_v1_nv1_30_2.cpp", 
  br label %memptr.end, !dbg !161	 ;;; line : 141, column : 4, filename : "./MicroBenchmark/single_v1_nv1/single_v1_nv1_30_2.cpp", 

memptr.nonvirtual:                                ; preds = %entry	 ;;;;; line : 141, column : 4, filename : "./MicroBenchmark/single_v1_nv1/single_v1_nv1_30_2.cpp", 
  %memptr.nonvirtualfn = inttoptr i64 %TIPS_load_00 to void (%class.DD*)*, !dbg !161	 ;;; line : 141, column : 4, filename : "./MicroBenchmark/single_v1_nv1/single_v1_nv1_30_2.cpp", 
  br label %memptr.end, !dbg !161	 ;;; line : 141, column : 4, filename : "./MicroBenchmark/single_v1_nv1/single_v1_nv1_30_2.cpp", 

memptr.end:                                       ; preds = %memptr.nonvirtual, %memptr.virtual	 ;;;;; line : 141, column : 4, filename : "./MicroBenchmark/single_v1_nv1/single_v1_nv1_30_2.cpp", 
  %9 = phi void (%class.DD*)* [ %memptr.virtualfn, %memptr.virtual ], [ %memptr.nonvirtualfn, %memptr.nonvirtual ], !dbg !161	 ;;; line : 141, column : 4, filename : "./MicroBenchmark/single_v1_nv1/single_v1_nv1_30_2.cpp", 
  call void %9(%class.DD* noundef nonnull align 8 dereferenceable(24) %this.adjusted) #5, !dbg !161	 ;;; line : 141, column : 4, filename : "./MicroBenchmark/single_v1_nv1/single_v1_nv1_30_2.cpp", 
  ret void, !dbg !162	 ;;; line : 142, column : 2, filename : "./MicroBenchmark/single_v1_nv1/single_v1_nv1_30_2.cpp", 
}	 ;;;;; line : 142, column : 2, filename : "./MicroBenchmark/single_v1_nv1/single_v1_nv1_30_2.cpp", 

; Function Attrs: nofree nosync nounwind readnone speculatable willreturn
declare void @llvm.dbg.declare(metadata, metadata, metadata) #1	 ;;;;; line : 142, column : 2, filename : "./MicroBenchmark/single_v1_nv1/single_v1_nv1_30_2.cpp", 

; Function Attrs: mustprogress noinline norecurse uwtable
define dso_local noundef i32 @main() #2 !dbg !163 {	 ;;; filename : "./MicroBenchmark/single_v1_nv1/single_v1_nv1_30_2.cpp", line : 145, 
entry:	 ;;;;; filename : "./MicroBenchmark/single_v1_nv1/single_v1_nv1_30_2.cpp", line : 145, 
  %dobj = alloca %class.DD, align 8	 ;;;;; filename : "./MicroBenchmark/single_v1_nv1/single_v1_nv1_30_2.cpp", line : 145, 
  %coerce = alloca { i64, i64 }, align 8	 ;;;;; filename : "./MicroBenchmark/single_v1_nv1/single_v1_nv1_30_2.cpp", line : 145, 
  %coerce1 = alloca { i64, i64 }, align 8	 ;;;;; filename : "./MicroBenchmark/single_v1_nv1/single_v1_nv1_30_2.cpp", line : 145, 
  call void @llvm.dbg.declare(metadata %class.DD* %dobj, metadata !164, metadata !DIExpression()), !dbg !165	 ;;; line : 146, column : 7, filename : "./MicroBenchmark/single_v1_nv1/single_v1_nv1_30_2.cpp", 
  call void @_ZN2DDC2Ev(%class.DD* noundef nonnull align 8 dereferenceable(24) %dobj) #6, !dbg !165	 ;;; line : 146, column : 7, filename : "./MicroBenchmark/single_v1_nv1/single_v1_nv1_30_2.cpp", 
  %0 = ptrtoint void (%class.DD*)* @_ZN2DD14ff_nv_00000000Ev to i64	 ;;;;; line : 146, column : 7, filename : "./MicroBenchmark/single_v1_nv1/single_v1_nv1_30_2.cpp", 
  %TIPS_gep_00 = getelementptr { i64, i64 }, { i64, i64 }* %coerce, i32 0, i32 0	 ;;;;; line : 146, column : 7, filename : "./MicroBenchmark/single_v1_nv1/single_v1_nv1_30_2.cpp", 
  %TIPS_gep_01 = getelementptr { i64, i64 }, { i64, i64 }* %coerce, i32 0, i32 1	 ;;;;; line : 146, column : 7, filename : "./MicroBenchmark/single_v1_nv1/single_v1_nv1_30_2.cpp", 
  store i64 %0, i64* %TIPS_gep_00, align 8	 ;;;;; line : 146, column : 7, filename : "./MicroBenchmark/single_v1_nv1/single_v1_nv1_30_2.cpp", 
  store i64 0, i64* %TIPS_gep_01, align 8	 ;;;;; line : 146, column : 7, filename : "./MicroBenchmark/single_v1_nv1/single_v1_nv1_30_2.cpp", 
  store { i64, i64 } { i64 ptrtoint (void (%class.DD*)* @_ZN2DD14ff_nv_00000000Ev to i64), i64 0 }, { i64, i64 }* %coerce, align 8, !dbg !166	 ;;; line : 148, column : 4, filename : "./MicroBenchmark/single_v1_nv1/single_v1_nv1_30_2.cpp", 
  %1 = getelementptr inbounds { i64, i64 }, { i64, i64 }* %coerce, i32 0, i32 0, !dbg !166	 ;;; line : 148, column : 4, filename : "./MicroBenchmark/single_v1_nv1/single_v1_nv1_30_2.cpp", 
  %2 = load i64, i64* %1, align 8, !dbg !166	 ;;; line : 148, column : 4, filename : "./MicroBenchmark/single_v1_nv1/single_v1_nv1_30_2.cpp", 
  %3 = getelementptr inbounds { i64, i64 }, { i64, i64 }* %coerce, i32 0, i32 1, !dbg !166	 ;;; line : 148, column : 4, filename : "./MicroBenchmark/single_v1_nv1/single_v1_nv1_30_2.cpp", 
  %4 = load i64, i64* %3, align 8, !dbg !166	 ;;; line : 148, column : 4, filename : "./MicroBenchmark/single_v1_nv1/single_v1_nv1_30_2.cpp", 
  call void @_Z4testP2DDMS_FvvE(%class.DD* noundef %dobj, i64 %2, i64 %4) #5, !dbg !166	 ;;; line : 148, column : 4, filename : "./MicroBenchmark/single_v1_nv1/single_v1_nv1_30_2.cpp", 
  %TIPS_gep_001 = getelementptr { i64, i64 }, { i64, i64 }* %coerce1, i32 0, i32 0	 ;;;;; line : 148, column : 4, filename : "./MicroBenchmark/single_v1_nv1/single_v1_nv1_30_2.cpp", 
  %TIPS_gep_012 = getelementptr { i64, i64 }, { i64, i64 }* %coerce1, i32 0, i32 1	 ;;;;; line : 148, column : 4, filename : "./MicroBenchmark/single_v1_nv1/single_v1_nv1_30_2.cpp", 
  store i64 241, i64* %TIPS_gep_001, align 8	 ;;;;; line : 148, column : 4, filename : "./MicroBenchmark/single_v1_nv1/single_v1_nv1_30_2.cpp", 
  store i64 0, i64* %TIPS_gep_012, align 8	 ;;;;; line : 148, column : 4, filename : "./MicroBenchmark/single_v1_nv1/single_v1_nv1_30_2.cpp", 
  store { i64, i64 } { i64 241, i64 0 }, { i64, i64 }* %coerce1, align 8, !dbg !167	 ;;; line : 150, column : 4, filename : "./MicroBenchmark/single_v1_nv1/single_v1_nv1_30_2.cpp", 
  %5 = getelementptr inbounds { i64, i64 }, { i64, i64 }* %coerce1, i32 0, i32 0, !dbg !167	 ;;; line : 150, column : 4, filename : "./MicroBenchmark/single_v1_nv1/single_v1_nv1_30_2.cpp", 
  %6 = load i64, i64* %5, align 8, !dbg !167	 ;;; line : 150, column : 4, filename : "./MicroBenchmark/single_v1_nv1/single_v1_nv1_30_2.cpp", 
  %7 = getelementptr inbounds { i64, i64 }, { i64, i64 }* %coerce1, i32 0, i32 1, !dbg !167	 ;;; line : 150, column : 4, filename : "./MicroBenchmark/single_v1_nv1/single_v1_nv1_30_2.cpp", 
  %8 = load i64, i64* %7, align 8, !dbg !167	 ;;; line : 150, column : 4, filename : "./MicroBenchmark/single_v1_nv1/single_v1_nv1_30_2.cpp", 
  call void @_Z4testP2DDMS_FvvE(%class.DD* noundef %dobj, i64 %6, i64 %8) #5, !dbg !167	 ;;; line : 150, column : 4, filename : "./MicroBenchmark/single_v1_nv1/single_v1_nv1_30_2.cpp", 
  ret i32 0, !dbg !168	 ;;; line : 152, column : 4, filename : "./MicroBenchmark/single_v1_nv1/single_v1_nv1_30_2.cpp", 
}	 ;;;;; line : 152, column : 4, filename : "./MicroBenchmark/single_v1_nv1/single_v1_nv1_30_2.cpp", 

; Function Attrs: noinline nounwind uwtable
define linkonce_odr dso_local void @_ZN2DDC2Ev(%class.DD* noundef nonnull align 8 dereferenceable(24) %this) unnamed_addr #3 comdat align 2 !dbg !169 {	 ;;; filename : "./MicroBenchmark/single_v1_nv1/single_v1_nv1_30_2.cpp", line : 70, 
entry:	 ;;;;; filename : "./MicroBenchmark/single_v1_nv1/single_v1_nv1_30_2.cpp", line : 70, 
  call void @llvm.dbg.value(metadata %class.DD* %this, metadata !171, metadata !DIExpression()), !dbg !172	 ;;;;; filename : "./MicroBenchmark/single_v1_nv1/single_v1_nv1_30_2.cpp", line : 70, 
  %0 = bitcast %class.DD* %this to %class.BB*, !dbg !173	 ;;; line : 70, column : 8, filename : "./MicroBenchmark/single_v1_nv1/single_v1_nv1_30_2.cpp", 
  call void @_ZN2BBC2Ev(%class.BB* noundef nonnull align 8 dereferenceable(16) %0) #6, !dbg !173	 ;;; line : 70, column : 8, filename : "./MicroBenchmark/single_v1_nv1/single_v1_nv1_30_2.cpp", 
  %1 = bitcast %class.DD* %this to i32 (...)***, !dbg !173	 ;;; line : 70, column : 8, filename : "./MicroBenchmark/single_v1_nv1/single_v1_nv1_30_2.cpp", 
  %2 = getelementptr inbounds { [62 x i8*] }, { [62 x i8*] }* @_ZTV2DD, i32 0, i32 0, i32 2	 ;;;;; line : 70, column : 8, filename : "./MicroBenchmark/single_v1_nv1/single_v1_nv1_30_2.cpp", 
  %3 = bitcast i8** %2 to i32 (...)**	 ;;;;; line : 70, column : 8, filename : "./MicroBenchmark/single_v1_nv1/single_v1_nv1_30_2.cpp", 
  store i32 (...)** %3, i32 (...)*** %1, align 8, !dbg !173	 ;;; line : 70, column : 8, filename : "./MicroBenchmark/single_v1_nv1/single_v1_nv1_30_2.cpp", 
  ret void, !dbg !173	 ;;; line : 70, column : 8, filename : "./MicroBenchmark/single_v1_nv1/single_v1_nv1_30_2.cpp", 
}	 ;;;;; line : 70, column : 8, filename : "./MicroBenchmark/single_v1_nv1/single_v1_nv1_30_2.cpp", 

; Function Attrs: mustprogress noinline nounwind uwtable
define linkonce_odr dso_local void @_ZN2DD14ff_nv_00000000Ev(%class.DD* noundef nonnull align 8 dereferenceable(24) %this) #4 comdat align 2 !dbg !174 {	 ;;; filename : "./MicroBenchmark/single_v1_nv1/single_v1_nv1_30_2.cpp", line : 106, 
entry:	 ;;;;; filename : "./MicroBenchmark/single_v1_nv1/single_v1_nv1_30_2.cpp", line : 106, 
  call void @llvm.dbg.value(metadata %class.DD* %this, metadata !175, metadata !DIExpression()), !dbg !176	 ;;;;; filename : "./MicroBenchmark/single_v1_nv1/single_v1_nv1_30_2.cpp", line : 106, 
  ret void, !dbg !177	 ;;; line : 106, column : 29, filename : "./MicroBenchmark/single_v1_nv1/single_v1_nv1_30_2.cpp", 
}	 ;;;;; line : 106, column : 29, filename : "./MicroBenchmark/single_v1_nv1/single_v1_nv1_30_2.cpp", 

; Function Attrs: noinline nounwind uwtable
define linkonce_odr dso_local void @_ZN2BBC2Ev(%class.BB* noundef nonnull align 8 dereferenceable(16) %this) unnamed_addr #3 comdat align 2 !dbg !178 {	 ;;; filename : "./MicroBenchmark/single_v1_nv1/single_v1_nv1_30_2.cpp", line : 2, 
entry:	 ;;;;; filename : "./MicroBenchmark/single_v1_nv1/single_v1_nv1_30_2.cpp", line : 2, 
  call void @llvm.dbg.value(metadata %class.BB* %this, metadata !180, metadata !DIExpression()), !dbg !182	 ;;;;; filename : "./MicroBenchmark/single_v1_nv1/single_v1_nv1_30_2.cpp", line : 2, 
  %0 = bitcast %class.BB* %this to i32 (...)***, !dbg !183	 ;;; line : 2, column : 8, filename : "./MicroBenchmark/single_v1_nv1/single_v1_nv1_30_2.cpp", 
  %1 = getelementptr inbounds { [32 x i8*] }, { [32 x i8*] }* @_ZTV2BB, i32 0, i32 0, i32 2	 ;;;;; line : 2, column : 8, filename : "./MicroBenchmark/single_v1_nv1/single_v1_nv1_30_2.cpp", 
  %2 = bitcast i8** %1 to i32 (...)**	 ;;;;; line : 2, column : 8, filename : "./MicroBenchmark/single_v1_nv1/single_v1_nv1_30_2.cpp", 
  store i32 (...)** %2, i32 (...)*** %0, align 8, !dbg !183	 ;;; line : 2, column : 8, filename : "./MicroBenchmark/single_v1_nv1/single_v1_nv1_30_2.cpp", 
  ret void, !dbg !183	 ;;; line : 2, column : 8, filename : "./MicroBenchmark/single_v1_nv1/single_v1_nv1_30_2.cpp", 
}	 ;;;;; line : 2, column : 8, filename : "./MicroBenchmark/single_v1_nv1/single_v1_nv1_30_2.cpp", 

; Function Attrs: mustprogress noinline nounwind uwtable
define linkonce_odr dso_local void @_ZN2BB13gg_v_00000000Ev(%class.BB* noundef nonnull align 8 dereferenceable(16) %this) unnamed_addr #4 comdat align 2 !dbg !184 {	 ;;; filename : "./MicroBenchmark/single_v1_nv1/single_v1_nv1_30_2.cpp", line : 6, 
entry:	 ;;;;; filename : "./MicroBenchmark/single_v1_nv1/single_v1_nv1_30_2.cpp", line : 6, 
  call void @llvm.dbg.value(metadata %class.BB* %this, metadata !185, metadata !DIExpression()), !dbg !186	 ;;;;; filename : "./MicroBenchmark/single_v1_nv1/single_v1_nv1_30_2.cpp", line : 6, 
  ret void, !dbg !187	 ;;; line : 6, column : 35, filename : "./MicroBenchmark/single_v1_nv1/single_v1_nv1_30_2.cpp", 
}	 ;;;;; line : 6, column : 35, filename : "./MicroBenchmark/single_v1_nv1/single_v1_nv1_30_2.cpp", 

; Function Attrs: mustprogress noinline nounwind uwtable
define linkonce_odr dso_local void @_ZN2BB13gg_v_00000001Ev(%class.BB* noundef nonnull align 8 dereferenceable(16) %this) unnamed_addr #4 comdat align 2 !dbg !188 {	 ;;; filename : "./MicroBenchmark/single_v1_nv1/single_v1_nv1_30_2.cpp", line : 7, 
entry:	 ;;;;; filename : "./MicroBenchmark/single_v1_nv1/single_v1_nv1_30_2.cpp", line : 7, 
  call void @llvm.dbg.value(metadata %class.BB* %this, metadata !189, metadata !DIExpression()), !dbg !190	 ;;;;; filename : "./MicroBenchmark/single_v1_nv1/single_v1_nv1_30_2.cpp", line : 7, 
  ret void, !dbg !191	 ;;; line : 7, column : 35, filename : "./MicroBenchmark/single_v1_nv1/single_v1_nv1_30_2.cpp", 
}	 ;;;;; line : 7, column : 35, filename : "./MicroBenchmark/single_v1_nv1/single_v1_nv1_30_2.cpp", 

; Function Attrs: mustprogress noinline nounwind uwtable
define linkonce_odr dso_local void @_ZN2BB13gg_v_00000002Ev(%class.BB* noundef nonnull align 8 dereferenceable(16) %this) unnamed_addr #4 comdat align 2 !dbg !192 {	 ;;; filename : "./MicroBenchmark/single_v1_nv1/single_v1_nv1_30_2.cpp", line : 8, 
entry:	 ;;;;; filename : "./MicroBenchmark/single_v1_nv1/single_v1_nv1_30_2.cpp", line : 8, 
  call void @llvm.dbg.value(metadata %class.BB* %this, metadata !193, metadata !DIExpression()), !dbg !194	 ;;;;; filename : "./MicroBenchmark/single_v1_nv1/single_v1_nv1_30_2.cpp", line : 8, 
  ret void, !dbg !195	 ;;; line : 8, column : 35, filename : "./MicroBenchmark/single_v1_nv1/single_v1_nv1_30_2.cpp", 
}	 ;;;;; line : 8, column : 35, filename : "./MicroBenchmark/single_v1_nv1/single_v1_nv1_30_2.cpp", 

; Function Attrs: mustprogress noinline nounwind uwtable
define linkonce_odr dso_local void @_ZN2BB13gg_v_00000003Ev(%class.BB* noundef nonnull align 8 dereferenceable(16) %this) unnamed_addr #4 comdat align 2 !dbg !196 {	 ;;; filename : "./MicroBenchmark/single_v1_nv1/single_v1_nv1_30_2.cpp", line : 9, 
entry:	 ;;;;; filename : "./MicroBenchmark/single_v1_nv1/single_v1_nv1_30_2.cpp", line : 9, 
  call void @llvm.dbg.value(metadata %class.BB* %this, metadata !197, metadata !DIExpression()), !dbg !198	 ;;;;; filename : "./MicroBenchmark/single_v1_nv1/single_v1_nv1_30_2.cpp", line : 9, 
  ret void, !dbg !199	 ;;; line : 9, column : 35, filename : "./MicroBenchmark/single_v1_nv1/single_v1_nv1_30_2.cpp", 
}	 ;;;;; line : 9, column : 35, filename : "./MicroBenchmark/single_v1_nv1/single_v1_nv1_30_2.cpp", 

; Function Attrs: mustprogress noinline nounwind uwtable
define linkonce_odr dso_local void @_ZN2BB13gg_v_00000004Ev(%class.BB* noundef nonnull align 8 dereferenceable(16) %this) unnamed_addr #4 comdat align 2 !dbg !200 {	 ;;; filename : "./MicroBenchmark/single_v1_nv1/single_v1_nv1_30_2.cpp", line : 10, 
entry:	 ;;;;; filename : "./MicroBenchmark/single_v1_nv1/single_v1_nv1_30_2.cpp", line : 10, 
  call void @llvm.dbg.value(metadata %class.BB* %this, metadata !201, metadata !DIExpression()), !dbg !202	 ;;;;; filename : "./MicroBenchmark/single_v1_nv1/single_v1_nv1_30_2.cpp", line : 10, 
  ret void, !dbg !203	 ;;; line : 10, column : 35, filename : "./MicroBenchmark/single_v1_nv1/single_v1_nv1_30_2.cpp", 
}	 ;;;;; line : 10, column : 35, filename : "./MicroBenchmark/single_v1_nv1/single_v1_nv1_30_2.cpp", 

; Function Attrs: mustprogress noinline nounwind uwtable
define linkonce_odr dso_local void @_ZN2BB13gg_v_00000005Ev(%class.BB* noundef nonnull align 8 dereferenceable(16) %this) unnamed_addr #4 comdat align 2 !dbg !204 {	 ;;; filename : "./MicroBenchmark/single_v1_nv1/single_v1_nv1_30_2.cpp", line : 11, 
entry:	 ;;;;; filename : "./MicroBenchmark/single_v1_nv1/single_v1_nv1_30_2.cpp", line : 11, 
  call void @llvm.dbg.value(metadata %class.BB* %this, metadata !205, metadata !DIExpression()), !dbg !206	 ;;;;; filename : "./MicroBenchmark/single_v1_nv1/single_v1_nv1_30_2.cpp", line : 11, 
  ret void, !dbg !207	 ;;; line : 11, column : 35, filename : "./MicroBenchmark/single_v1_nv1/single_v1_nv1_30_2.cpp", 
}	 ;;;;; line : 11, column : 35, filename : "./MicroBenchmark/single_v1_nv1/single_v1_nv1_30_2.cpp", 

; Function Attrs: mustprogress noinline nounwind uwtable
define linkonce_odr dso_local void @_ZN2BB13gg_v_00000006Ev(%class.BB* noundef nonnull align 8 dereferenceable(16) %this) unnamed_addr #4 comdat align 2 !dbg !208 {	 ;;; filename : "./MicroBenchmark/single_v1_nv1/single_v1_nv1_30_2.cpp", line : 12, 
entry:	 ;;;;; filename : "./MicroBenchmark/single_v1_nv1/single_v1_nv1_30_2.cpp", line : 12, 
  call void @llvm.dbg.value(metadata %class.BB* %this, metadata !209, metadata !DIExpression()), !dbg !210	 ;;;;; filename : "./MicroBenchmark/single_v1_nv1/single_v1_nv1_30_2.cpp", line : 12, 
  ret void, !dbg !211	 ;;; line : 12, column : 35, filename : "./MicroBenchmark/single_v1_nv1/single_v1_nv1_30_2.cpp", 
}	 ;;;;; line : 12, column : 35, filename : "./MicroBenchmark/single_v1_nv1/single_v1_nv1_30_2.cpp", 

; Function Attrs: mustprogress noinline nounwind uwtable
define linkonce_odr dso_local void @_ZN2BB13gg_v_00000007Ev(%class.BB* noundef nonnull align 8 dereferenceable(16) %this) unnamed_addr #4 comdat align 2 !dbg !212 {	 ;;; filename : "./MicroBenchmark/single_v1_nv1/single_v1_nv1_30_2.cpp", line : 13, 
entry:	 ;;;;; filename : "./MicroBenchmark/single_v1_nv1/single_v1_nv1_30_2.cpp", line : 13, 
  call void @llvm.dbg.value(metadata %class.BB* %this, metadata !213, metadata !DIExpression()), !dbg !214	 ;;;;; filename : "./MicroBenchmark/single_v1_nv1/single_v1_nv1_30_2.cpp", line : 13, 
  ret void, !dbg !215	 ;;; line : 13, column : 35, filename : "./MicroBenchmark/single_v1_nv1/single_v1_nv1_30_2.cpp", 
}	 ;;;;; line : 13, column : 35, filename : "./MicroBenchmark/single_v1_nv1/single_v1_nv1_30_2.cpp", 

; Function Attrs: mustprogress noinline nounwind uwtable
define linkonce_odr dso_local void @_ZN2BB13gg_v_00000008Ev(%class.BB* noundef nonnull align 8 dereferenceable(16) %this) unnamed_addr #4 comdat align 2 !dbg !216 {	 ;;; filename : "./MicroBenchmark/single_v1_nv1/single_v1_nv1_30_2.cpp", line : 14, 
entry:	 ;;;;; filename : "./MicroBenchmark/single_v1_nv1/single_v1_nv1_30_2.cpp", line : 14, 
  call void @llvm.dbg.value(metadata %class.BB* %this, metadata !217, metadata !DIExpression()), !dbg !218	 ;;;;; filename : "./MicroBenchmark/single_v1_nv1/single_v1_nv1_30_2.cpp", line : 14, 
  ret void, !dbg !219	 ;;; line : 14, column : 35, filename : "./MicroBenchmark/single_v1_nv1/single_v1_nv1_30_2.cpp", 
}	 ;;;;; line : 14, column : 35, filename : "./MicroBenchmark/single_v1_nv1/single_v1_nv1_30_2.cpp", 

; Function Attrs: mustprogress noinline nounwind uwtable
define linkonce_odr dso_local void @_ZN2BB13gg_v_00000009Ev(%class.BB* noundef nonnull align 8 dereferenceable(16) %this) unnamed_addr #4 comdat align 2 !dbg !220 {	 ;;; filename : "./MicroBenchmark/single_v1_nv1/single_v1_nv1_30_2.cpp", line : 15, 
entry:	 ;;;;; filename : "./MicroBenchmark/single_v1_nv1/single_v1_nv1_30_2.cpp", line : 15, 
  call void @llvm.dbg.value(metadata %class.BB* %this, metadata !221, metadata !DIExpression()), !dbg !222	 ;;;;; filename : "./MicroBenchmark/single_v1_nv1/single_v1_nv1_30_2.cpp", line : 15, 
  ret void, !dbg !223	 ;;; line : 15, column : 35, filename : "./MicroBenchmark/single_v1_nv1/single_v1_nv1_30_2.cpp", 
}	 ;;;;; line : 15, column : 35, filename : "./MicroBenchmark/single_v1_nv1/single_v1_nv1_30_2.cpp", 

; Function Attrs: mustprogress noinline nounwind uwtable
define linkonce_odr dso_local void @_ZN2BB13gg_v_00000010Ev(%class.BB* noundef nonnull align 8 dereferenceable(16) %this) unnamed_addr #4 comdat align 2 !dbg !224 {	 ;;; filename : "./MicroBenchmark/single_v1_nv1/single_v1_nv1_30_2.cpp", line : 16, 
entry:	 ;;;;; filename : "./MicroBenchmark/single_v1_nv1/single_v1_nv1_30_2.cpp", line : 16, 
  call void @llvm.dbg.value(metadata %class.BB* %this, metadata !225, metadata !DIExpression()), !dbg !226	 ;;;;; filename : "./MicroBenchmark/single_v1_nv1/single_v1_nv1_30_2.cpp", line : 16, 
  ret void, !dbg !227	 ;;; line : 16, column : 35, filename : "./MicroBenchmark/single_v1_nv1/single_v1_nv1_30_2.cpp", 
}	 ;;;;; line : 16, column : 35, filename : "./MicroBenchmark/single_v1_nv1/single_v1_nv1_30_2.cpp", 

; Function Attrs: mustprogress noinline nounwind uwtable
define linkonce_odr dso_local void @_ZN2BB13gg_v_00000011Ev(%class.BB* noundef nonnull align 8 dereferenceable(16) %this) unnamed_addr #4 comdat align 2 !dbg !228 {	 ;;; filename : "./MicroBenchmark/single_v1_nv1/single_v1_nv1_30_2.cpp", line : 17, 
entry:	 ;;;;; filename : "./MicroBenchmark/single_v1_nv1/single_v1_nv1_30_2.cpp", line : 17, 
  call void @llvm.dbg.value(metadata %class.BB* %this, metadata !229, metadata !DIExpression()), !dbg !230	 ;;;;; filename : "./MicroBenchmark/single_v1_nv1/single_v1_nv1_30_2.cpp", line : 17, 
  ret void, !dbg !231	 ;;; line : 17, column : 35, filename : "./MicroBenchmark/single_v1_nv1/single_v1_nv1_30_2.cpp", 
}	 ;;;;; line : 17, column : 35, filename : "./MicroBenchmark/single_v1_nv1/single_v1_nv1_30_2.cpp", 

; Function Attrs: mustprogress noinline nounwind uwtable
define linkonce_odr dso_local void @_ZN2BB13gg_v_00000012Ev(%class.BB* noundef nonnull align 8 dereferenceable(16) %this) unnamed_addr #4 comdat align 2 !dbg !232 {	 ;;; filename : "./MicroBenchmark/single_v1_nv1/single_v1_nv1_30_2.cpp", line : 18, 
entry:	 ;;;;; filename : "./MicroBenchmark/single_v1_nv1/single_v1_nv1_30_2.cpp", line : 18, 
  call void @llvm.dbg.value(metadata %class.BB* %this, metadata !233, metadata !DIExpression()), !dbg !234	 ;;;;; filename : "./MicroBenchmark/single_v1_nv1/single_v1_nv1_30_2.cpp", line : 18, 
  ret void, !dbg !235	 ;;; line : 18, column : 35, filename : "./MicroBenchmark/single_v1_nv1/single_v1_nv1_30_2.cpp", 
}	 ;;;;; line : 18, column : 35, filename : "./MicroBenchmark/single_v1_nv1/single_v1_nv1_30_2.cpp", 

; Function Attrs: mustprogress noinline nounwind uwtable
define linkonce_odr dso_local void @_ZN2BB13gg_v_00000013Ev(%class.BB* noundef nonnull align 8 dereferenceable(16) %this) unnamed_addr #4 comdat align 2 !dbg !236 {	 ;;; filename : "./MicroBenchmark/single_v1_nv1/single_v1_nv1_30_2.cpp", line : 19, 
entry:	 ;;;;; filename : "./MicroBenchmark/single_v1_nv1/single_v1_nv1_30_2.cpp", line : 19, 
  call void @llvm.dbg.value(metadata %class.BB* %this, metadata !237, metadata !DIExpression()), !dbg !238	 ;;;;; filename : "./MicroBenchmark/single_v1_nv1/single_v1_nv1_30_2.cpp", line : 19, 
  ret void, !dbg !239	 ;;; line : 19, column : 35, filename : "./MicroBenchmark/single_v1_nv1/single_v1_nv1_30_2.cpp", 
}	 ;;;;; line : 19, column : 35, filename : "./MicroBenchmark/single_v1_nv1/single_v1_nv1_30_2.cpp", 

; Function Attrs: mustprogress noinline nounwind uwtable
define linkonce_odr dso_local void @_ZN2BB13gg_v_00000014Ev(%class.BB* noundef nonnull align 8 dereferenceable(16) %this) unnamed_addr #4 comdat align 2 !dbg !240 {	 ;;; filename : "./MicroBenchmark/single_v1_nv1/single_v1_nv1_30_2.cpp", line : 20, 
entry:	 ;;;;; filename : "./MicroBenchmark/single_v1_nv1/single_v1_nv1_30_2.cpp", line : 20, 
  call void @llvm.dbg.value(metadata %class.BB* %this, metadata !241, metadata !DIExpression()), !dbg !242	 ;;;;; filename : "./MicroBenchmark/single_v1_nv1/single_v1_nv1_30_2.cpp", line : 20, 
  ret void, !dbg !243	 ;;; line : 20, column : 35, filename : "./MicroBenchmark/single_v1_nv1/single_v1_nv1_30_2.cpp", 
}	 ;;;;; line : 20, column : 35, filename : "./MicroBenchmark/single_v1_nv1/single_v1_nv1_30_2.cpp", 

; Function Attrs: mustprogress noinline nounwind uwtable
define linkonce_odr dso_local void @_ZN2BB13gg_v_00000015Ev(%class.BB* noundef nonnull align 8 dereferenceable(16) %this) unnamed_addr #4 comdat align 2 !dbg !244 {	 ;;; filename : "./MicroBenchmark/single_v1_nv1/single_v1_nv1_30_2.cpp", line : 21, 
entry:	 ;;;;; filename : "./MicroBenchmark/single_v1_nv1/single_v1_nv1_30_2.cpp", line : 21, 
  call void @llvm.dbg.value(metadata %class.BB* %this, metadata !245, metadata !DIExpression()), !dbg !246	 ;;;;; filename : "./MicroBenchmark/single_v1_nv1/single_v1_nv1_30_2.cpp", line : 21, 
  ret void, !dbg !247	 ;;; line : 21, column : 35, filename : "./MicroBenchmark/single_v1_nv1/single_v1_nv1_30_2.cpp", 
}	 ;;;;; line : 21, column : 35, filename : "./MicroBenchmark/single_v1_nv1/single_v1_nv1_30_2.cpp", 

; Function Attrs: mustprogress noinline nounwind uwtable
define linkonce_odr dso_local void @_ZN2BB13gg_v_00000016Ev(%class.BB* noundef nonnull align 8 dereferenceable(16) %this) unnamed_addr #4 comdat align 2 !dbg !248 {	 ;;; filename : "./MicroBenchmark/single_v1_nv1/single_v1_nv1_30_2.cpp", line : 22, 
entry:	 ;;;;; filename : "./MicroBenchmark/single_v1_nv1/single_v1_nv1_30_2.cpp", line : 22, 
  call void @llvm.dbg.value(metadata %class.BB* %this, metadata !249, metadata !DIExpression()), !dbg !250	 ;;;;; filename : "./MicroBenchmark/single_v1_nv1/single_v1_nv1_30_2.cpp", line : 22, 
  ret void, !dbg !251	 ;;; line : 22, column : 35, filename : "./MicroBenchmark/single_v1_nv1/single_v1_nv1_30_2.cpp", 
}	 ;;;;; line : 22, column : 35, filename : "./MicroBenchmark/single_v1_nv1/single_v1_nv1_30_2.cpp", 

; Function Attrs: mustprogress noinline nounwind uwtable
define linkonce_odr dso_local void @_ZN2BB13gg_v_00000017Ev(%class.BB* noundef nonnull align 8 dereferenceable(16) %this) unnamed_addr #4 comdat align 2 !dbg !252 {	 ;;; filename : "./MicroBenchmark/single_v1_nv1/single_v1_nv1_30_2.cpp", line : 23, 
entry:	 ;;;;; filename : "./MicroBenchmark/single_v1_nv1/single_v1_nv1_30_2.cpp", line : 23, 
  call void @llvm.dbg.value(metadata %class.BB* %this, metadata !253, metadata !DIExpression()), !dbg !254	 ;;;;; filename : "./MicroBenchmark/single_v1_nv1/single_v1_nv1_30_2.cpp", line : 23, 
  ret void, !dbg !255	 ;;; line : 23, column : 35, filename : "./MicroBenchmark/single_v1_nv1/single_v1_nv1_30_2.cpp", 
}	 ;;;;; line : 23, column : 35, filename : "./MicroBenchmark/single_v1_nv1/single_v1_nv1_30_2.cpp", 

; Function Attrs: mustprogress noinline nounwind uwtable
define linkonce_odr dso_local void @_ZN2BB13gg_v_00000018Ev(%class.BB* noundef nonnull align 8 dereferenceable(16) %this) unnamed_addr #4 comdat align 2 !dbg !256 {	 ;;; filename : "./MicroBenchmark/single_v1_nv1/single_v1_nv1_30_2.cpp", line : 24, 
entry:	 ;;;;; filename : "./MicroBenchmark/single_v1_nv1/single_v1_nv1_30_2.cpp", line : 24, 
  call void @llvm.dbg.value(metadata %class.BB* %this, metadata !257, metadata !DIExpression()), !dbg !258	 ;;;;; filename : "./MicroBenchmark/single_v1_nv1/single_v1_nv1_30_2.cpp", line : 24, 
  ret void, !dbg !259	 ;;; line : 24, column : 35, filename : "./MicroBenchmark/single_v1_nv1/single_v1_nv1_30_2.cpp", 
}	 ;;;;; line : 24, column : 35, filename : "./MicroBenchmark/single_v1_nv1/single_v1_nv1_30_2.cpp", 

; Function Attrs: mustprogress noinline nounwind uwtable
define linkonce_odr dso_local void @_ZN2BB13gg_v_00000019Ev(%class.BB* noundef nonnull align 8 dereferenceable(16) %this) unnamed_addr #4 comdat align 2 !dbg !260 {	 ;;; filename : "./MicroBenchmark/single_v1_nv1/single_v1_nv1_30_2.cpp", line : 25, 
entry:	 ;;;;; filename : "./MicroBenchmark/single_v1_nv1/single_v1_nv1_30_2.cpp", line : 25, 
  call void @llvm.dbg.value(metadata %class.BB* %this, metadata !261, metadata !DIExpression()), !dbg !262	 ;;;;; filename : "./MicroBenchmark/single_v1_nv1/single_v1_nv1_30_2.cpp", line : 25, 
  ret void, !dbg !263	 ;;; line : 25, column : 35, filename : "./MicroBenchmark/single_v1_nv1/single_v1_nv1_30_2.cpp", 
}	 ;;;;; line : 25, column : 35, filename : "./MicroBenchmark/single_v1_nv1/single_v1_nv1_30_2.cpp", 

; Function Attrs: mustprogress noinline nounwind uwtable
define linkonce_odr dso_local void @_ZN2BB13gg_v_00000020Ev(%class.BB* noundef nonnull align 8 dereferenceable(16) %this) unnamed_addr #4 comdat align 2 !dbg !264 {	 ;;; filename : "./MicroBenchmark/single_v1_nv1/single_v1_nv1_30_2.cpp", line : 26, 
entry:	 ;;;;; filename : "./MicroBenchmark/single_v1_nv1/single_v1_nv1_30_2.cpp", line : 26, 
  call void @llvm.dbg.value(metadata %class.BB* %this, metadata !265, metadata !DIExpression()), !dbg !266	 ;;;;; filename : "./MicroBenchmark/single_v1_nv1/single_v1_nv1_30_2.cpp", line : 26, 
  ret void, !dbg !267	 ;;; line : 26, column : 35, filename : "./MicroBenchmark/single_v1_nv1/single_v1_nv1_30_2.cpp", 
}	 ;;;;; line : 26, column : 35, filename : "./MicroBenchmark/single_v1_nv1/single_v1_nv1_30_2.cpp", 

; Function Attrs: mustprogress noinline nounwind uwtable
define linkonce_odr dso_local void @_ZN2BB13gg_v_00000021Ev(%class.BB* noundef nonnull align 8 dereferenceable(16) %this) unnamed_addr #4 comdat align 2 !dbg !268 {	 ;;; filename : "./MicroBenchmark/single_v1_nv1/single_v1_nv1_30_2.cpp", line : 27, 
entry:	 ;;;;; filename : "./MicroBenchmark/single_v1_nv1/single_v1_nv1_30_2.cpp", line : 27, 
  call void @llvm.dbg.value(metadata %class.BB* %this, metadata !269, metadata !DIExpression()), !dbg !270	 ;;;;; filename : "./MicroBenchmark/single_v1_nv1/single_v1_nv1_30_2.cpp", line : 27, 
  ret void, !dbg !271	 ;;; line : 27, column : 35, filename : "./MicroBenchmark/single_v1_nv1/single_v1_nv1_30_2.cpp", 
}	 ;;;;; line : 27, column : 35, filename : "./MicroBenchmark/single_v1_nv1/single_v1_nv1_30_2.cpp", 

; Function Attrs: mustprogress noinline nounwind uwtable
define linkonce_odr dso_local void @_ZN2BB13gg_v_00000022Ev(%class.BB* noundef nonnull align 8 dereferenceable(16) %this) unnamed_addr #4 comdat align 2 !dbg !272 {	 ;;; filename : "./MicroBenchmark/single_v1_nv1/single_v1_nv1_30_2.cpp", line : 28, 
entry:	 ;;;;; filename : "./MicroBenchmark/single_v1_nv1/single_v1_nv1_30_2.cpp", line : 28, 
  call void @llvm.dbg.value(metadata %class.BB* %this, metadata !273, metadata !DIExpression()), !dbg !274	 ;;;;; filename : "./MicroBenchmark/single_v1_nv1/single_v1_nv1_30_2.cpp", line : 28, 
  ret void, !dbg !275	 ;;; line : 28, column : 35, filename : "./MicroBenchmark/single_v1_nv1/single_v1_nv1_30_2.cpp", 
}	 ;;;;; line : 28, column : 35, filename : "./MicroBenchmark/single_v1_nv1/single_v1_nv1_30_2.cpp", 

; Function Attrs: mustprogress noinline nounwind uwtable
define linkonce_odr dso_local void @_ZN2BB13gg_v_00000023Ev(%class.BB* noundef nonnull align 8 dereferenceable(16) %this) unnamed_addr #4 comdat align 2 !dbg !276 {	 ;;; filename : "./MicroBenchmark/single_v1_nv1/single_v1_nv1_30_2.cpp", line : 29, 
entry:	 ;;;;; filename : "./MicroBenchmark/single_v1_nv1/single_v1_nv1_30_2.cpp", line : 29, 
  call void @llvm.dbg.value(metadata %class.BB* %this, metadata !277, metadata !DIExpression()), !dbg !278	 ;;;;; filename : "./MicroBenchmark/single_v1_nv1/single_v1_nv1_30_2.cpp", line : 29, 
  ret void, !dbg !279	 ;;; line : 29, column : 35, filename : "./MicroBenchmark/single_v1_nv1/single_v1_nv1_30_2.cpp", 
}	 ;;;;; line : 29, column : 35, filename : "./MicroBenchmark/single_v1_nv1/single_v1_nv1_30_2.cpp", 

; Function Attrs: mustprogress noinline nounwind uwtable
define linkonce_odr dso_local void @_ZN2BB13gg_v_00000024Ev(%class.BB* noundef nonnull align 8 dereferenceable(16) %this) unnamed_addr #4 comdat align 2 !dbg !280 {	 ;;; filename : "./MicroBenchmark/single_v1_nv1/single_v1_nv1_30_2.cpp", line : 30, 
entry:	 ;;;;; filename : "./MicroBenchmark/single_v1_nv1/single_v1_nv1_30_2.cpp", line : 30, 
  call void @llvm.dbg.value(metadata %class.BB* %this, metadata !281, metadata !DIExpression()), !dbg !282	 ;;;;; filename : "./MicroBenchmark/single_v1_nv1/single_v1_nv1_30_2.cpp", line : 30, 
  ret void, !dbg !283	 ;;; line : 30, column : 35, filename : "./MicroBenchmark/single_v1_nv1/single_v1_nv1_30_2.cpp", 
}	 ;;;;; line : 30, column : 35, filename : "./MicroBenchmark/single_v1_nv1/single_v1_nv1_30_2.cpp", 

; Function Attrs: mustprogress noinline nounwind uwtable
define linkonce_odr dso_local void @_ZN2BB13gg_v_00000025Ev(%class.BB* noundef nonnull align 8 dereferenceable(16) %this) unnamed_addr #4 comdat align 2 !dbg !284 {	 ;;; filename : "./MicroBenchmark/single_v1_nv1/single_v1_nv1_30_2.cpp", line : 31, 
entry:	 ;;;;; filename : "./MicroBenchmark/single_v1_nv1/single_v1_nv1_30_2.cpp", line : 31, 
  call void @llvm.dbg.value(metadata %class.BB* %this, metadata !285, metadata !DIExpression()), !dbg !286	 ;;;;; filename : "./MicroBenchmark/single_v1_nv1/single_v1_nv1_30_2.cpp", line : 31, 
  ret void, !dbg !287	 ;;; line : 31, column : 35, filename : "./MicroBenchmark/single_v1_nv1/single_v1_nv1_30_2.cpp", 
}	 ;;;;; line : 31, column : 35, filename : "./MicroBenchmark/single_v1_nv1/single_v1_nv1_30_2.cpp", 

; Function Attrs: mustprogress noinline nounwind uwtable
define linkonce_odr dso_local void @_ZN2BB13gg_v_00000026Ev(%class.BB* noundef nonnull align 8 dereferenceable(16) %this) unnamed_addr #4 comdat align 2 !dbg !288 {	 ;;; filename : "./MicroBenchmark/single_v1_nv1/single_v1_nv1_30_2.cpp", line : 32, 
entry:	 ;;;;; filename : "./MicroBenchmark/single_v1_nv1/single_v1_nv1_30_2.cpp", line : 32, 
  call void @llvm.dbg.value(metadata %class.BB* %this, metadata !289, metadata !DIExpression()), !dbg !290	 ;;;;; filename : "./MicroBenchmark/single_v1_nv1/single_v1_nv1_30_2.cpp", line : 32, 
  ret void, !dbg !291	 ;;; line : 32, column : 35, filename : "./MicroBenchmark/single_v1_nv1/single_v1_nv1_30_2.cpp", 
}	 ;;;;; line : 32, column : 35, filename : "./MicroBenchmark/single_v1_nv1/single_v1_nv1_30_2.cpp", 

; Function Attrs: mustprogress noinline nounwind uwtable
define linkonce_odr dso_local void @_ZN2BB13gg_v_00000027Ev(%class.BB* noundef nonnull align 8 dereferenceable(16) %this) unnamed_addr #4 comdat align 2 !dbg !292 {	 ;;; filename : "./MicroBenchmark/single_v1_nv1/single_v1_nv1_30_2.cpp", line : 33, 
entry:	 ;;;;; filename : "./MicroBenchmark/single_v1_nv1/single_v1_nv1_30_2.cpp", line : 33, 
  call void @llvm.dbg.value(metadata %class.BB* %this, metadata !293, metadata !DIExpression()), !dbg !294	 ;;;;; filename : "./MicroBenchmark/single_v1_nv1/single_v1_nv1_30_2.cpp", line : 33, 
  ret void, !dbg !295	 ;;; line : 33, column : 35, filename : "./MicroBenchmark/single_v1_nv1/single_v1_nv1_30_2.cpp", 
}	 ;;;;; line : 33, column : 35, filename : "./MicroBenchmark/single_v1_nv1/single_v1_nv1_30_2.cpp", 

; Function Attrs: mustprogress noinline nounwind uwtable
define linkonce_odr dso_local void @_ZN2BB13gg_v_00000028Ev(%class.BB* noundef nonnull align 8 dereferenceable(16) %this) unnamed_addr #4 comdat align 2 !dbg !296 {	 ;;; filename : "./MicroBenchmark/single_v1_nv1/single_v1_nv1_30_2.cpp", line : 34, 
entry:	 ;;;;; filename : "./MicroBenchmark/single_v1_nv1/single_v1_nv1_30_2.cpp", line : 34, 
  call void @llvm.dbg.value(metadata %class.BB* %this, metadata !297, metadata !DIExpression()), !dbg !298	 ;;;;; filename : "./MicroBenchmark/single_v1_nv1/single_v1_nv1_30_2.cpp", line : 34, 
  ret void, !dbg !299	 ;;; line : 34, column : 35, filename : "./MicroBenchmark/single_v1_nv1/single_v1_nv1_30_2.cpp", 
}	 ;;;;; line : 34, column : 35, filename : "./MicroBenchmark/single_v1_nv1/single_v1_nv1_30_2.cpp", 

; Function Attrs: mustprogress noinline nounwind uwtable
define linkonce_odr dso_local void @_ZN2BB13gg_v_00000029Ev(%class.BB* noundef nonnull align 8 dereferenceable(16) %this) unnamed_addr #4 comdat align 2 !dbg !300 {	 ;;; filename : "./MicroBenchmark/single_v1_nv1/single_v1_nv1_30_2.cpp", line : 35, 
entry:	 ;;;;; filename : "./MicroBenchmark/single_v1_nv1/single_v1_nv1_30_2.cpp", line : 35, 
  call void @llvm.dbg.value(metadata %class.BB* %this, metadata !301, metadata !DIExpression()), !dbg !302	 ;;;;; filename : "./MicroBenchmark/single_v1_nv1/single_v1_nv1_30_2.cpp", line : 35, 
  ret void, !dbg !303	 ;;; line : 35, column : 35, filename : "./MicroBenchmark/single_v1_nv1/single_v1_nv1_30_2.cpp", 
}	 ;;;;; line : 35, column : 35, filename : "./MicroBenchmark/single_v1_nv1/single_v1_nv1_30_2.cpp", 

; Function Attrs: mustprogress noinline nounwind uwtable
define linkonce_odr dso_local void @_ZN2DD13ff_v_00000000Ev(%class.DD* noundef nonnull align 8 dereferenceable(24) %this) unnamed_addr #4 comdat align 2 !dbg !304 {	 ;;; filename : "./MicroBenchmark/single_v1_nv1/single_v1_nv1_30_2.cpp", line : 75, 
entry:	 ;;;;; filename : "./MicroBenchmark/single_v1_nv1/single_v1_nv1_30_2.cpp", line : 75, 
  call void @llvm.dbg.value(metadata %class.DD* %this, metadata !305, metadata !DIExpression()), !dbg !306	 ;;;;; filename : "./MicroBenchmark/single_v1_nv1/single_v1_nv1_30_2.cpp", line : 75, 
  ret void, !dbg !307	 ;;; line : 75, column : 36, filename : "./MicroBenchmark/single_v1_nv1/single_v1_nv1_30_2.cpp", 
}	 ;;;;; line : 75, column : 36, filename : "./MicroBenchmark/single_v1_nv1/single_v1_nv1_30_2.cpp", 

; Function Attrs: mustprogress noinline nounwind uwtable
define linkonce_odr dso_local void @_ZN2DD13ff_v_00000001Ev(%class.DD* noundef nonnull align 8 dereferenceable(24) %this) unnamed_addr #4 comdat align 2 !dbg !308 {	 ;;; filename : "./MicroBenchmark/single_v1_nv1/single_v1_nv1_30_2.cpp", line : 76, 
entry:	 ;;;;; filename : "./MicroBenchmark/single_v1_nv1/single_v1_nv1_30_2.cpp", line : 76, 
  call void @llvm.dbg.value(metadata %class.DD* %this, metadata !309, metadata !DIExpression()), !dbg !310	 ;;;;; filename : "./MicroBenchmark/single_v1_nv1/single_v1_nv1_30_2.cpp", line : 76, 
  ret void, !dbg !311	 ;;; line : 76, column : 36, filename : "./MicroBenchmark/single_v1_nv1/single_v1_nv1_30_2.cpp", 
}	 ;;;;; line : 76, column : 36, filename : "./MicroBenchmark/single_v1_nv1/single_v1_nv1_30_2.cpp", 

; Function Attrs: mustprogress noinline nounwind uwtable
define linkonce_odr dso_local void @_ZN2DD13ff_v_00000002Ev(%class.DD* noundef nonnull align 8 dereferenceable(24) %this) unnamed_addr #4 comdat align 2 !dbg !312 {	 ;;; filename : "./MicroBenchmark/single_v1_nv1/single_v1_nv1_30_2.cpp", line : 77, 
entry:	 ;;;;; filename : "./MicroBenchmark/single_v1_nv1/single_v1_nv1_30_2.cpp", line : 77, 
  call void @llvm.dbg.value(metadata %class.DD* %this, metadata !313, metadata !DIExpression()), !dbg !314	 ;;;;; filename : "./MicroBenchmark/single_v1_nv1/single_v1_nv1_30_2.cpp", line : 77, 
  ret void, !dbg !315	 ;;; line : 77, column : 36, filename : "./MicroBenchmark/single_v1_nv1/single_v1_nv1_30_2.cpp", 
}	 ;;;;; line : 77, column : 36, filename : "./MicroBenchmark/single_v1_nv1/single_v1_nv1_30_2.cpp", 

; Function Attrs: mustprogress noinline nounwind uwtable
define linkonce_odr dso_local void @_ZN2DD13ff_v_00000003Ev(%class.DD* noundef nonnull align 8 dereferenceable(24) %this) unnamed_addr #4 comdat align 2 !dbg !316 {	 ;;; filename : "./MicroBenchmark/single_v1_nv1/single_v1_nv1_30_2.cpp", line : 78, 
entry:	 ;;;;; filename : "./MicroBenchmark/single_v1_nv1/single_v1_nv1_30_2.cpp", line : 78, 
  call void @llvm.dbg.value(metadata %class.DD* %this, metadata !317, metadata !DIExpression()), !dbg !318	 ;;;;; filename : "./MicroBenchmark/single_v1_nv1/single_v1_nv1_30_2.cpp", line : 78, 
  ret void, !dbg !319	 ;;; line : 78, column : 36, filename : "./MicroBenchmark/single_v1_nv1/single_v1_nv1_30_2.cpp", 
}	 ;;;;; line : 78, column : 36, filename : "./MicroBenchmark/single_v1_nv1/single_v1_nv1_30_2.cpp", 

; Function Attrs: mustprogress noinline nounwind uwtable
define linkonce_odr dso_local void @_ZN2DD13ff_v_00000004Ev(%class.DD* noundef nonnull align 8 dereferenceable(24) %this) unnamed_addr #4 comdat align 2 !dbg !320 {	 ;;; filename : "./MicroBenchmark/single_v1_nv1/single_v1_nv1_30_2.cpp", line : 79, 
entry:	 ;;;;; filename : "./MicroBenchmark/single_v1_nv1/single_v1_nv1_30_2.cpp", line : 79, 
  call void @llvm.dbg.value(metadata %class.DD* %this, metadata !321, metadata !DIExpression()), !dbg !322	 ;;;;; filename : "./MicroBenchmark/single_v1_nv1/single_v1_nv1_30_2.cpp", line : 79, 
  ret void, !dbg !323	 ;;; line : 79, column : 36, filename : "./MicroBenchmark/single_v1_nv1/single_v1_nv1_30_2.cpp", 
}	 ;;;;; line : 79, column : 36, filename : "./MicroBenchmark/single_v1_nv1/single_v1_nv1_30_2.cpp", 

; Function Attrs: mustprogress noinline nounwind uwtable
define linkonce_odr dso_local void @_ZN2DD13ff_v_00000005Ev(%class.DD* noundef nonnull align 8 dereferenceable(24) %this) unnamed_addr #4 comdat align 2 !dbg !324 {	 ;;; filename : "./MicroBenchmark/single_v1_nv1/single_v1_nv1_30_2.cpp", line : 80, 
entry:	 ;;;;; filename : "./MicroBenchmark/single_v1_nv1/single_v1_nv1_30_2.cpp", line : 80, 
  call void @llvm.dbg.value(metadata %class.DD* %this, metadata !325, metadata !DIExpression()), !dbg !326	 ;;;;; filename : "./MicroBenchmark/single_v1_nv1/single_v1_nv1_30_2.cpp", line : 80, 
  ret void, !dbg !327	 ;;; line : 80, column : 36, filename : "./MicroBenchmark/single_v1_nv1/single_v1_nv1_30_2.cpp", 
}	 ;;;;; line : 80, column : 36, filename : "./MicroBenchmark/single_v1_nv1/single_v1_nv1_30_2.cpp", 

; Function Attrs: mustprogress noinline nounwind uwtable
define linkonce_odr dso_local void @_ZN2DD13ff_v_00000006Ev(%class.DD* noundef nonnull align 8 dereferenceable(24) %this) unnamed_addr #4 comdat align 2 !dbg !328 {	 ;;; filename : "./MicroBenchmark/single_v1_nv1/single_v1_nv1_30_2.cpp", line : 81, 
entry:	 ;;;;; filename : "./MicroBenchmark/single_v1_nv1/single_v1_nv1_30_2.cpp", line : 81, 
  call void @llvm.dbg.value(metadata %class.DD* %this, metadata !329, metadata !DIExpression()), !dbg !330	 ;;;;; filename : "./MicroBenchmark/single_v1_nv1/single_v1_nv1_30_2.cpp", line : 81, 
  ret void, !dbg !331	 ;;; line : 81, column : 36, filename : "./MicroBenchmark/single_v1_nv1/single_v1_nv1_30_2.cpp", 
}	 ;;;;; line : 81, column : 36, filename : "./MicroBenchmark/single_v1_nv1/single_v1_nv1_30_2.cpp", 

; Function Attrs: mustprogress noinline nounwind uwtable
define linkonce_odr dso_local void @_ZN2DD13ff_v_00000007Ev(%class.DD* noundef nonnull align 8 dereferenceable(24) %this) unnamed_addr #4 comdat align 2 !dbg !332 {	 ;;; filename : "./MicroBenchmark/single_v1_nv1/single_v1_nv1_30_2.cpp", line : 82, 
entry:	 ;;;;; filename : "./MicroBenchmark/single_v1_nv1/single_v1_nv1_30_2.cpp", line : 82, 
  call void @llvm.dbg.value(metadata %class.DD* %this, metadata !333, metadata !DIExpression()), !dbg !334	 ;;;;; filename : "./MicroBenchmark/single_v1_nv1/single_v1_nv1_30_2.cpp", line : 82, 
  ret void, !dbg !335	 ;;; line : 82, column : 36, filename : "./MicroBenchmark/single_v1_nv1/single_v1_nv1_30_2.cpp", 
}	 ;;;;; line : 82, column : 36, filename : "./MicroBenchmark/single_v1_nv1/single_v1_nv1_30_2.cpp", 

; Function Attrs: mustprogress noinline nounwind uwtable
define linkonce_odr dso_local void @_ZN2DD13ff_v_00000008Ev(%class.DD* noundef nonnull align 8 dereferenceable(24) %this) unnamed_addr #4 comdat align 2 !dbg !336 {	 ;;; filename : "./MicroBenchmark/single_v1_nv1/single_v1_nv1_30_2.cpp", line : 83, 
entry:	 ;;;;; filename : "./MicroBenchmark/single_v1_nv1/single_v1_nv1_30_2.cpp", line : 83, 
  call void @llvm.dbg.value(metadata %class.DD* %this, metadata !337, metadata !DIExpression()), !dbg !338	 ;;;;; filename : "./MicroBenchmark/single_v1_nv1/single_v1_nv1_30_2.cpp", line : 83, 
  ret void, !dbg !339	 ;;; line : 83, column : 36, filename : "./MicroBenchmark/single_v1_nv1/single_v1_nv1_30_2.cpp", 
}	 ;;;;; line : 83, column : 36, filename : "./MicroBenchmark/single_v1_nv1/single_v1_nv1_30_2.cpp", 

; Function Attrs: mustprogress noinline nounwind uwtable
define linkonce_odr dso_local void @_ZN2DD13ff_v_00000009Ev(%class.DD* noundef nonnull align 8 dereferenceable(24) %this) unnamed_addr #4 comdat align 2 !dbg !340 {	 ;;; filename : "./MicroBenchmark/single_v1_nv1/single_v1_nv1_30_2.cpp", line : 84, 
entry:	 ;;;;; filename : "./MicroBenchmark/single_v1_nv1/single_v1_nv1_30_2.cpp", line : 84, 
  call void @llvm.dbg.value(metadata %class.DD* %this, metadata !341, metadata !DIExpression()), !dbg !342	 ;;;;; filename : "./MicroBenchmark/single_v1_nv1/single_v1_nv1_30_2.cpp", line : 84, 
  ret void, !dbg !343	 ;;; line : 84, column : 36, filename : "./MicroBenchmark/single_v1_nv1/single_v1_nv1_30_2.cpp", 
}	 ;;;;; line : 84, column : 36, filename : "./MicroBenchmark/single_v1_nv1/single_v1_nv1_30_2.cpp", 

; Function Attrs: mustprogress noinline nounwind uwtable
define linkonce_odr dso_local void @_ZN2DD13ff_v_00000010Ev(%class.DD* noundef nonnull align 8 dereferenceable(24) %this) unnamed_addr #4 comdat align 2 !dbg !344 {	 ;;; filename : "./MicroBenchmark/single_v1_nv1/single_v1_nv1_30_2.cpp", line : 85, 
entry:	 ;;;;; filename : "./MicroBenchmark/single_v1_nv1/single_v1_nv1_30_2.cpp", line : 85, 
  call void @llvm.dbg.value(metadata %class.DD* %this, metadata !345, metadata !DIExpression()), !dbg !346	 ;;;;; filename : "./MicroBenchmark/single_v1_nv1/single_v1_nv1_30_2.cpp", line : 85, 
  ret void, !dbg !347	 ;;; line : 85, column : 36, filename : "./MicroBenchmark/single_v1_nv1/single_v1_nv1_30_2.cpp", 
}	 ;;;;; line : 85, column : 36, filename : "./MicroBenchmark/single_v1_nv1/single_v1_nv1_30_2.cpp", 

; Function Attrs: mustprogress noinline nounwind uwtable
define linkonce_odr dso_local void @_ZN2DD13ff_v_00000011Ev(%class.DD* noundef nonnull align 8 dereferenceable(24) %this) unnamed_addr #4 comdat align 2 !dbg !348 {	 ;;; filename : "./MicroBenchmark/single_v1_nv1/single_v1_nv1_30_2.cpp", line : 86, 
entry:	 ;;;;; filename : "./MicroBenchmark/single_v1_nv1/single_v1_nv1_30_2.cpp", line : 86, 
  call void @llvm.dbg.value(metadata %class.DD* %this, metadata !349, metadata !DIExpression()), !dbg !350	 ;;;;; filename : "./MicroBenchmark/single_v1_nv1/single_v1_nv1_30_2.cpp", line : 86, 
  ret void, !dbg !351	 ;;; line : 86, column : 36, filename : "./MicroBenchmark/single_v1_nv1/single_v1_nv1_30_2.cpp", 
}	 ;;;;; line : 86, column : 36, filename : "./MicroBenchmark/single_v1_nv1/single_v1_nv1_30_2.cpp", 

; Function Attrs: mustprogress noinline nounwind uwtable
define linkonce_odr dso_local void @_ZN2DD13ff_v_00000012Ev(%class.DD* noundef nonnull align 8 dereferenceable(24) %this) unnamed_addr #4 comdat align 2 !dbg !352 {	 ;;; filename : "./MicroBenchmark/single_v1_nv1/single_v1_nv1_30_2.cpp", line : 87, 
entry:	 ;;;;; filename : "./MicroBenchmark/single_v1_nv1/single_v1_nv1_30_2.cpp", line : 87, 
  call void @llvm.dbg.value(metadata %class.DD* %this, metadata !353, metadata !DIExpression()), !dbg !354	 ;;;;; filename : "./MicroBenchmark/single_v1_nv1/single_v1_nv1_30_2.cpp", line : 87, 
  ret void, !dbg !355	 ;;; line : 87, column : 36, filename : "./MicroBenchmark/single_v1_nv1/single_v1_nv1_30_2.cpp", 
}	 ;;;;; line : 87, column : 36, filename : "./MicroBenchmark/single_v1_nv1/single_v1_nv1_30_2.cpp", 

; Function Attrs: mustprogress noinline nounwind uwtable
define linkonce_odr dso_local void @_ZN2DD13ff_v_00000013Ev(%class.DD* noundef nonnull align 8 dereferenceable(24) %this) unnamed_addr #4 comdat align 2 !dbg !356 {	 ;;; filename : "./MicroBenchmark/single_v1_nv1/single_v1_nv1_30_2.cpp", line : 88, 
entry:	 ;;;;; filename : "./MicroBenchmark/single_v1_nv1/single_v1_nv1_30_2.cpp", line : 88, 
  call void @llvm.dbg.value(metadata %class.DD* %this, metadata !357, metadata !DIExpression()), !dbg !358	 ;;;;; filename : "./MicroBenchmark/single_v1_nv1/single_v1_nv1_30_2.cpp", line : 88, 
  ret void, !dbg !359	 ;;; line : 88, column : 36, filename : "./MicroBenchmark/single_v1_nv1/single_v1_nv1_30_2.cpp", 
}	 ;;;;; line : 88, column : 36, filename : "./MicroBenchmark/single_v1_nv1/single_v1_nv1_30_2.cpp", 

; Function Attrs: mustprogress noinline nounwind uwtable
define linkonce_odr dso_local void @_ZN2DD13ff_v_00000014Ev(%class.DD* noundef nonnull align 8 dereferenceable(24) %this) unnamed_addr #4 comdat align 2 !dbg !360 {	 ;;; filename : "./MicroBenchmark/single_v1_nv1/single_v1_nv1_30_2.cpp", line : 89, 
entry:	 ;;;;; filename : "./MicroBenchmark/single_v1_nv1/single_v1_nv1_30_2.cpp", line : 89, 
  call void @llvm.dbg.value(metadata %class.DD* %this, metadata !361, metadata !DIExpression()), !dbg !362	 ;;;;; filename : "./MicroBenchmark/single_v1_nv1/single_v1_nv1_30_2.cpp", line : 89, 
  ret void, !dbg !363	 ;;; line : 89, column : 36, filename : "./MicroBenchmark/single_v1_nv1/single_v1_nv1_30_2.cpp", 
}	 ;;;;; line : 89, column : 36, filename : "./MicroBenchmark/single_v1_nv1/single_v1_nv1_30_2.cpp", 

; Function Attrs: mustprogress noinline nounwind uwtable
define linkonce_odr dso_local void @_ZN2DD13ff_v_00000015Ev(%class.DD* noundef nonnull align 8 dereferenceable(24) %this) unnamed_addr #4 comdat align 2 !dbg !364 {	 ;;; filename : "./MicroBenchmark/single_v1_nv1/single_v1_nv1_30_2.cpp", line : 90, 
entry:	 ;;;;; filename : "./MicroBenchmark/single_v1_nv1/single_v1_nv1_30_2.cpp", line : 90, 
  call void @llvm.dbg.value(metadata %class.DD* %this, metadata !365, metadata !DIExpression()), !dbg !366	 ;;;;; filename : "./MicroBenchmark/single_v1_nv1/single_v1_nv1_30_2.cpp", line : 90, 
  ret void, !dbg !367	 ;;; line : 90, column : 36, filename : "./MicroBenchmark/single_v1_nv1/single_v1_nv1_30_2.cpp", 
}	 ;;;;; line : 90, column : 36, filename : "./MicroBenchmark/single_v1_nv1/single_v1_nv1_30_2.cpp", 

; Function Attrs: mustprogress noinline nounwind uwtable
define linkonce_odr dso_local void @_ZN2DD13ff_v_00000016Ev(%class.DD* noundef nonnull align 8 dereferenceable(24) %this) unnamed_addr #4 comdat align 2 !dbg !368 {	 ;;; filename : "./MicroBenchmark/single_v1_nv1/single_v1_nv1_30_2.cpp", line : 91, 
entry:	 ;;;;; filename : "./MicroBenchmark/single_v1_nv1/single_v1_nv1_30_2.cpp", line : 91, 
  call void @llvm.dbg.value(metadata %class.DD* %this, metadata !369, metadata !DIExpression()), !dbg !370	 ;;;;; filename : "./MicroBenchmark/single_v1_nv1/single_v1_nv1_30_2.cpp", line : 91, 
  ret void, !dbg !371	 ;;; line : 91, column : 36, filename : "./MicroBenchmark/single_v1_nv1/single_v1_nv1_30_2.cpp", 
}	 ;;;;; line : 91, column : 36, filename : "./MicroBenchmark/single_v1_nv1/single_v1_nv1_30_2.cpp", 

; Function Attrs: mustprogress noinline nounwind uwtable
define linkonce_odr dso_local void @_ZN2DD13ff_v_00000017Ev(%class.DD* noundef nonnull align 8 dereferenceable(24) %this) unnamed_addr #4 comdat align 2 !dbg !372 {	 ;;; filename : "./MicroBenchmark/single_v1_nv1/single_v1_nv1_30_2.cpp", line : 92, 
entry:	 ;;;;; filename : "./MicroBenchmark/single_v1_nv1/single_v1_nv1_30_2.cpp", line : 92, 
  call void @llvm.dbg.value(metadata %class.DD* %this, metadata !373, metadata !DIExpression()), !dbg !374	 ;;;;; filename : "./MicroBenchmark/single_v1_nv1/single_v1_nv1_30_2.cpp", line : 92, 
  ret void, !dbg !375	 ;;; line : 92, column : 36, filename : "./MicroBenchmark/single_v1_nv1/single_v1_nv1_30_2.cpp", 
}	 ;;;;; line : 92, column : 36, filename : "./MicroBenchmark/single_v1_nv1/single_v1_nv1_30_2.cpp", 

; Function Attrs: mustprogress noinline nounwind uwtable
define linkonce_odr dso_local void @_ZN2DD13ff_v_00000018Ev(%class.DD* noundef nonnull align 8 dereferenceable(24) %this) unnamed_addr #4 comdat align 2 !dbg !376 {	 ;;; filename : "./MicroBenchmark/single_v1_nv1/single_v1_nv1_30_2.cpp", line : 93, 
entry:	 ;;;;; filename : "./MicroBenchmark/single_v1_nv1/single_v1_nv1_30_2.cpp", line : 93, 
  call void @llvm.dbg.value(metadata %class.DD* %this, metadata !377, metadata !DIExpression()), !dbg !378	 ;;;;; filename : "./MicroBenchmark/single_v1_nv1/single_v1_nv1_30_2.cpp", line : 93, 
  ret void, !dbg !379	 ;;; line : 93, column : 36, filename : "./MicroBenchmark/single_v1_nv1/single_v1_nv1_30_2.cpp", 
}	 ;;;;; line : 93, column : 36, filename : "./MicroBenchmark/single_v1_nv1/single_v1_nv1_30_2.cpp", 

; Function Attrs: mustprogress noinline nounwind uwtable
define linkonce_odr dso_local void @_ZN2DD13ff_v_00000019Ev(%class.DD* noundef nonnull align 8 dereferenceable(24) %this) unnamed_addr #4 comdat align 2 !dbg !380 {	 ;;; filename : "./MicroBenchmark/single_v1_nv1/single_v1_nv1_30_2.cpp", line : 94, 
entry:	 ;;;;; filename : "./MicroBenchmark/single_v1_nv1/single_v1_nv1_30_2.cpp", line : 94, 
  call void @llvm.dbg.value(metadata %class.DD* %this, metadata !381, metadata !DIExpression()), !dbg !382	 ;;;;; filename : "./MicroBenchmark/single_v1_nv1/single_v1_nv1_30_2.cpp", line : 94, 
  ret void, !dbg !383	 ;;; line : 94, column : 36, filename : "./MicroBenchmark/single_v1_nv1/single_v1_nv1_30_2.cpp", 
}	 ;;;;; line : 94, column : 36, filename : "./MicroBenchmark/single_v1_nv1/single_v1_nv1_30_2.cpp", 

; Function Attrs: mustprogress noinline nounwind uwtable
define linkonce_odr dso_local void @_ZN2DD13ff_v_00000020Ev(%class.DD* noundef nonnull align 8 dereferenceable(24) %this) unnamed_addr #4 comdat align 2 !dbg !384 {	 ;;; filename : "./MicroBenchmark/single_v1_nv1/single_v1_nv1_30_2.cpp", line : 95, 
entry:	 ;;;;; filename : "./MicroBenchmark/single_v1_nv1/single_v1_nv1_30_2.cpp", line : 95, 
  call void @llvm.dbg.value(metadata %class.DD* %this, metadata !385, metadata !DIExpression()), !dbg !386	 ;;;;; filename : "./MicroBenchmark/single_v1_nv1/single_v1_nv1_30_2.cpp", line : 95, 
  ret void, !dbg !387	 ;;; line : 95, column : 36, filename : "./MicroBenchmark/single_v1_nv1/single_v1_nv1_30_2.cpp", 
}	 ;;;;; line : 95, column : 36, filename : "./MicroBenchmark/single_v1_nv1/single_v1_nv1_30_2.cpp", 

; Function Attrs: mustprogress noinline nounwind uwtable
define linkonce_odr dso_local void @_ZN2DD13ff_v_00000021Ev(%class.DD* noundef nonnull align 8 dereferenceable(24) %this) unnamed_addr #4 comdat align 2 !dbg !388 {	 ;;; filename : "./MicroBenchmark/single_v1_nv1/single_v1_nv1_30_2.cpp", line : 96, 
entry:	 ;;;;; filename : "./MicroBenchmark/single_v1_nv1/single_v1_nv1_30_2.cpp", line : 96, 
  call void @llvm.dbg.value(metadata %class.DD* %this, metadata !389, metadata !DIExpression()), !dbg !390	 ;;;;; filename : "./MicroBenchmark/single_v1_nv1/single_v1_nv1_30_2.cpp", line : 96, 
  ret void, !dbg !391	 ;;; line : 96, column : 36, filename : "./MicroBenchmark/single_v1_nv1/single_v1_nv1_30_2.cpp", 
}	 ;;;;; line : 96, column : 36, filename : "./MicroBenchmark/single_v1_nv1/single_v1_nv1_30_2.cpp", 

; Function Attrs: mustprogress noinline nounwind uwtable
define linkonce_odr dso_local void @_ZN2DD13ff_v_00000022Ev(%class.DD* noundef nonnull align 8 dereferenceable(24) %this) unnamed_addr #4 comdat align 2 !dbg !392 {	 ;;; filename : "./MicroBenchmark/single_v1_nv1/single_v1_nv1_30_2.cpp", line : 97, 
entry:	 ;;;;; filename : "./MicroBenchmark/single_v1_nv1/single_v1_nv1_30_2.cpp", line : 97, 
  call void @llvm.dbg.value(metadata %class.DD* %this, metadata !393, metadata !DIExpression()), !dbg !394	 ;;;;; filename : "./MicroBenchmark/single_v1_nv1/single_v1_nv1_30_2.cpp", line : 97, 
  ret void, !dbg !395	 ;;; line : 97, column : 36, filename : "./MicroBenchmark/single_v1_nv1/single_v1_nv1_30_2.cpp", 
}	 ;;;;; line : 97, column : 36, filename : "./MicroBenchmark/single_v1_nv1/single_v1_nv1_30_2.cpp", 

; Function Attrs: mustprogress noinline nounwind uwtable
define linkonce_odr dso_local void @_ZN2DD13ff_v_00000023Ev(%class.DD* noundef nonnull align 8 dereferenceable(24) %this) unnamed_addr #4 comdat align 2 !dbg !396 {	 ;;; filename : "./MicroBenchmark/single_v1_nv1/single_v1_nv1_30_2.cpp", line : 98, 
entry:	 ;;;;; filename : "./MicroBenchmark/single_v1_nv1/single_v1_nv1_30_2.cpp", line : 98, 
  call void @llvm.dbg.value(metadata %class.DD* %this, metadata !397, metadata !DIExpression()), !dbg !398	 ;;;;; filename : "./MicroBenchmark/single_v1_nv1/single_v1_nv1_30_2.cpp", line : 98, 
  ret void, !dbg !399	 ;;; line : 98, column : 36, filename : "./MicroBenchmark/single_v1_nv1/single_v1_nv1_30_2.cpp", 
}	 ;;;;; line : 98, column : 36, filename : "./MicroBenchmark/single_v1_nv1/single_v1_nv1_30_2.cpp", 

; Function Attrs: mustprogress noinline nounwind uwtable
define linkonce_odr dso_local void @_ZN2DD13ff_v_00000024Ev(%class.DD* noundef nonnull align 8 dereferenceable(24) %this) unnamed_addr #4 comdat align 2 !dbg !400 {	 ;;; filename : "./MicroBenchmark/single_v1_nv1/single_v1_nv1_30_2.cpp", line : 99, 
entry:	 ;;;;; filename : "./MicroBenchmark/single_v1_nv1/single_v1_nv1_30_2.cpp", line : 99, 
  call void @llvm.dbg.value(metadata %class.DD* %this, metadata !401, metadata !DIExpression()), !dbg !402	 ;;;;; filename : "./MicroBenchmark/single_v1_nv1/single_v1_nv1_30_2.cpp", line : 99, 
  ret void, !dbg !403	 ;;; line : 99, column : 36, filename : "./MicroBenchmark/single_v1_nv1/single_v1_nv1_30_2.cpp", 
}	 ;;;;; line : 99, column : 36, filename : "./MicroBenchmark/single_v1_nv1/single_v1_nv1_30_2.cpp", 

; Function Attrs: mustprogress noinline nounwind uwtable
define linkonce_odr dso_local void @_ZN2DD13ff_v_00000025Ev(%class.DD* noundef nonnull align 8 dereferenceable(24) %this) unnamed_addr #4 comdat align 2 !dbg !404 {	 ;;; filename : "./MicroBenchmark/single_v1_nv1/single_v1_nv1_30_2.cpp", line : 100, 
entry:	 ;;;;; filename : "./MicroBenchmark/single_v1_nv1/single_v1_nv1_30_2.cpp", line : 100, 
  call void @llvm.dbg.value(metadata %class.DD* %this, metadata !405, metadata !DIExpression()), !dbg !406	 ;;;;; filename : "./MicroBenchmark/single_v1_nv1/single_v1_nv1_30_2.cpp", line : 100, 
  ret void, !dbg !407	 ;;; line : 100, column : 36, filename : "./MicroBenchmark/single_v1_nv1/single_v1_nv1_30_2.cpp", 
}	 ;;;;; line : 100, column : 36, filename : "./MicroBenchmark/single_v1_nv1/single_v1_nv1_30_2.cpp", 

; Function Attrs: mustprogress noinline nounwind uwtable
define linkonce_odr dso_local void @_ZN2DD13ff_v_00000026Ev(%class.DD* noundef nonnull align 8 dereferenceable(24) %this) unnamed_addr #4 comdat align 2 !dbg !408 {	 ;;; filename : "./MicroBenchmark/single_v1_nv1/single_v1_nv1_30_2.cpp", line : 101, 
entry:	 ;;;;; filename : "./MicroBenchmark/single_v1_nv1/single_v1_nv1_30_2.cpp", line : 101, 
  call void @llvm.dbg.value(metadata %class.DD* %this, metadata !409, metadata !DIExpression()), !dbg !410	 ;;;;; filename : "./MicroBenchmark/single_v1_nv1/single_v1_nv1_30_2.cpp", line : 101, 
  ret void, !dbg !411	 ;;; line : 101, column : 36, filename : "./MicroBenchmark/single_v1_nv1/single_v1_nv1_30_2.cpp", 
}	 ;;;;; line : 101, column : 36, filename : "./MicroBenchmark/single_v1_nv1/single_v1_nv1_30_2.cpp", 

; Function Attrs: mustprogress noinline nounwind uwtable
define linkonce_odr dso_local void @_ZN2DD13ff_v_00000027Ev(%class.DD* noundef nonnull align 8 dereferenceable(24) %this) unnamed_addr #4 comdat align 2 !dbg !412 {	 ;;; filename : "./MicroBenchmark/single_v1_nv1/single_v1_nv1_30_2.cpp", line : 102, 
entry:	 ;;;;; filename : "./MicroBenchmark/single_v1_nv1/single_v1_nv1_30_2.cpp", line : 102, 
  call void @llvm.dbg.value(metadata %class.DD* %this, metadata !413, metadata !DIExpression()), !dbg !414	 ;;;;; filename : "./MicroBenchmark/single_v1_nv1/single_v1_nv1_30_2.cpp", line : 102, 
  ret void, !dbg !415	 ;;; line : 102, column : 36, filename : "./MicroBenchmark/single_v1_nv1/single_v1_nv1_30_2.cpp", 
}	 ;;;;; line : 102, column : 36, filename : "./MicroBenchmark/single_v1_nv1/single_v1_nv1_30_2.cpp", 

; Function Attrs: mustprogress noinline nounwind uwtable
define linkonce_odr dso_local void @_ZN2DD13ff_v_00000028Ev(%class.DD* noundef nonnull align 8 dereferenceable(24) %this) unnamed_addr #4 comdat align 2 !dbg !416 {	 ;;; filename : "./MicroBenchmark/single_v1_nv1/single_v1_nv1_30_2.cpp", line : 103, 
entry:	 ;;;;; filename : "./MicroBenchmark/single_v1_nv1/single_v1_nv1_30_2.cpp", line : 103, 
  call void @llvm.dbg.value(metadata %class.DD* %this, metadata !417, metadata !DIExpression()), !dbg !418	 ;;;;; filename : "./MicroBenchmark/single_v1_nv1/single_v1_nv1_30_2.cpp", line : 103, 
  ret void, !dbg !419	 ;;; line : 103, column : 36, filename : "./MicroBenchmark/single_v1_nv1/single_v1_nv1_30_2.cpp", 
}	 ;;;;; line : 103, column : 36, filename : "./MicroBenchmark/single_v1_nv1/single_v1_nv1_30_2.cpp", 

; Function Attrs: mustprogress noinline nounwind uwtable
define linkonce_odr dso_local void @_ZN2DD13ff_v_00000029Ev(%class.DD* noundef nonnull align 8 dereferenceable(24) %this) unnamed_addr #4 comdat align 2 !dbg !420 {	 ;;; filename : "./MicroBenchmark/single_v1_nv1/single_v1_nv1_30_2.cpp", line : 104, 
entry:	 ;;;;; filename : "./MicroBenchmark/single_v1_nv1/single_v1_nv1_30_2.cpp", line : 104, 
  call void @llvm.dbg.value(metadata %class.DD* %this, metadata !421, metadata !DIExpression()), !dbg !422	 ;;;;; filename : "./MicroBenchmark/single_v1_nv1/single_v1_nv1_30_2.cpp", line : 104, 
  ret void, !dbg !423	 ;;; line : 104, column : 36, filename : "./MicroBenchmark/single_v1_nv1/single_v1_nv1_30_2.cpp", 
}	 ;;;;; line : 104, column : 36, filename : "./MicroBenchmark/single_v1_nv1/single_v1_nv1_30_2.cpp", 

; Function Attrs: nofree nosync nounwind readnone speculatable willreturn
declare void @llvm.dbg.value(metadata, metadata, metadata) #1	 ;;;;; line : 104, column : 36, filename : "./MicroBenchmark/single_v1_nv1/single_v1_nv1_30_2.cpp", 

attributes #0 = { mustprogress noinline uwtable "frame-pointer"="all" "min-legal-vector-width"="0" "no-builtins" "no-trapping-math"="true" "stack-protector-buffer-size"="8" "target-cpu"="x86-64" "target-features"="+cx8,+fxsr,+mmx,+sse,+sse2,+x87" "tune-cpu"="generic" }	 ;;;;; line : 104, column : 36, filename : "./MicroBenchmark/single_v1_nv1/single_v1_nv1_30_2.cpp", 
attributes #1 = { nofree nosync nounwind readnone speculatable willreturn }	 ;;;;; line : 104, column : 36, filename : "./MicroBenchmark/single_v1_nv1/single_v1_nv1_30_2.cpp", 
attributes #2 = { mustprogress noinline norecurse uwtable "frame-pointer"="all" "min-legal-vector-width"="0" "no-builtins" "no-trapping-math"="true" "stack-protector-buffer-size"="8" "target-cpu"="x86-64" "target-features"="+cx8,+fxsr,+mmx,+sse,+sse2,+x87" "tune-cpu"="generic" }	 ;;;;; line : 104, column : 36, filename : "./MicroBenchmark/single_v1_nv1/single_v1_nv1_30_2.cpp", 
attributes #3 = { noinline nounwind uwtable "frame-pointer"="all" "min-legal-vector-width"="0" "no-builtins" "no-trapping-math"="true" "stack-protector-buffer-size"="8" "target-cpu"="x86-64" "target-features"="+cx8,+fxsr,+mmx,+sse,+sse2,+x87" "tune-cpu"="generic" }	 ;;;;; line : 104, column : 36, filename : "./MicroBenchmark/single_v1_nv1/single_v1_nv1_30_2.cpp", 
attributes #4 = { mustprogress noinline nounwind uwtable "frame-pointer"="all" "min-legal-vector-width"="0" "no-builtins" "no-trapping-math"="true" "stack-protector-buffer-size"="8" "target-cpu"="x86-64" "target-features"="+cx8,+fxsr,+mmx,+sse,+sse2,+x87" "tune-cpu"="generic" }	 ;;;;; line : 104, column : 36, filename : "./MicroBenchmark/single_v1_nv1/single_v1_nv1_30_2.cpp", 
attributes #5 = { nobuiltin "no-builtins" }	 ;;;;; line : 104, column : 36, filename : "./MicroBenchmark/single_v1_nv1/single_v1_nv1_30_2.cpp", 
attributes #6 = { nobuiltin nounwind "no-builtins" }	 ;;;;; line : 104, column : 36, filename : "./MicroBenchmark/single_v1_nv1/single_v1_nv1_30_2.cpp", 

!llvm.dbg.cu = !{!0}
!llvm.ident = !{!145}
!llvm.module.flags = !{!146, !147, !148, !149, !150}

!0 = distinct !DICompileUnit(language: DW_LANG_C_plus_plus_14, file: !1, producer: "clang version 14.0.0", isOptimized: false, runtimeVersion: 0, emissionKind: FullDebug, retainedTypes: !2, splitDebugInlining: false, nameTableKind: None)
!1 = !DIFile(filename: "MicroBenchmark/single_v1_nv1/single_v1_nv1_30_2.cpp", directory: "/home/iron/Downloads/PrivateTIPS/Benchmarks", checksumkind: CSK_MD5, checksum: "96dabce803c51838430c8dea871c0139")
!2 = !{!3, !7}
!3 = distinct !DICompositeType(tag: DW_TAG_class_type, name: "DD", file: !4, line: 70, size: 192, flags: DIFlagTypePassByReference | DIFlagNonTrivial, elements: !5, vtableHolder: !7, identifier: "_ZTS2DD")
!4 = !DIFile(filename: "./MicroBenchmark/single_v1_nv1/single_v1_nv1_30_2.cpp", directory: "/home/iron/Downloads/PrivateTIPS/Benchmarks", checksumkind: CSK_MD5, checksum: "96dabce803c51838430c8dea871c0139")
!5 = !{!6, !81, !82, !86, !87, !88, !89, !90, !91, !92, !93, !94, !95, !96, !97, !98, !99, !100, !101, !102, !103, !104, !105, !106, !107, !108, !109, !110, !111, !112, !113, !114, !115, !116, !117, !118, !119, !120, !121, !122, !123, !124, !125, !126, !127, !128, !129, !130, !131, !132, !133, !134, !135, !136, !137, !138, !139, !140, !141, !142, !143, !144}
!6 = !DIDerivedType(tag: DW_TAG_inheritance, scope: !3, baseType: !7, flags: DIFlagPublic, extraData: i32 0)
!7 = distinct !DICompositeType(tag: DW_TAG_class_type, name: "BB", file: !4, line: 2, size: 128, flags: DIFlagTypePassByReference | DIFlagNonTrivial, elements: !8, vtableHolder: !7, identifier: "_ZTS2BB")
!8 = !{!9, !15, !18, !22, !23, !24, !25, !26, !27, !28, !29, !30, !31, !32, !33, !34, !35, !36, !37, !38, !39, !40, !41, !42, !43, !44, !45, !46, !47, !48, !49, !50, !51, !52, !53, !54, !55, !56, !57, !58, !59, !60, !61, !62, !63, !64, !65, !66, !67, !68, !69, !70, !71, !72, !73, !74, !75, !76, !77, !78, !79, !80}
!9 = !DIDerivedType(tag: DW_TAG_member, name: "_vptr$BB", scope: !4, file: !4, baseType: !10, size: 64, flags: DIFlagArtificial)
!10 = !DIDerivedType(tag: DW_TAG_pointer_type, baseType: !11, size: 64)
!11 = !DIDerivedType(tag: DW_TAG_pointer_type, name: "__vtbl_ptr_type", baseType: !12, size: 64)
!12 = !DISubroutineType(types: !13)
!13 = !{!14}
!14 = !DIBasicType(name: "int", size: 32, encoding: DW_ATE_signed)
!15 = !DIDerivedType(tag: DW_TAG_member, name: "bb", scope: !7, file: !4, line: 4, baseType: !16, size: 64, offset: 64, flags: DIFlagPublic)
!16 = !DIDerivedType(tag: DW_TAG_pointer_type, baseType: !17, size: 64)
!17 = !DIBasicType(name: "long", size: 64, encoding: DW_ATE_signed)
!18 = !DISubprogram(name: "gg_v_00000000", linkageName: "_ZN2BB13gg_v_00000000Ev", scope: !7, file: !4, line: 6, type: !19, scopeLine: 6, containingType: !7, virtualIndex: 0, flags: DIFlagPublic | DIFlagPrototyped, spFlags: DISPFlagVirtual)
!19 = !DISubroutineType(types: !20)
!20 = !{null, !21}
!21 = !DIDerivedType(tag: DW_TAG_pointer_type, baseType: !7, size: 64, flags: DIFlagArtificial | DIFlagObjectPointer)
!22 = !DISubprogram(name: "gg_v_00000001", linkageName: "_ZN2BB13gg_v_00000001Ev", scope: !7, file: !4, line: 7, type: !19, scopeLine: 7, containingType: !7, virtualIndex: 1, flags: DIFlagPublic | DIFlagPrototyped, spFlags: DISPFlagVirtual)
!23 = !DISubprogram(name: "gg_v_00000002", linkageName: "_ZN2BB13gg_v_00000002Ev", scope: !7, file: !4, line: 8, type: !19, scopeLine: 8, containingType: !7, virtualIndex: 2, flags: DIFlagPublic | DIFlagPrototyped, spFlags: DISPFlagVirtual)
!24 = !DISubprogram(name: "gg_v_00000003", linkageName: "_ZN2BB13gg_v_00000003Ev", scope: !7, file: !4, line: 9, type: !19, scopeLine: 9, containingType: !7, virtualIndex: 3, flags: DIFlagPublic | DIFlagPrototyped, spFlags: DISPFlagVirtual)
!25 = !DISubprogram(name: "gg_v_00000004", linkageName: "_ZN2BB13gg_v_00000004Ev", scope: !7, file: !4, line: 10, type: !19, scopeLine: 10, containingType: !7, virtualIndex: 4, flags: DIFlagPublic | DIFlagPrototyped, spFlags: DISPFlagVirtual)
!26 = !DISubprogram(name: "gg_v_00000005", linkageName: "_ZN2BB13gg_v_00000005Ev", scope: !7, file: !4, line: 11, type: !19, scopeLine: 11, containingType: !7, virtualIndex: 5, flags: DIFlagPublic | DIFlagPrototyped, spFlags: DISPFlagVirtual)
!27 = !DISubprogram(name: "gg_v_00000006", linkageName: "_ZN2BB13gg_v_00000006Ev", scope: !7, file: !4, line: 12, type: !19, scopeLine: 12, containingType: !7, virtualIndex: 6, flags: DIFlagPublic | DIFlagPrototyped, spFlags: DISPFlagVirtual)
!28 = !DISubprogram(name: "gg_v_00000007", linkageName: "_ZN2BB13gg_v_00000007Ev", scope: !7, file: !4, line: 13, type: !19, scopeLine: 13, containingType: !7, virtualIndex: 7, flags: DIFlagPublic | DIFlagPrototyped, spFlags: DISPFlagVirtual)
!29 = !DISubprogram(name: "gg_v_00000008", linkageName: "_ZN2BB13gg_v_00000008Ev", scope: !7, file: !4, line: 14, type: !19, scopeLine: 14, containingType: !7, virtualIndex: 8, flags: DIFlagPublic | DIFlagPrototyped, spFlags: DISPFlagVirtual)
!30 = !DISubprogram(name: "gg_v_00000009", linkageName: "_ZN2BB13gg_v_00000009Ev", scope: !7, file: !4, line: 15, type: !19, scopeLine: 15, containingType: !7, virtualIndex: 9, flags: DIFlagPublic | DIFlagPrototyped, spFlags: DISPFlagVirtual)
!31 = !DISubprogram(name: "gg_v_00000010", linkageName: "_ZN2BB13gg_v_00000010Ev", scope: !7, file: !4, line: 16, type: !19, scopeLine: 16, containingType: !7, virtualIndex: 10, flags: DIFlagPublic | DIFlagPrototyped, spFlags: DISPFlagVirtual)
!32 = !DISubprogram(name: "gg_v_00000011", linkageName: "_ZN2BB13gg_v_00000011Ev", scope: !7, file: !4, line: 17, type: !19, scopeLine: 17, containingType: !7, virtualIndex: 11, flags: DIFlagPublic | DIFlagPrototyped, spFlags: DISPFlagVirtual)
!33 = !DISubprogram(name: "gg_v_00000012", linkageName: "_ZN2BB13gg_v_00000012Ev", scope: !7, file: !4, line: 18, type: !19, scopeLine: 18, containingType: !7, virtualIndex: 12, flags: DIFlagPublic | DIFlagPrototyped, spFlags: DISPFlagVirtual)
!34 = !DISubprogram(name: "gg_v_00000013", linkageName: "_ZN2BB13gg_v_00000013Ev", scope: !7, file: !4, line: 19, type: !19, scopeLine: 19, containingType: !7, virtualIndex: 13, flags: DIFlagPublic | DIFlagPrototyped, spFlags: DISPFlagVirtual)
!35 = !DISubprogram(name: "gg_v_00000014", linkageName: "_ZN2BB13gg_v_00000014Ev", scope: !7, file: !4, line: 20, type: !19, scopeLine: 20, containingType: !7, virtualIndex: 14, flags: DIFlagPublic | DIFlagPrototyped, spFlags: DISPFlagVirtual)
!36 = !DISubprogram(name: "gg_v_00000015", linkageName: "_ZN2BB13gg_v_00000015Ev", scope: !7, file: !4, line: 21, type: !19, scopeLine: 21, containingType: !7, virtualIndex: 15, flags: DIFlagPublic | DIFlagPrototyped, spFlags: DISPFlagVirtual)
!37 = !DISubprogram(name: "gg_v_00000016", linkageName: "_ZN2BB13gg_v_00000016Ev", scope: !7, file: !4, line: 22, type: !19, scopeLine: 22, containingType: !7, virtualIndex: 16, flags: DIFlagPublic | DIFlagPrototyped, spFlags: DISPFlagVirtual)
!38 = !DISubprogram(name: "gg_v_00000017", linkageName: "_ZN2BB13gg_v_00000017Ev", scope: !7, file: !4, line: 23, type: !19, scopeLine: 23, containingType: !7, virtualIndex: 17, flags: DIFlagPublic | DIFlagPrototyped, spFlags: DISPFlagVirtual)
!39 = !DISubprogram(name: "gg_v_00000018", linkageName: "_ZN2BB13gg_v_00000018Ev", scope: !7, file: !4, line: 24, type: !19, scopeLine: 24, containingType: !7, virtualIndex: 18, flags: DIFlagPublic | DIFlagPrototyped, spFlags: DISPFlagVirtual)
!40 = !DISubprogram(name: "gg_v_00000019", linkageName: "_ZN2BB13gg_v_00000019Ev", scope: !7, file: !4, line: 25, type: !19, scopeLine: 25, containingType: !7, virtualIndex: 19, flags: DIFlagPublic | DIFlagPrototyped, spFlags: DISPFlagVirtual)
!41 = !DISubprogram(name: "gg_v_00000020", linkageName: "_ZN2BB13gg_v_00000020Ev", scope: !7, file: !4, line: 26, type: !19, scopeLine: 26, containingType: !7, virtualIndex: 20, flags: DIFlagPublic | DIFlagPrototyped, spFlags: DISPFlagVirtual)
!42 = !DISubprogram(name: "gg_v_00000021", linkageName: "_ZN2BB13gg_v_00000021Ev", scope: !7, file: !4, line: 27, type: !19, scopeLine: 27, containingType: !7, virtualIndex: 21, flags: DIFlagPublic | DIFlagPrototyped, spFlags: DISPFlagVirtual)
!43 = !DISubprogram(name: "gg_v_00000022", linkageName: "_ZN2BB13gg_v_00000022Ev", scope: !7, file: !4, line: 28, type: !19, scopeLine: 28, containingType: !7, virtualIndex: 22, flags: DIFlagPublic | DIFlagPrototyped, spFlags: DISPFlagVirtual)
!44 = !DISubprogram(name: "gg_v_00000023", linkageName: "_ZN2BB13gg_v_00000023Ev", scope: !7, file: !4, line: 29, type: !19, scopeLine: 29, containingType: !7, virtualIndex: 23, flags: DIFlagPublic | DIFlagPrototyped, spFlags: DISPFlagVirtual)
!45 = !DISubprogram(name: "gg_v_00000024", linkageName: "_ZN2BB13gg_v_00000024Ev", scope: !7, file: !4, line: 30, type: !19, scopeLine: 30, containingType: !7, virtualIndex: 24, flags: DIFlagPublic | DIFlagPrototyped, spFlags: DISPFlagVirtual)
!46 = !DISubprogram(name: "gg_v_00000025", linkageName: "_ZN2BB13gg_v_00000025Ev", scope: !7, file: !4, line: 31, type: !19, scopeLine: 31, containingType: !7, virtualIndex: 25, flags: DIFlagPublic | DIFlagPrototyped, spFlags: DISPFlagVirtual)
!47 = !DISubprogram(name: "gg_v_00000026", linkageName: "_ZN2BB13gg_v_00000026Ev", scope: !7, file: !4, line: 32, type: !19, scopeLine: 32, containingType: !7, virtualIndex: 26, flags: DIFlagPublic | DIFlagPrototyped, spFlags: DISPFlagVirtual)
!48 = !DISubprogram(name: "gg_v_00000027", linkageName: "_ZN2BB13gg_v_00000027Ev", scope: !7, file: !4, line: 33, type: !19, scopeLine: 33, containingType: !7, virtualIndex: 27, flags: DIFlagPublic | DIFlagPrototyped, spFlags: DISPFlagVirtual)
!49 = !DISubprogram(name: "gg_v_00000028", linkageName: "_ZN2BB13gg_v_00000028Ev", scope: !7, file: !4, line: 34, type: !19, scopeLine: 34, containingType: !7, virtualIndex: 28, flags: DIFlagPublic | DIFlagPrototyped, spFlags: DISPFlagVirtual)
!50 = !DISubprogram(name: "gg_v_00000029", linkageName: "_ZN2BB13gg_v_00000029Ev", scope: !7, file: !4, line: 35, type: !19, scopeLine: 35, containingType: !7, virtualIndex: 29, flags: DIFlagPublic | DIFlagPrototyped, spFlags: DISPFlagVirtual)
!51 = !DISubprogram(name: "gg_nv_00000000", linkageName: "_ZN2BB14gg_nv_00000000Ev", scope: !7, file: !4, line: 37, type: !19, scopeLine: 37, flags: DIFlagPublic | DIFlagPrototyped, spFlags: 0)
!52 = !DISubprogram(name: "gg_nv_00000001", linkageName: "_ZN2BB14gg_nv_00000001Ev", scope: !7, file: !4, line: 38, type: !19, scopeLine: 38, flags: DIFlagPublic | DIFlagPrototyped, spFlags: 0)
!53 = !DISubprogram(name: "gg_nv_00000002", linkageName: "_ZN2BB14gg_nv_00000002Ev", scope: !7, file: !4, line: 39, type: !19, scopeLine: 39, flags: DIFlagPublic | DIFlagPrototyped, spFlags: 0)
!54 = !DISubprogram(name: "gg_nv_00000003", linkageName: "_ZN2BB14gg_nv_00000003Ev", scope: !7, file: !4, line: 40, type: !19, scopeLine: 40, flags: DIFlagPublic | DIFlagPrototyped, spFlags: 0)
!55 = !DISubprogram(name: "gg_nv_00000004", linkageName: "_ZN2BB14gg_nv_00000004Ev", scope: !7, file: !4, line: 41, type: !19, scopeLine: 41, flags: DIFlagPublic | DIFlagPrototyped, spFlags: 0)
!56 = !DISubprogram(name: "gg_nv_00000005", linkageName: "_ZN2BB14gg_nv_00000005Ev", scope: !7, file: !4, line: 42, type: !19, scopeLine: 42, flags: DIFlagPublic | DIFlagPrototyped, spFlags: 0)
!57 = !DISubprogram(name: "gg_nv_00000006", linkageName: "_ZN2BB14gg_nv_00000006Ev", scope: !7, file: !4, line: 43, type: !19, scopeLine: 43, flags: DIFlagPublic | DIFlagPrototyped, spFlags: 0)
!58 = !DISubprogram(name: "gg_nv_00000007", linkageName: "_ZN2BB14gg_nv_00000007Ev", scope: !7, file: !4, line: 44, type: !19, scopeLine: 44, flags: DIFlagPublic | DIFlagPrototyped, spFlags: 0)
!59 = !DISubprogram(name: "gg_nv_00000008", linkageName: "_ZN2BB14gg_nv_00000008Ev", scope: !7, file: !4, line: 45, type: !19, scopeLine: 45, flags: DIFlagPublic | DIFlagPrototyped, spFlags: 0)
!60 = !DISubprogram(name: "gg_nv_00000009", linkageName: "_ZN2BB14gg_nv_00000009Ev", scope: !7, file: !4, line: 46, type: !19, scopeLine: 46, flags: DIFlagPublic | DIFlagPrototyped, spFlags: 0)
!61 = !DISubprogram(name: "gg_nv_00000010", linkageName: "_ZN2BB14gg_nv_00000010Ev", scope: !7, file: !4, line: 47, type: !19, scopeLine: 47, flags: DIFlagPublic | DIFlagPrototyped, spFlags: 0)
!62 = !DISubprogram(name: "gg_nv_00000011", linkageName: "_ZN2BB14gg_nv_00000011Ev", scope: !7, file: !4, line: 48, type: !19, scopeLine: 48, flags: DIFlagPublic | DIFlagPrototyped, spFlags: 0)
!63 = !DISubprogram(name: "gg_nv_00000012", linkageName: "_ZN2BB14gg_nv_00000012Ev", scope: !7, file: !4, line: 49, type: !19, scopeLine: 49, flags: DIFlagPublic | DIFlagPrototyped, spFlags: 0)
!64 = !DISubprogram(name: "gg_nv_00000013", linkageName: "_ZN2BB14gg_nv_00000013Ev", scope: !7, file: !4, line: 50, type: !19, scopeLine: 50, flags: DIFlagPublic | DIFlagPrototyped, spFlags: 0)
!65 = !DISubprogram(name: "gg_nv_00000014", linkageName: "_ZN2BB14gg_nv_00000014Ev", scope: !7, file: !4, line: 51, type: !19, scopeLine: 51, flags: DIFlagPublic | DIFlagPrototyped, spFlags: 0)
!66 = !DISubprogram(name: "gg_nv_00000015", linkageName: "_ZN2BB14gg_nv_00000015Ev", scope: !7, file: !4, line: 52, type: !19, scopeLine: 52, flags: DIFlagPublic | DIFlagPrototyped, spFlags: 0)
!67 = !DISubprogram(name: "gg_nv_00000016", linkageName: "_ZN2BB14gg_nv_00000016Ev", scope: !7, file: !4, line: 53, type: !19, scopeLine: 53, flags: DIFlagPublic | DIFlagPrototyped, spFlags: 0)
!68 = !DISubprogram(name: "gg_nv_00000017", linkageName: "_ZN2BB14gg_nv_00000017Ev", scope: !7, file: !4, line: 54, type: !19, scopeLine: 54, flags: DIFlagPublic | DIFlagPrototyped, spFlags: 0)
!69 = !DISubprogram(name: "gg_nv_00000018", linkageName: "_ZN2BB14gg_nv_00000018Ev", scope: !7, file: !4, line: 55, type: !19, scopeLine: 55, flags: DIFlagPublic | DIFlagPrototyped, spFlags: 0)
!70 = !DISubprogram(name: "gg_nv_00000019", linkageName: "_ZN2BB14gg_nv_00000019Ev", scope: !7, file: !4, line: 56, type: !19, scopeLine: 56, flags: DIFlagPublic | DIFlagPrototyped, spFlags: 0)
!71 = !DISubprogram(name: "gg_nv_00000020", linkageName: "_ZN2BB14gg_nv_00000020Ev", scope: !7, file: !4, line: 57, type: !19, scopeLine: 57, flags: DIFlagPublic | DIFlagPrototyped, spFlags: 0)
!72 = !DISubprogram(name: "gg_nv_00000021", linkageName: "_ZN2BB14gg_nv_00000021Ev", scope: !7, file: !4, line: 58, type: !19, scopeLine: 58, flags: DIFlagPublic | DIFlagPrototyped, spFlags: 0)
!73 = !DISubprogram(name: "gg_nv_00000022", linkageName: "_ZN2BB14gg_nv_00000022Ev", scope: !7, file: !4, line: 59, type: !19, scopeLine: 59, flags: DIFlagPublic | DIFlagPrototyped, spFlags: 0)
!74 = !DISubprogram(name: "gg_nv_00000023", linkageName: "_ZN2BB14gg_nv_00000023Ev", scope: !7, file: !4, line: 60, type: !19, scopeLine: 60, flags: DIFlagPublic | DIFlagPrototyped, spFlags: 0)
!75 = !DISubprogram(name: "gg_nv_00000024", linkageName: "_ZN2BB14gg_nv_00000024Ev", scope: !7, file: !4, line: 61, type: !19, scopeLine: 61, flags: DIFlagPublic | DIFlagPrototyped, spFlags: 0)
!76 = !DISubprogram(name: "gg_nv_00000025", linkageName: "_ZN2BB14gg_nv_00000025Ev", scope: !7, file: !4, line: 62, type: !19, scopeLine: 62, flags: DIFlagPublic | DIFlagPrototyped, spFlags: 0)
!77 = !DISubprogram(name: "gg_nv_00000026", linkageName: "_ZN2BB14gg_nv_00000026Ev", scope: !7, file: !4, line: 63, type: !19, scopeLine: 63, flags: DIFlagPublic | DIFlagPrototyped, spFlags: 0)
!78 = !DISubprogram(name: "gg_nv_00000027", linkageName: "_ZN2BB14gg_nv_00000027Ev", scope: !7, file: !4, line: 64, type: !19, scopeLine: 64, flags: DIFlagPublic | DIFlagPrototyped, spFlags: 0)
!79 = !DISubprogram(name: "gg_nv_00000028", linkageName: "_ZN2BB14gg_nv_00000028Ev", scope: !7, file: !4, line: 65, type: !19, scopeLine: 65, flags: DIFlagPublic | DIFlagPrototyped, spFlags: 0)
!80 = !DISubprogram(name: "gg_nv_00000029", linkageName: "_ZN2BB14gg_nv_00000029Ev", scope: !7, file: !4, line: 66, type: !19, scopeLine: 66, flags: DIFlagPublic | DIFlagPrototyped, spFlags: 0)
!81 = !DIDerivedType(tag: DW_TAG_member, name: "dd", scope: !3, file: !4, line: 72, baseType: !17, size: 64, offset: 128, flags: DIFlagPublic)
!82 = !DISubprogram(name: "ff_v_00000000", linkageName: "_ZN2DD13ff_v_00000000Ev", scope: !3, file: !4, line: 75, type: !83, scopeLine: 75, containingType: !3, virtualIndex: 30, flags: DIFlagPublic | DIFlagPrototyped, spFlags: DISPFlagVirtual)
!83 = !DISubroutineType(types: !84)
!84 = !{null, !85}
!85 = !DIDerivedType(tag: DW_TAG_pointer_type, baseType: !3, size: 64, flags: DIFlagArtificial | DIFlagObjectPointer)
!86 = !DISubprogram(name: "ff_v_00000001", linkageName: "_ZN2DD13ff_v_00000001Ev", scope: !3, file: !4, line: 76, type: !83, scopeLine: 76, containingType: !3, virtualIndex: 31, flags: DIFlagPublic | DIFlagPrototyped, spFlags: DISPFlagVirtual)
!87 = !DISubprogram(name: "ff_v_00000002", linkageName: "_ZN2DD13ff_v_00000002Ev", scope: !3, file: !4, line: 77, type: !83, scopeLine: 77, containingType: !3, virtualIndex: 32, flags: DIFlagPublic | DIFlagPrototyped, spFlags: DISPFlagVirtual)
!88 = !DISubprogram(name: "ff_v_00000003", linkageName: "_ZN2DD13ff_v_00000003Ev", scope: !3, file: !4, line: 78, type: !83, scopeLine: 78, containingType: !3, virtualIndex: 33, flags: DIFlagPublic | DIFlagPrototyped, spFlags: DISPFlagVirtual)
!89 = !DISubprogram(name: "ff_v_00000004", linkageName: "_ZN2DD13ff_v_00000004Ev", scope: !3, file: !4, line: 79, type: !83, scopeLine: 79, containingType: !3, virtualIndex: 34, flags: DIFlagPublic | DIFlagPrototyped, spFlags: DISPFlagVirtual)
!90 = !DISubprogram(name: "ff_v_00000005", linkageName: "_ZN2DD13ff_v_00000005Ev", scope: !3, file: !4, line: 80, type: !83, scopeLine: 80, containingType: !3, virtualIndex: 35, flags: DIFlagPublic | DIFlagPrototyped, spFlags: DISPFlagVirtual)
!91 = !DISubprogram(name: "ff_v_00000006", linkageName: "_ZN2DD13ff_v_00000006Ev", scope: !3, file: !4, line: 81, type: !83, scopeLine: 81, containingType: !3, virtualIndex: 36, flags: DIFlagPublic | DIFlagPrototyped, spFlags: DISPFlagVirtual)
!92 = !DISubprogram(name: "ff_v_00000007", linkageName: "_ZN2DD13ff_v_00000007Ev", scope: !3, file: !4, line: 82, type: !83, scopeLine: 82, containingType: !3, virtualIndex: 37, flags: DIFlagPublic | DIFlagPrototyped, spFlags: DISPFlagVirtual)
!93 = !DISubprogram(name: "ff_v_00000008", linkageName: "_ZN2DD13ff_v_00000008Ev", scope: !3, file: !4, line: 83, type: !83, scopeLine: 83, containingType: !3, virtualIndex: 38, flags: DIFlagPublic | DIFlagPrototyped, spFlags: DISPFlagVirtual)
!94 = !DISubprogram(name: "ff_v_00000009", linkageName: "_ZN2DD13ff_v_00000009Ev", scope: !3, file: !4, line: 84, type: !83, scopeLine: 84, containingType: !3, virtualIndex: 39, flags: DIFlagPublic | DIFlagPrototyped, spFlags: DISPFlagVirtual)
!95 = !DISubprogram(name: "ff_v_00000010", linkageName: "_ZN2DD13ff_v_00000010Ev", scope: !3, file: !4, line: 85, type: !83, scopeLine: 85, containingType: !3, virtualIndex: 40, flags: DIFlagPublic | DIFlagPrototyped, spFlags: DISPFlagVirtual)
!96 = !DISubprogram(name: "ff_v_00000011", linkageName: "_ZN2DD13ff_v_00000011Ev", scope: !3, file: !4, line: 86, type: !83, scopeLine: 86, containingType: !3, virtualIndex: 41, flags: DIFlagPublic | DIFlagPrototyped, spFlags: DISPFlagVirtual)
!97 = !DISubprogram(name: "ff_v_00000012", linkageName: "_ZN2DD13ff_v_00000012Ev", scope: !3, file: !4, line: 87, type: !83, scopeLine: 87, containingType: !3, virtualIndex: 42, flags: DIFlagPublic | DIFlagPrototyped, spFlags: DISPFlagVirtual)
!98 = !DISubprogram(name: "ff_v_00000013", linkageName: "_ZN2DD13ff_v_00000013Ev", scope: !3, file: !4, line: 88, type: !83, scopeLine: 88, containingType: !3, virtualIndex: 43, flags: DIFlagPublic | DIFlagPrototyped, spFlags: DISPFlagVirtual)
!99 = !DISubprogram(name: "ff_v_00000014", linkageName: "_ZN2DD13ff_v_00000014Ev", scope: !3, file: !4, line: 89, type: !83, scopeLine: 89, containingType: !3, virtualIndex: 44, flags: DIFlagPublic | DIFlagPrototyped, spFlags: DISPFlagVirtual)
!100 = !DISubprogram(name: "ff_v_00000015", linkageName: "_ZN2DD13ff_v_00000015Ev", scope: !3, file: !4, line: 90, type: !83, scopeLine: 90, containingType: !3, virtualIndex: 45, flags: DIFlagPublic | DIFlagPrototyped, spFlags: DISPFlagVirtual)
!101 = !DISubprogram(name: "ff_v_00000016", linkageName: "_ZN2DD13ff_v_00000016Ev", scope: !3, file: !4, line: 91, type: !83, scopeLine: 91, containingType: !3, virtualIndex: 46, flags: DIFlagPublic | DIFlagPrototyped, spFlags: DISPFlagVirtual)
!102 = !DISubprogram(name: "ff_v_00000017", linkageName: "_ZN2DD13ff_v_00000017Ev", scope: !3, file: !4, line: 92, type: !83, scopeLine: 92, containingType: !3, virtualIndex: 47, flags: DIFlagPublic | DIFlagPrototyped, spFlags: DISPFlagVirtual)
!103 = !DISubprogram(name: "ff_v_00000018", linkageName: "_ZN2DD13ff_v_00000018Ev", scope: !3, file: !4, line: 93, type: !83, scopeLine: 93, containingType: !3, virtualIndex: 48, flags: DIFlagPublic | DIFlagPrototyped, spFlags: DISPFlagVirtual)
!104 = !DISubprogram(name: "ff_v_00000019", linkageName: "_ZN2DD13ff_v_00000019Ev", scope: !3, file: !4, line: 94, type: !83, scopeLine: 94, containingType: !3, virtualIndex: 49, flags: DIFlagPublic | DIFlagPrototyped, spFlags: DISPFlagVirtual)
!105 = !DISubprogram(name: "ff_v_00000020", linkageName: "_ZN2DD13ff_v_00000020Ev", scope: !3, file: !4, line: 95, type: !83, scopeLine: 95, containingType: !3, virtualIndex: 50, flags: DIFlagPublic | DIFlagPrototyped, spFlags: DISPFlagVirtual)
!106 = !DISubprogram(name: "ff_v_00000021", linkageName: "_ZN2DD13ff_v_00000021Ev", scope: !3, file: !4, line: 96, type: !83, scopeLine: 96, containingType: !3, virtualIndex: 51, flags: DIFlagPublic | DIFlagPrototyped, spFlags: DISPFlagVirtual)
!107 = !DISubprogram(name: "ff_v_00000022", linkageName: "_ZN2DD13ff_v_00000022Ev", scope: !3, file: !4, line: 97, type: !83, scopeLine: 97, containingType: !3, virtualIndex: 52, flags: DIFlagPublic | DIFlagPrototyped, spFlags: DISPFlagVirtual)
!108 = !DISubprogram(name: "ff_v_00000023", linkageName: "_ZN2DD13ff_v_00000023Ev", scope: !3, file: !4, line: 98, type: !83, scopeLine: 98, containingType: !3, virtualIndex: 53, flags: DIFlagPublic | DIFlagPrototyped, spFlags: DISPFlagVirtual)
!109 = !DISubprogram(name: "ff_v_00000024", linkageName: "_ZN2DD13ff_v_00000024Ev", scope: !3, file: !4, line: 99, type: !83, scopeLine: 99, containingType: !3, virtualIndex: 54, flags: DIFlagPublic | DIFlagPrototyped, spFlags: DISPFlagVirtual)
!110 = !DISubprogram(name: "ff_v_00000025", linkageName: "_ZN2DD13ff_v_00000025Ev", scope: !3, file: !4, line: 100, type: !83, scopeLine: 100, containingType: !3, virtualIndex: 55, flags: DIFlagPublic | DIFlagPrototyped, spFlags: DISPFlagVirtual)
!111 = !DISubprogram(name: "ff_v_00000026", linkageName: "_ZN2DD13ff_v_00000026Ev", scope: !3, file: !4, line: 101, type: !83, scopeLine: 101, containingType: !3, virtualIndex: 56, flags: DIFlagPublic | DIFlagPrototyped, spFlags: DISPFlagVirtual)
!112 = !DISubprogram(name: "ff_v_00000027", linkageName: "_ZN2DD13ff_v_00000027Ev", scope: !3, file: !4, line: 102, type: !83, scopeLine: 102, containingType: !3, virtualIndex: 57, flags: DIFlagPublic | DIFlagPrototyped, spFlags: DISPFlagVirtual)
!113 = !DISubprogram(name: "ff_v_00000028", linkageName: "_ZN2DD13ff_v_00000028Ev", scope: !3, file: !4, line: 103, type: !83, scopeLine: 103, containingType: !3, virtualIndex: 58, flags: DIFlagPublic | DIFlagPrototyped, spFlags: DISPFlagVirtual)
!114 = !DISubprogram(name: "ff_v_00000029", linkageName: "_ZN2DD13ff_v_00000029Ev", scope: !3, file: !4, line: 104, type: !83, scopeLine: 104, containingType: !3, virtualIndex: 59, flags: DIFlagPublic | DIFlagPrototyped, spFlags: DISPFlagVirtual)
!115 = !DISubprogram(name: "ff_nv_00000000", linkageName: "_ZN2DD14ff_nv_00000000Ev", scope: !3, file: !4, line: 106, type: !83, scopeLine: 106, flags: DIFlagPublic | DIFlagPrototyped, spFlags: 0)
!116 = !DISubprogram(name: "ff_nv_00000001", linkageName: "_ZN2DD14ff_nv_00000001Ev", scope: !3, file: !4, line: 107, type: !83, scopeLine: 107, flags: DIFlagPublic | DIFlagPrototyped, spFlags: 0)
!117 = !DISubprogram(name: "ff_nv_00000002", linkageName: "_ZN2DD14ff_nv_00000002Ev", scope: !3, file: !4, line: 108, type: !83, scopeLine: 108, flags: DIFlagPublic | DIFlagPrototyped, spFlags: 0)
!118 = !DISubprogram(name: "ff_nv_00000003", linkageName: "_ZN2DD14ff_nv_00000003Ev", scope: !3, file: !4, line: 109, type: !83, scopeLine: 109, flags: DIFlagPublic | DIFlagPrototyped, spFlags: 0)
!119 = !DISubprogram(name: "ff_nv_00000004", linkageName: "_ZN2DD14ff_nv_00000004Ev", scope: !3, file: !4, line: 110, type: !83, scopeLine: 110, flags: DIFlagPublic | DIFlagPrototyped, spFlags: 0)
!120 = !DISubprogram(name: "ff_nv_00000005", linkageName: "_ZN2DD14ff_nv_00000005Ev", scope: !3, file: !4, line: 111, type: !83, scopeLine: 111, flags: DIFlagPublic | DIFlagPrototyped, spFlags: 0)
!121 = !DISubprogram(name: "ff_nv_00000006", linkageName: "_ZN2DD14ff_nv_00000006Ev", scope: !3, file: !4, line: 112, type: !83, scopeLine: 112, flags: DIFlagPublic | DIFlagPrototyped, spFlags: 0)
!122 = !DISubprogram(name: "ff_nv_00000007", linkageName: "_ZN2DD14ff_nv_00000007Ev", scope: !3, file: !4, line: 113, type: !83, scopeLine: 113, flags: DIFlagPublic | DIFlagPrototyped, spFlags: 0)
!123 = !DISubprogram(name: "ff_nv_00000008", linkageName: "_ZN2DD14ff_nv_00000008Ev", scope: !3, file: !4, line: 114, type: !83, scopeLine: 114, flags: DIFlagPublic | DIFlagPrototyped, spFlags: 0)
!124 = !DISubprogram(name: "ff_nv_00000009", linkageName: "_ZN2DD14ff_nv_00000009Ev", scope: !3, file: !4, line: 115, type: !83, scopeLine: 115, flags: DIFlagPublic | DIFlagPrototyped, spFlags: 0)
!125 = !DISubprogram(name: "ff_nv_00000010", linkageName: "_ZN2DD14ff_nv_00000010Ev", scope: !3, file: !4, line: 116, type: !83, scopeLine: 116, flags: DIFlagPublic | DIFlagPrototyped, spFlags: 0)
!126 = !DISubprogram(name: "ff_nv_00000011", linkageName: "_ZN2DD14ff_nv_00000011Ev", scope: !3, file: !4, line: 117, type: !83, scopeLine: 117, flags: DIFlagPublic | DIFlagPrototyped, spFlags: 0)
!127 = !DISubprogram(name: "ff_nv_00000012", linkageName: "_ZN2DD14ff_nv_00000012Ev", scope: !3, file: !4, line: 118, type: !83, scopeLine: 118, flags: DIFlagPublic | DIFlagPrototyped, spFlags: 0)
!128 = !DISubprogram(name: "ff_nv_00000013", linkageName: "_ZN2DD14ff_nv_00000013Ev", scope: !3, file: !4, line: 119, type: !83, scopeLine: 119, flags: DIFlagPublic | DIFlagPrototyped, spFlags: 0)
!129 = !DISubprogram(name: "ff_nv_00000014", linkageName: "_ZN2DD14ff_nv_00000014Ev", scope: !3, file: !4, line: 120, type: !83, scopeLine: 120, flags: DIFlagPublic | DIFlagPrototyped, spFlags: 0)
!130 = !DISubprogram(name: "ff_nv_00000015", linkageName: "_ZN2DD14ff_nv_00000015Ev", scope: !3, file: !4, line: 121, type: !83, scopeLine: 121, flags: DIFlagPublic | DIFlagPrototyped, spFlags: 0)
!131 = !DISubprogram(name: "ff_nv_00000016", linkageName: "_ZN2DD14ff_nv_00000016Ev", scope: !3, file: !4, line: 122, type: !83, scopeLine: 122, flags: DIFlagPublic | DIFlagPrototyped, spFlags: 0)
!132 = !DISubprogram(name: "ff_nv_00000017", linkageName: "_ZN2DD14ff_nv_00000017Ev", scope: !3, file: !4, line: 123, type: !83, scopeLine: 123, flags: DIFlagPublic | DIFlagPrototyped, spFlags: 0)
!133 = !DISubprogram(name: "ff_nv_00000018", linkageName: "_ZN2DD14ff_nv_00000018Ev", scope: !3, file: !4, line: 124, type: !83, scopeLine: 124, flags: DIFlagPublic | DIFlagPrototyped, spFlags: 0)
!134 = !DISubprogram(name: "ff_nv_00000019", linkageName: "_ZN2DD14ff_nv_00000019Ev", scope: !3, file: !4, line: 125, type: !83, scopeLine: 125, flags: DIFlagPublic | DIFlagPrototyped, spFlags: 0)
!135 = !DISubprogram(name: "ff_nv_00000020", linkageName: "_ZN2DD14ff_nv_00000020Ev", scope: !3, file: !4, line: 126, type: !83, scopeLine: 126, flags: DIFlagPublic | DIFlagPrototyped, spFlags: 0)
!136 = !DISubprogram(name: "ff_nv_00000021", linkageName: "_ZN2DD14ff_nv_00000021Ev", scope: !3, file: !4, line: 127, type: !83, scopeLine: 127, flags: DIFlagPublic | DIFlagPrototyped, spFlags: 0)
!137 = !DISubprogram(name: "ff_nv_00000022", linkageName: "_ZN2DD14ff_nv_00000022Ev", scope: !3, file: !4, line: 128, type: !83, scopeLine: 128, flags: DIFlagPublic | DIFlagPrototyped, spFlags: 0)
!138 = !DISubprogram(name: "ff_nv_00000023", linkageName: "_ZN2DD14ff_nv_00000023Ev", scope: !3, file: !4, line: 129, type: !83, scopeLine: 129, flags: DIFlagPublic | DIFlagPrototyped, spFlags: 0)
!139 = !DISubprogram(name: "ff_nv_00000024", linkageName: "_ZN2DD14ff_nv_00000024Ev", scope: !3, file: !4, line: 130, type: !83, scopeLine: 130, flags: DIFlagPublic | DIFlagPrototyped, spFlags: 0)
!140 = !DISubprogram(name: "ff_nv_00000025", linkageName: "_ZN2DD14ff_nv_00000025Ev", scope: !3, file: !4, line: 131, type: !83, scopeLine: 131, flags: DIFlagPublic | DIFlagPrototyped, spFlags: 0)
!141 = !DISubprogram(name: "ff_nv_00000026", linkageName: "_ZN2DD14ff_nv_00000026Ev", scope: !3, file: !4, line: 132, type: !83, scopeLine: 132, flags: DIFlagPublic | DIFlagPrototyped, spFlags: 0)
!142 = !DISubprogram(name: "ff_nv_00000027", linkageName: "_ZN2DD14ff_nv_00000027Ev", scope: !3, file: !4, line: 133, type: !83, scopeLine: 133, flags: DIFlagPublic | DIFlagPrototyped, spFlags: 0)
!143 = !DISubprogram(name: "ff_nv_00000028", linkageName: "_ZN2DD14ff_nv_00000028Ev", scope: !3, file: !4, line: 134, type: !83, scopeLine: 134, flags: DIFlagPublic | DIFlagPrototyped, spFlags: 0)
!144 = !DISubprogram(name: "ff_nv_00000029", linkageName: "_ZN2DD14ff_nv_00000029Ev", scope: !3, file: !4, line: 135, type: !83, scopeLine: 135, flags: DIFlagPublic | DIFlagPrototyped, spFlags: 0)
!145 = !{!"clang version 14.0.0"}
!146 = !{i32 7, !"Dwarf Version", i32 5}
!147 = !{i32 2, !"Debug Info Version", i32 3}
!148 = !{i32 1, !"wchar_size", i32 4}
!149 = !{i32 7, !"uwtable", i32 1}
!150 = !{i32 7, !"frame-pointer", i32 2}
!151 = distinct !DISubprogram(name: "test", linkageName: "_Z4testP2DDMS_FvvE", scope: !4, file: !4, line: 140, type: !152, scopeLine: 140, flags: DIFlagPrototyped, spFlags: DISPFlagDefinition, unit: !0, retainedNodes: !157)
!152 = !DISubroutineType(types: !153)
!153 = !{null, !154, !155}
!154 = !DIDerivedType(tag: DW_TAG_pointer_type, baseType: !3, size: 64)
!155 = !DIDerivedType(tag: DW_TAG_typedef, name: "MptrTy", file: !4, line: 139, baseType: !156)
!156 = !DIDerivedType(tag: DW_TAG_ptr_to_member_type, baseType: !83, size: 128, extraData: !3)
!157 = !{}
!158 = !DILocalVariable(name: "dptr", arg: 1, scope: !151, file: !4, line: 140, type: !154)
!159 = !DILocation(line: 0, scope: !151)
!160 = !DILocalVariable(name: "mfptr", arg: 2, scope: !151, file: !4, line: 140, type: !155)
!161 = !DILocation(line: 141, column: 4, scope: !151)
!162 = !DILocation(line: 142, column: 2, scope: !151)
!163 = distinct !DISubprogram(name: "main", scope: !4, file: !4, line: 145, type: !12, scopeLine: 145, flags: DIFlagPrototyped, spFlags: DISPFlagDefinition, unit: !0, retainedNodes: !157)
!164 = !DILocalVariable(name: "dobj", scope: !163, file: !4, line: 146, type: !3)
!165 = !DILocation(line: 146, column: 7, scope: !163)
!166 = !DILocation(line: 148, column: 4, scope: !163)
!167 = !DILocation(line: 150, column: 4, scope: !163)
!168 = !DILocation(line: 152, column: 4, scope: !163)
!169 = distinct !DISubprogram(name: "DD", linkageName: "_ZN2DDC2Ev", scope: !3, file: !4, line: 70, type: !83, scopeLine: 70, flags: DIFlagArtificial | DIFlagPrototyped, spFlags: DISPFlagDefinition, unit: !0, declaration: !170, retainedNodes: !157)
!170 = !DISubprogram(name: "DD", scope: !3, type: !83, flags: DIFlagPublic | DIFlagArtificial | DIFlagPrototyped, spFlags: 0)
!171 = !DILocalVariable(name: "this", arg: 1, scope: !169, type: !154, flags: DIFlagArtificial | DIFlagObjectPointer)
!172 = !DILocation(line: 0, scope: !169)
!173 = !DILocation(line: 70, column: 8, scope: !169)
!174 = distinct !DISubprogram(name: "ff_nv_00000000", linkageName: "_ZN2DD14ff_nv_00000000Ev", scope: !3, file: !4, line: 106, type: !83, scopeLine: 106, flags: DIFlagPrototyped, spFlags: DISPFlagDefinition, unit: !0, declaration: !115, retainedNodes: !157)
!175 = !DILocalVariable(name: "this", arg: 1, scope: !174, type: !154, flags: DIFlagArtificial | DIFlagObjectPointer)
!176 = !DILocation(line: 0, scope: !174)
!177 = !DILocation(line: 106, column: 29, scope: !174)
!178 = distinct !DISubprogram(name: "BB", linkageName: "_ZN2BBC2Ev", scope: !7, file: !4, line: 2, type: !19, scopeLine: 2, flags: DIFlagArtificial | DIFlagPrototyped, spFlags: DISPFlagDefinition, unit: !0, declaration: !179, retainedNodes: !157)
!179 = !DISubprogram(name: "BB", scope: !7, type: !19, flags: DIFlagPublic | DIFlagArtificial | DIFlagPrototyped, spFlags: 0)
!180 = !DILocalVariable(name: "this", arg: 1, scope: !178, type: !181, flags: DIFlagArtificial | DIFlagObjectPointer)
!181 = !DIDerivedType(tag: DW_TAG_pointer_type, baseType: !7, size: 64)
!182 = !DILocation(line: 0, scope: !178)
!183 = !DILocation(line: 2, column: 8, scope: !178)
!184 = distinct !DISubprogram(name: "gg_v_00000000", linkageName: "_ZN2BB13gg_v_00000000Ev", scope: !7, file: !4, line: 6, type: !19, scopeLine: 6, flags: DIFlagPrototyped, spFlags: DISPFlagDefinition, unit: !0, declaration: !18, retainedNodes: !157)
!185 = !DILocalVariable(name: "this", arg: 1, scope: !184, type: !181, flags: DIFlagArtificial | DIFlagObjectPointer)
!186 = !DILocation(line: 0, scope: !184)
!187 = !DILocation(line: 6, column: 35, scope: !184)
!188 = distinct !DISubprogram(name: "gg_v_00000001", linkageName: "_ZN2BB13gg_v_00000001Ev", scope: !7, file: !4, line: 7, type: !19, scopeLine: 7, flags: DIFlagPrototyped, spFlags: DISPFlagDefinition, unit: !0, declaration: !22, retainedNodes: !157)
!189 = !DILocalVariable(name: "this", arg: 1, scope: !188, type: !181, flags: DIFlagArtificial | DIFlagObjectPointer)
!190 = !DILocation(line: 0, scope: !188)
!191 = !DILocation(line: 7, column: 35, scope: !188)
!192 = distinct !DISubprogram(name: "gg_v_00000002", linkageName: "_ZN2BB13gg_v_00000002Ev", scope: !7, file: !4, line: 8, type: !19, scopeLine: 8, flags: DIFlagPrototyped, spFlags: DISPFlagDefinition, unit: !0, declaration: !23, retainedNodes: !157)
!193 = !DILocalVariable(name: "this", arg: 1, scope: !192, type: !181, flags: DIFlagArtificial | DIFlagObjectPointer)
!194 = !DILocation(line: 0, scope: !192)
!195 = !DILocation(line: 8, column: 35, scope: !192)
!196 = distinct !DISubprogram(name: "gg_v_00000003", linkageName: "_ZN2BB13gg_v_00000003Ev", scope: !7, file: !4, line: 9, type: !19, scopeLine: 9, flags: DIFlagPrototyped, spFlags: DISPFlagDefinition, unit: !0, declaration: !24, retainedNodes: !157)
!197 = !DILocalVariable(name: "this", arg: 1, scope: !196, type: !181, flags: DIFlagArtificial | DIFlagObjectPointer)
!198 = !DILocation(line: 0, scope: !196)
!199 = !DILocation(line: 9, column: 35, scope: !196)
!200 = distinct !DISubprogram(name: "gg_v_00000004", linkageName: "_ZN2BB13gg_v_00000004Ev", scope: !7, file: !4, line: 10, type: !19, scopeLine: 10, flags: DIFlagPrototyped, spFlags: DISPFlagDefinition, unit: !0, declaration: !25, retainedNodes: !157)
!201 = !DILocalVariable(name: "this", arg: 1, scope: !200, type: !181, flags: DIFlagArtificial | DIFlagObjectPointer)
!202 = !DILocation(line: 0, scope: !200)
!203 = !DILocation(line: 10, column: 35, scope: !200)
!204 = distinct !DISubprogram(name: "gg_v_00000005", linkageName: "_ZN2BB13gg_v_00000005Ev", scope: !7, file: !4, line: 11, type: !19, scopeLine: 11, flags: DIFlagPrototyped, spFlags: DISPFlagDefinition, unit: !0, declaration: !26, retainedNodes: !157)
!205 = !DILocalVariable(name: "this", arg: 1, scope: !204, type: !181, flags: DIFlagArtificial | DIFlagObjectPointer)
!206 = !DILocation(line: 0, scope: !204)
!207 = !DILocation(line: 11, column: 35, scope: !204)
!208 = distinct !DISubprogram(name: "gg_v_00000006", linkageName: "_ZN2BB13gg_v_00000006Ev", scope: !7, file: !4, line: 12, type: !19, scopeLine: 12, flags: DIFlagPrototyped, spFlags: DISPFlagDefinition, unit: !0, declaration: !27, retainedNodes: !157)
!209 = !DILocalVariable(name: "this", arg: 1, scope: !208, type: !181, flags: DIFlagArtificial | DIFlagObjectPointer)
!210 = !DILocation(line: 0, scope: !208)
!211 = !DILocation(line: 12, column: 35, scope: !208)
!212 = distinct !DISubprogram(name: "gg_v_00000007", linkageName: "_ZN2BB13gg_v_00000007Ev", scope: !7, file: !4, line: 13, type: !19, scopeLine: 13, flags: DIFlagPrototyped, spFlags: DISPFlagDefinition, unit: !0, declaration: !28, retainedNodes: !157)
!213 = !DILocalVariable(name: "this", arg: 1, scope: !212, type: !181, flags: DIFlagArtificial | DIFlagObjectPointer)
!214 = !DILocation(line: 0, scope: !212)
!215 = !DILocation(line: 13, column: 35, scope: !212)
!216 = distinct !DISubprogram(name: "gg_v_00000008", linkageName: "_ZN2BB13gg_v_00000008Ev", scope: !7, file: !4, line: 14, type: !19, scopeLine: 14, flags: DIFlagPrototyped, spFlags: DISPFlagDefinition, unit: !0, declaration: !29, retainedNodes: !157)
!217 = !DILocalVariable(name: "this", arg: 1, scope: !216, type: !181, flags: DIFlagArtificial | DIFlagObjectPointer)
!218 = !DILocation(line: 0, scope: !216)
!219 = !DILocation(line: 14, column: 35, scope: !216)
!220 = distinct !DISubprogram(name: "gg_v_00000009", linkageName: "_ZN2BB13gg_v_00000009Ev", scope: !7, file: !4, line: 15, type: !19, scopeLine: 15, flags: DIFlagPrototyped, spFlags: DISPFlagDefinition, unit: !0, declaration: !30, retainedNodes: !157)
!221 = !DILocalVariable(name: "this", arg: 1, scope: !220, type: !181, flags: DIFlagArtificial | DIFlagObjectPointer)
!222 = !DILocation(line: 0, scope: !220)
!223 = !DILocation(line: 15, column: 35, scope: !220)
!224 = distinct !DISubprogram(name: "gg_v_00000010", linkageName: "_ZN2BB13gg_v_00000010Ev", scope: !7, file: !4, line: 16, type: !19, scopeLine: 16, flags: DIFlagPrototyped, spFlags: DISPFlagDefinition, unit: !0, declaration: !31, retainedNodes: !157)
!225 = !DILocalVariable(name: "this", arg: 1, scope: !224, type: !181, flags: DIFlagArtificial | DIFlagObjectPointer)
!226 = !DILocation(line: 0, scope: !224)
!227 = !DILocation(line: 16, column: 35, scope: !224)
!228 = distinct !DISubprogram(name: "gg_v_00000011", linkageName: "_ZN2BB13gg_v_00000011Ev", scope: !7, file: !4, line: 17, type: !19, scopeLine: 17, flags: DIFlagPrototyped, spFlags: DISPFlagDefinition, unit: !0, declaration: !32, retainedNodes: !157)
!229 = !DILocalVariable(name: "this", arg: 1, scope: !228, type: !181, flags: DIFlagArtificial | DIFlagObjectPointer)
!230 = !DILocation(line: 0, scope: !228)
!231 = !DILocation(line: 17, column: 35, scope: !228)
!232 = distinct !DISubprogram(name: "gg_v_00000012", linkageName: "_ZN2BB13gg_v_00000012Ev", scope: !7, file: !4, line: 18, type: !19, scopeLine: 18, flags: DIFlagPrototyped, spFlags: DISPFlagDefinition, unit: !0, declaration: !33, retainedNodes: !157)
!233 = !DILocalVariable(name: "this", arg: 1, scope: !232, type: !181, flags: DIFlagArtificial | DIFlagObjectPointer)
!234 = !DILocation(line: 0, scope: !232)
!235 = !DILocation(line: 18, column: 35, scope: !232)
!236 = distinct !DISubprogram(name: "gg_v_00000013", linkageName: "_ZN2BB13gg_v_00000013Ev", scope: !7, file: !4, line: 19, type: !19, scopeLine: 19, flags: DIFlagPrototyped, spFlags: DISPFlagDefinition, unit: !0, declaration: !34, retainedNodes: !157)
!237 = !DILocalVariable(name: "this", arg: 1, scope: !236, type: !181, flags: DIFlagArtificial | DIFlagObjectPointer)
!238 = !DILocation(line: 0, scope: !236)
!239 = !DILocation(line: 19, column: 35, scope: !236)
!240 = distinct !DISubprogram(name: "gg_v_00000014", linkageName: "_ZN2BB13gg_v_00000014Ev", scope: !7, file: !4, line: 20, type: !19, scopeLine: 20, flags: DIFlagPrototyped, spFlags: DISPFlagDefinition, unit: !0, declaration: !35, retainedNodes: !157)
!241 = !DILocalVariable(name: "this", arg: 1, scope: !240, type: !181, flags: DIFlagArtificial | DIFlagObjectPointer)
!242 = !DILocation(line: 0, scope: !240)
!243 = !DILocation(line: 20, column: 35, scope: !240)
!244 = distinct !DISubprogram(name: "gg_v_00000015", linkageName: "_ZN2BB13gg_v_00000015Ev", scope: !7, file: !4, line: 21, type: !19, scopeLine: 21, flags: DIFlagPrototyped, spFlags: DISPFlagDefinition, unit: !0, declaration: !36, retainedNodes: !157)
!245 = !DILocalVariable(name: "this", arg: 1, scope: !244, type: !181, flags: DIFlagArtificial | DIFlagObjectPointer)
!246 = !DILocation(line: 0, scope: !244)
!247 = !DILocation(line: 21, column: 35, scope: !244)
!248 = distinct !DISubprogram(name: "gg_v_00000016", linkageName: "_ZN2BB13gg_v_00000016Ev", scope: !7, file: !4, line: 22, type: !19, scopeLine: 22, flags: DIFlagPrototyped, spFlags: DISPFlagDefinition, unit: !0, declaration: !37, retainedNodes: !157)
!249 = !DILocalVariable(name: "this", arg: 1, scope: !248, type: !181, flags: DIFlagArtificial | DIFlagObjectPointer)
!250 = !DILocation(line: 0, scope: !248)
!251 = !DILocation(line: 22, column: 35, scope: !248)
!252 = distinct !DISubprogram(name: "gg_v_00000017", linkageName: "_ZN2BB13gg_v_00000017Ev", scope: !7, file: !4, line: 23, type: !19, scopeLine: 23, flags: DIFlagPrototyped, spFlags: DISPFlagDefinition, unit: !0, declaration: !38, retainedNodes: !157)
!253 = !DILocalVariable(name: "this", arg: 1, scope: !252, type: !181, flags: DIFlagArtificial | DIFlagObjectPointer)
!254 = !DILocation(line: 0, scope: !252)
!255 = !DILocation(line: 23, column: 35, scope: !252)
!256 = distinct !DISubprogram(name: "gg_v_00000018", linkageName: "_ZN2BB13gg_v_00000018Ev", scope: !7, file: !4, line: 24, type: !19, scopeLine: 24, flags: DIFlagPrototyped, spFlags: DISPFlagDefinition, unit: !0, declaration: !39, retainedNodes: !157)
!257 = !DILocalVariable(name: "this", arg: 1, scope: !256, type: !181, flags: DIFlagArtificial | DIFlagObjectPointer)
!258 = !DILocation(line: 0, scope: !256)
!259 = !DILocation(line: 24, column: 35, scope: !256)
!260 = distinct !DISubprogram(name: "gg_v_00000019", linkageName: "_ZN2BB13gg_v_00000019Ev", scope: !7, file: !4, line: 25, type: !19, scopeLine: 25, flags: DIFlagPrototyped, spFlags: DISPFlagDefinition, unit: !0, declaration: !40, retainedNodes: !157)
!261 = !DILocalVariable(name: "this", arg: 1, scope: !260, type: !181, flags: DIFlagArtificial | DIFlagObjectPointer)
!262 = !DILocation(line: 0, scope: !260)
!263 = !DILocation(line: 25, column: 35, scope: !260)
!264 = distinct !DISubprogram(name: "gg_v_00000020", linkageName: "_ZN2BB13gg_v_00000020Ev", scope: !7, file: !4, line: 26, type: !19, scopeLine: 26, flags: DIFlagPrototyped, spFlags: DISPFlagDefinition, unit: !0, declaration: !41, retainedNodes: !157)
!265 = !DILocalVariable(name: "this", arg: 1, scope: !264, type: !181, flags: DIFlagArtificial | DIFlagObjectPointer)
!266 = !DILocation(line: 0, scope: !264)
!267 = !DILocation(line: 26, column: 35, scope: !264)
!268 = distinct !DISubprogram(name: "gg_v_00000021", linkageName: "_ZN2BB13gg_v_00000021Ev", scope: !7, file: !4, line: 27, type: !19, scopeLine: 27, flags: DIFlagPrototyped, spFlags: DISPFlagDefinition, unit: !0, declaration: !42, retainedNodes: !157)
!269 = !DILocalVariable(name: "this", arg: 1, scope: !268, type: !181, flags: DIFlagArtificial | DIFlagObjectPointer)
!270 = !DILocation(line: 0, scope: !268)
!271 = !DILocation(line: 27, column: 35, scope: !268)
!272 = distinct !DISubprogram(name: "gg_v_00000022", linkageName: "_ZN2BB13gg_v_00000022Ev", scope: !7, file: !4, line: 28, type: !19, scopeLine: 28, flags: DIFlagPrototyped, spFlags: DISPFlagDefinition, unit: !0, declaration: !43, retainedNodes: !157)
!273 = !DILocalVariable(name: "this", arg: 1, scope: !272, type: !181, flags: DIFlagArtificial | DIFlagObjectPointer)
!274 = !DILocation(line: 0, scope: !272)
!275 = !DILocation(line: 28, column: 35, scope: !272)
!276 = distinct !DISubprogram(name: "gg_v_00000023", linkageName: "_ZN2BB13gg_v_00000023Ev", scope: !7, file: !4, line: 29, type: !19, scopeLine: 29, flags: DIFlagPrototyped, spFlags: DISPFlagDefinition, unit: !0, declaration: !44, retainedNodes: !157)
!277 = !DILocalVariable(name: "this", arg: 1, scope: !276, type: !181, flags: DIFlagArtificial | DIFlagObjectPointer)
!278 = !DILocation(line: 0, scope: !276)
!279 = !DILocation(line: 29, column: 35, scope: !276)
!280 = distinct !DISubprogram(name: "gg_v_00000024", linkageName: "_ZN2BB13gg_v_00000024Ev", scope: !7, file: !4, line: 30, type: !19, scopeLine: 30, flags: DIFlagPrototyped, spFlags: DISPFlagDefinition, unit: !0, declaration: !45, retainedNodes: !157)
!281 = !DILocalVariable(name: "this", arg: 1, scope: !280, type: !181, flags: DIFlagArtificial | DIFlagObjectPointer)
!282 = !DILocation(line: 0, scope: !280)
!283 = !DILocation(line: 30, column: 35, scope: !280)
!284 = distinct !DISubprogram(name: "gg_v_00000025", linkageName: "_ZN2BB13gg_v_00000025Ev", scope: !7, file: !4, line: 31, type: !19, scopeLine: 31, flags: DIFlagPrototyped, spFlags: DISPFlagDefinition, unit: !0, declaration: !46, retainedNodes: !157)
!285 = !DILocalVariable(name: "this", arg: 1, scope: !284, type: !181, flags: DIFlagArtificial | DIFlagObjectPointer)
!286 = !DILocation(line: 0, scope: !284)
!287 = !DILocation(line: 31, column: 35, scope: !284)
!288 = distinct !DISubprogram(name: "gg_v_00000026", linkageName: "_ZN2BB13gg_v_00000026Ev", scope: !7, file: !4, line: 32, type: !19, scopeLine: 32, flags: DIFlagPrototyped, spFlags: DISPFlagDefinition, unit: !0, declaration: !47, retainedNodes: !157)
!289 = !DILocalVariable(name: "this", arg: 1, scope: !288, type: !181, flags: DIFlagArtificial | DIFlagObjectPointer)
!290 = !DILocation(line: 0, scope: !288)
!291 = !DILocation(line: 32, column: 35, scope: !288)
!292 = distinct !DISubprogram(name: "gg_v_00000027", linkageName: "_ZN2BB13gg_v_00000027Ev", scope: !7, file: !4, line: 33, type: !19, scopeLine: 33, flags: DIFlagPrototyped, spFlags: DISPFlagDefinition, unit: !0, declaration: !48, retainedNodes: !157)
!293 = !DILocalVariable(name: "this", arg: 1, scope: !292, type: !181, flags: DIFlagArtificial | DIFlagObjectPointer)
!294 = !DILocation(line: 0, scope: !292)
!295 = !DILocation(line: 33, column: 35, scope: !292)
!296 = distinct !DISubprogram(name: "gg_v_00000028", linkageName: "_ZN2BB13gg_v_00000028Ev", scope: !7, file: !4, line: 34, type: !19, scopeLine: 34, flags: DIFlagPrototyped, spFlags: DISPFlagDefinition, unit: !0, declaration: !49, retainedNodes: !157)
!297 = !DILocalVariable(name: "this", arg: 1, scope: !296, type: !181, flags: DIFlagArtificial | DIFlagObjectPointer)
!298 = !DILocation(line: 0, scope: !296)
!299 = !DILocation(line: 34, column: 35, scope: !296)
!300 = distinct !DISubprogram(name: "gg_v_00000029", linkageName: "_ZN2BB13gg_v_00000029Ev", scope: !7, file: !4, line: 35, type: !19, scopeLine: 35, flags: DIFlagPrototyped, spFlags: DISPFlagDefinition, unit: !0, declaration: !50, retainedNodes: !157)
!301 = !DILocalVariable(name: "this", arg: 1, scope: !300, type: !181, flags: DIFlagArtificial | DIFlagObjectPointer)
!302 = !DILocation(line: 0, scope: !300)
!303 = !DILocation(line: 35, column: 35, scope: !300)
!304 = distinct !DISubprogram(name: "ff_v_00000000", linkageName: "_ZN2DD13ff_v_00000000Ev", scope: !3, file: !4, line: 75, type: !83, scopeLine: 75, flags: DIFlagPrototyped, spFlags: DISPFlagDefinition, unit: !0, declaration: !82, retainedNodes: !157)
!305 = !DILocalVariable(name: "this", arg: 1, scope: !304, type: !154, flags: DIFlagArtificial | DIFlagObjectPointer)
!306 = !DILocation(line: 0, scope: !304)
!307 = !DILocation(line: 75, column: 36, scope: !304)
!308 = distinct !DISubprogram(name: "ff_v_00000001", linkageName: "_ZN2DD13ff_v_00000001Ev", scope: !3, file: !4, line: 76, type: !83, scopeLine: 76, flags: DIFlagPrototyped, spFlags: DISPFlagDefinition, unit: !0, declaration: !86, retainedNodes: !157)
!309 = !DILocalVariable(name: "this", arg: 1, scope: !308, type: !154, flags: DIFlagArtificial | DIFlagObjectPointer)
!310 = !DILocation(line: 0, scope: !308)
!311 = !DILocation(line: 76, column: 36, scope: !308)
!312 = distinct !DISubprogram(name: "ff_v_00000002", linkageName: "_ZN2DD13ff_v_00000002Ev", scope: !3, file: !4, line: 77, type: !83, scopeLine: 77, flags: DIFlagPrototyped, spFlags: DISPFlagDefinition, unit: !0, declaration: !87, retainedNodes: !157)
!313 = !DILocalVariable(name: "this", arg: 1, scope: !312, type: !154, flags: DIFlagArtificial | DIFlagObjectPointer)
!314 = !DILocation(line: 0, scope: !312)
!315 = !DILocation(line: 77, column: 36, scope: !312)
!316 = distinct !DISubprogram(name: "ff_v_00000003", linkageName: "_ZN2DD13ff_v_00000003Ev", scope: !3, file: !4, line: 78, type: !83, scopeLine: 78, flags: DIFlagPrototyped, spFlags: DISPFlagDefinition, unit: !0, declaration: !88, retainedNodes: !157)
!317 = !DILocalVariable(name: "this", arg: 1, scope: !316, type: !154, flags: DIFlagArtificial | DIFlagObjectPointer)
!318 = !DILocation(line: 0, scope: !316)
!319 = !DILocation(line: 78, column: 36, scope: !316)
!320 = distinct !DISubprogram(name: "ff_v_00000004", linkageName: "_ZN2DD13ff_v_00000004Ev", scope: !3, file: !4, line: 79, type: !83, scopeLine: 79, flags: DIFlagPrototyped, spFlags: DISPFlagDefinition, unit: !0, declaration: !89, retainedNodes: !157)
!321 = !DILocalVariable(name: "this", arg: 1, scope: !320, type: !154, flags: DIFlagArtificial | DIFlagObjectPointer)
!322 = !DILocation(line: 0, scope: !320)
!323 = !DILocation(line: 79, column: 36, scope: !320)
!324 = distinct !DISubprogram(name: "ff_v_00000005", linkageName: "_ZN2DD13ff_v_00000005Ev", scope: !3, file: !4, line: 80, type: !83, scopeLine: 80, flags: DIFlagPrototyped, spFlags: DISPFlagDefinition, unit: !0, declaration: !90, retainedNodes: !157)
!325 = !DILocalVariable(name: "this", arg: 1, scope: !324, type: !154, flags: DIFlagArtificial | DIFlagObjectPointer)
!326 = !DILocation(line: 0, scope: !324)
!327 = !DILocation(line: 80, column: 36, scope: !324)
!328 = distinct !DISubprogram(name: "ff_v_00000006", linkageName: "_ZN2DD13ff_v_00000006Ev", scope: !3, file: !4, line: 81, type: !83, scopeLine: 81, flags: DIFlagPrototyped, spFlags: DISPFlagDefinition, unit: !0, declaration: !91, retainedNodes: !157)
!329 = !DILocalVariable(name: "this", arg: 1, scope: !328, type: !154, flags: DIFlagArtificial | DIFlagObjectPointer)
!330 = !DILocation(line: 0, scope: !328)
!331 = !DILocation(line: 81, column: 36, scope: !328)
!332 = distinct !DISubprogram(name: "ff_v_00000007", linkageName: "_ZN2DD13ff_v_00000007Ev", scope: !3, file: !4, line: 82, type: !83, scopeLine: 82, flags: DIFlagPrototyped, spFlags: DISPFlagDefinition, unit: !0, declaration: !92, retainedNodes: !157)
!333 = !DILocalVariable(name: "this", arg: 1, scope: !332, type: !154, flags: DIFlagArtificial | DIFlagObjectPointer)
!334 = !DILocation(line: 0, scope: !332)
!335 = !DILocation(line: 82, column: 36, scope: !332)
!336 = distinct !DISubprogram(name: "ff_v_00000008", linkageName: "_ZN2DD13ff_v_00000008Ev", scope: !3, file: !4, line: 83, type: !83, scopeLine: 83, flags: DIFlagPrototyped, spFlags: DISPFlagDefinition, unit: !0, declaration: !93, retainedNodes: !157)
!337 = !DILocalVariable(name: "this", arg: 1, scope: !336, type: !154, flags: DIFlagArtificial | DIFlagObjectPointer)
!338 = !DILocation(line: 0, scope: !336)
!339 = !DILocation(line: 83, column: 36, scope: !336)
!340 = distinct !DISubprogram(name: "ff_v_00000009", linkageName: "_ZN2DD13ff_v_00000009Ev", scope: !3, file: !4, line: 84, type: !83, scopeLine: 84, flags: DIFlagPrototyped, spFlags: DISPFlagDefinition, unit: !0, declaration: !94, retainedNodes: !157)
!341 = !DILocalVariable(name: "this", arg: 1, scope: !340, type: !154, flags: DIFlagArtificial | DIFlagObjectPointer)
!342 = !DILocation(line: 0, scope: !340)
!343 = !DILocation(line: 84, column: 36, scope: !340)
!344 = distinct !DISubprogram(name: "ff_v_00000010", linkageName: "_ZN2DD13ff_v_00000010Ev", scope: !3, file: !4, line: 85, type: !83, scopeLine: 85, flags: DIFlagPrototyped, spFlags: DISPFlagDefinition, unit: !0, declaration: !95, retainedNodes: !157)
!345 = !DILocalVariable(name: "this", arg: 1, scope: !344, type: !154, flags: DIFlagArtificial | DIFlagObjectPointer)
!346 = !DILocation(line: 0, scope: !344)
!347 = !DILocation(line: 85, column: 36, scope: !344)
!348 = distinct !DISubprogram(name: "ff_v_00000011", linkageName: "_ZN2DD13ff_v_00000011Ev", scope: !3, file: !4, line: 86, type: !83, scopeLine: 86, flags: DIFlagPrototyped, spFlags: DISPFlagDefinition, unit: !0, declaration: !96, retainedNodes: !157)
!349 = !DILocalVariable(name: "this", arg: 1, scope: !348, type: !154, flags: DIFlagArtificial | DIFlagObjectPointer)
!350 = !DILocation(line: 0, scope: !348)
!351 = !DILocation(line: 86, column: 36, scope: !348)
!352 = distinct !DISubprogram(name: "ff_v_00000012", linkageName: "_ZN2DD13ff_v_00000012Ev", scope: !3, file: !4, line: 87, type: !83, scopeLine: 87, flags: DIFlagPrototyped, spFlags: DISPFlagDefinition, unit: !0, declaration: !97, retainedNodes: !157)
!353 = !DILocalVariable(name: "this", arg: 1, scope: !352, type: !154, flags: DIFlagArtificial | DIFlagObjectPointer)
!354 = !DILocation(line: 0, scope: !352)
!355 = !DILocation(line: 87, column: 36, scope: !352)
!356 = distinct !DISubprogram(name: "ff_v_00000013", linkageName: "_ZN2DD13ff_v_00000013Ev", scope: !3, file: !4, line: 88, type: !83, scopeLine: 88, flags: DIFlagPrototyped, spFlags: DISPFlagDefinition, unit: !0, declaration: !98, retainedNodes: !157)
!357 = !DILocalVariable(name: "this", arg: 1, scope: !356, type: !154, flags: DIFlagArtificial | DIFlagObjectPointer)
!358 = !DILocation(line: 0, scope: !356)
!359 = !DILocation(line: 88, column: 36, scope: !356)
!360 = distinct !DISubprogram(name: "ff_v_00000014", linkageName: "_ZN2DD13ff_v_00000014Ev", scope: !3, file: !4, line: 89, type: !83, scopeLine: 89, flags: DIFlagPrototyped, spFlags: DISPFlagDefinition, unit: !0, declaration: !99, retainedNodes: !157)
!361 = !DILocalVariable(name: "this", arg: 1, scope: !360, type: !154, flags: DIFlagArtificial | DIFlagObjectPointer)
!362 = !DILocation(line: 0, scope: !360)
!363 = !DILocation(line: 89, column: 36, scope: !360)
!364 = distinct !DISubprogram(name: "ff_v_00000015", linkageName: "_ZN2DD13ff_v_00000015Ev", scope: !3, file: !4, line: 90, type: !83, scopeLine: 90, flags: DIFlagPrototyped, spFlags: DISPFlagDefinition, unit: !0, declaration: !100, retainedNodes: !157)
!365 = !DILocalVariable(name: "this", arg: 1, scope: !364, type: !154, flags: DIFlagArtificial | DIFlagObjectPointer)
!366 = !DILocation(line: 0, scope: !364)
!367 = !DILocation(line: 90, column: 36, scope: !364)
!368 = distinct !DISubprogram(name: "ff_v_00000016", linkageName: "_ZN2DD13ff_v_00000016Ev", scope: !3, file: !4, line: 91, type: !83, scopeLine: 91, flags: DIFlagPrototyped, spFlags: DISPFlagDefinition, unit: !0, declaration: !101, retainedNodes: !157)
!369 = !DILocalVariable(name: "this", arg: 1, scope: !368, type: !154, flags: DIFlagArtificial | DIFlagObjectPointer)
!370 = !DILocation(line: 0, scope: !368)
!371 = !DILocation(line: 91, column: 36, scope: !368)
!372 = distinct !DISubprogram(name: "ff_v_00000017", linkageName: "_ZN2DD13ff_v_00000017Ev", scope: !3, file: !4, line: 92, type: !83, scopeLine: 92, flags: DIFlagPrototyped, spFlags: DISPFlagDefinition, unit: !0, declaration: !102, retainedNodes: !157)
!373 = !DILocalVariable(name: "this", arg: 1, scope: !372, type: !154, flags: DIFlagArtificial | DIFlagObjectPointer)
!374 = !DILocation(line: 0, scope: !372)
!375 = !DILocation(line: 92, column: 36, scope: !372)
!376 = distinct !DISubprogram(name: "ff_v_00000018", linkageName: "_ZN2DD13ff_v_00000018Ev", scope: !3, file: !4, line: 93, type: !83, scopeLine: 93, flags: DIFlagPrototyped, spFlags: DISPFlagDefinition, unit: !0, declaration: !103, retainedNodes: !157)
!377 = !DILocalVariable(name: "this", arg: 1, scope: !376, type: !154, flags: DIFlagArtificial | DIFlagObjectPointer)
!378 = !DILocation(line: 0, scope: !376)
!379 = !DILocation(line: 93, column: 36, scope: !376)
!380 = distinct !DISubprogram(name: "ff_v_00000019", linkageName: "_ZN2DD13ff_v_00000019Ev", scope: !3, file: !4, line: 94, type: !83, scopeLine: 94, flags: DIFlagPrototyped, spFlags: DISPFlagDefinition, unit: !0, declaration: !104, retainedNodes: !157)
!381 = !DILocalVariable(name: "this", arg: 1, scope: !380, type: !154, flags: DIFlagArtificial | DIFlagObjectPointer)
!382 = !DILocation(line: 0, scope: !380)
!383 = !DILocation(line: 94, column: 36, scope: !380)
!384 = distinct !DISubprogram(name: "ff_v_00000020", linkageName: "_ZN2DD13ff_v_00000020Ev", scope: !3, file: !4, line: 95, type: !83, scopeLine: 95, flags: DIFlagPrototyped, spFlags: DISPFlagDefinition, unit: !0, declaration: !105, retainedNodes: !157)
!385 = !DILocalVariable(name: "this", arg: 1, scope: !384, type: !154, flags: DIFlagArtificial | DIFlagObjectPointer)
!386 = !DILocation(line: 0, scope: !384)
!387 = !DILocation(line: 95, column: 36, scope: !384)
!388 = distinct !DISubprogram(name: "ff_v_00000021", linkageName: "_ZN2DD13ff_v_00000021Ev", scope: !3, file: !4, line: 96, type: !83, scopeLine: 96, flags: DIFlagPrototyped, spFlags: DISPFlagDefinition, unit: !0, declaration: !106, retainedNodes: !157)
!389 = !DILocalVariable(name: "this", arg: 1, scope: !388, type: !154, flags: DIFlagArtificial | DIFlagObjectPointer)
!390 = !DILocation(line: 0, scope: !388)
!391 = !DILocation(line: 96, column: 36, scope: !388)
!392 = distinct !DISubprogram(name: "ff_v_00000022", linkageName: "_ZN2DD13ff_v_00000022Ev", scope: !3, file: !4, line: 97, type: !83, scopeLine: 97, flags: DIFlagPrototyped, spFlags: DISPFlagDefinition, unit: !0, declaration: !107, retainedNodes: !157)
!393 = !DILocalVariable(name: "this", arg: 1, scope: !392, type: !154, flags: DIFlagArtificial | DIFlagObjectPointer)
!394 = !DILocation(line: 0, scope: !392)
!395 = !DILocation(line: 97, column: 36, scope: !392)
!396 = distinct !DISubprogram(name: "ff_v_00000023", linkageName: "_ZN2DD13ff_v_00000023Ev", scope: !3, file: !4, line: 98, type: !83, scopeLine: 98, flags: DIFlagPrototyped, spFlags: DISPFlagDefinition, unit: !0, declaration: !108, retainedNodes: !157)
!397 = !DILocalVariable(name: "this", arg: 1, scope: !396, type: !154, flags: DIFlagArtificial | DIFlagObjectPointer)
!398 = !DILocation(line: 0, scope: !396)
!399 = !DILocation(line: 98, column: 36, scope: !396)
!400 = distinct !DISubprogram(name: "ff_v_00000024", linkageName: "_ZN2DD13ff_v_00000024Ev", scope: !3, file: !4, line: 99, type: !83, scopeLine: 99, flags: DIFlagPrototyped, spFlags: DISPFlagDefinition, unit: !0, declaration: !109, retainedNodes: !157)
!401 = !DILocalVariable(name: "this", arg: 1, scope: !400, type: !154, flags: DIFlagArtificial | DIFlagObjectPointer)
!402 = !DILocation(line: 0, scope: !400)
!403 = !DILocation(line: 99, column: 36, scope: !400)
!404 = distinct !DISubprogram(name: "ff_v_00000025", linkageName: "_ZN2DD13ff_v_00000025Ev", scope: !3, file: !4, line: 100, type: !83, scopeLine: 100, flags: DIFlagPrototyped, spFlags: DISPFlagDefinition, unit: !0, declaration: !110, retainedNodes: !157)
!405 = !DILocalVariable(name: "this", arg: 1, scope: !404, type: !154, flags: DIFlagArtificial | DIFlagObjectPointer)
!406 = !DILocation(line: 0, scope: !404)
!407 = !DILocation(line: 100, column: 36, scope: !404)
!408 = distinct !DISubprogram(name: "ff_v_00000026", linkageName: "_ZN2DD13ff_v_00000026Ev", scope: !3, file: !4, line: 101, type: !83, scopeLine: 101, flags: DIFlagPrototyped, spFlags: DISPFlagDefinition, unit: !0, declaration: !111, retainedNodes: !157)
!409 = !DILocalVariable(name: "this", arg: 1, scope: !408, type: !154, flags: DIFlagArtificial | DIFlagObjectPointer)
!410 = !DILocation(line: 0, scope: !408)
!411 = !DILocation(line: 101, column: 36, scope: !408)
!412 = distinct !DISubprogram(name: "ff_v_00000027", linkageName: "_ZN2DD13ff_v_00000027Ev", scope: !3, file: !4, line: 102, type: !83, scopeLine: 102, flags: DIFlagPrototyped, spFlags: DISPFlagDefinition, unit: !0, declaration: !112, retainedNodes: !157)
!413 = !DILocalVariable(name: "this", arg: 1, scope: !412, type: !154, flags: DIFlagArtificial | DIFlagObjectPointer)
!414 = !DILocation(line: 0, scope: !412)
!415 = !DILocation(line: 102, column: 36, scope: !412)
!416 = distinct !DISubprogram(name: "ff_v_00000028", linkageName: "_ZN2DD13ff_v_00000028Ev", scope: !3, file: !4, line: 103, type: !83, scopeLine: 103, flags: DIFlagPrototyped, spFlags: DISPFlagDefinition, unit: !0, declaration: !113, retainedNodes: !157)
!417 = !DILocalVariable(name: "this", arg: 1, scope: !416, type: !154, flags: DIFlagArtificial | DIFlagObjectPointer)
!418 = !DILocation(line: 0, scope: !416)
!419 = !DILocation(line: 103, column: 36, scope: !416)
!420 = distinct !DISubprogram(name: "ff_v_00000029", linkageName: "_ZN2DD13ff_v_00000029Ev", scope: !3, file: !4, line: 104, type: !83, scopeLine: 104, flags: DIFlagPrototyped, spFlags: DISPFlagDefinition, unit: !0, declaration: !114, retainedNodes: !157)
!421 = !DILocalVariable(name: "this", arg: 1, scope: !420, type: !154, flags: DIFlagArtificial | DIFlagObjectPointer)
!422 = !DILocation(line: 0, scope: !420)
!423 = !DILocation(line: 104, column: 36, scope: !420)
