; ModuleID = './MicroBenchmark/virtual_v1_nv0/pre_bc/virtual_v1_nv0_30_2.pre.bc'
source_filename = "llvm-link"	 ;;;;; 
target datalayout = "e-m:e-p270:32:32-p271:32:32-p272:64:64-i64:64-f80:128-n8:16:32:64-S128"	 ;;;;; 
target triple = "x86_64-unknown-linux-gnu"	 ;;;;; 

%class.DD = type { %class.BB.base, %class.CC.base, i64, %class.AA }	 ;;;;; 
%class.BB.base = type { i32 (...)**, i64* }	 ;;;;; 
%class.CC.base = type { i32 (...)**, [2 x i32] }	 ;;;;; 
%class.AA = type { i32 (...)**, i8* }	 ;;;;; 
%class.BB = type { i32 (...)**, i64*, %class.AA }	 ;;;;; 
%class.CC = type { i32 (...)**, [2 x i32], %class.AA }	 ;;;;; 

$_ZN2DDC1Ev = comdat any	 ;;;;; 

$_ZN2AAC2Ev = comdat any	 ;;;;; 

$_ZN2BBC2Ev = comdat any	 ;;;;; 

$_ZN2CCC2Ev = comdat any	 ;;;;; 

$_ZN2DD13gg_v_00000000Ev = comdat any	 ;;;;; 

$_ZN2DD13gg_v_00000001Ev = comdat any	 ;;;;; 

$_ZN2DD13gg_v_00000002Ev = comdat any	 ;;;;; 

$_ZN2DD13gg_v_00000003Ev = comdat any	 ;;;;; 

$_ZN2DD13gg_v_00000004Ev = comdat any	 ;;;;; 

$_ZN2DD13gg_v_00000005Ev = comdat any	 ;;;;; 

$_ZN2DD13gg_v_00000006Ev = comdat any	 ;;;;; 

$_ZN2DD13gg_v_00000007Ev = comdat any	 ;;;;; 

$_ZN2DD13gg_v_00000008Ev = comdat any	 ;;;;; 

$_ZN2DD13gg_v_00000009Ev = comdat any	 ;;;;; 

$_ZN2DD13gg_v_00000010Ev = comdat any	 ;;;;; 

$_ZN2DD13gg_v_00000011Ev = comdat any	 ;;;;; 

$_ZN2DD13gg_v_00000012Ev = comdat any	 ;;;;; 

$_ZN2DD13gg_v_00000013Ev = comdat any	 ;;;;; 

$_ZN2DD13gg_v_00000014Ev = comdat any	 ;;;;; 

$_ZN2BB13gg_v_00000015Ev = comdat any	 ;;;;; 

$_ZN2BB13gg_v_00000016Ev = comdat any	 ;;;;; 

$_ZN2BB13gg_v_00000017Ev = comdat any	 ;;;;; 

$_ZN2BB13gg_v_00000018Ev = comdat any	 ;;;;; 

$_ZN2BB13gg_v_00000019Ev = comdat any	 ;;;;; 

$_ZN2BB13gg_v_00000020Ev = comdat any	 ;;;;; 

$_ZN2BB13gg_v_00000021Ev = comdat any	 ;;;;; 

$_ZN2BB13gg_v_00000022Ev = comdat any	 ;;;;; 

$_ZN2BB13gg_v_00000023Ev = comdat any	 ;;;;; 

$_ZN2BB13gg_v_00000024Ev = comdat any	 ;;;;; 

$_ZN2BB13gg_v_00000025Ev = comdat any	 ;;;;; 

$_ZN2BB13gg_v_00000026Ev = comdat any	 ;;;;; 

$_ZN2BB13gg_v_00000027Ev = comdat any	 ;;;;; 

$_ZN2BB13gg_v_00000028Ev = comdat any	 ;;;;; 

$_ZN2BB13gg_v_00000029Ev = comdat any	 ;;;;; 

$_ZN2DD13kk_v_00000000Ev = comdat any	 ;;;;; 

$_ZN2DD13kk_v_00000001Ev = comdat any	 ;;;;; 

$_ZN2DD13kk_v_00000002Ev = comdat any	 ;;;;; 

$_ZN2DD13kk_v_00000003Ev = comdat any	 ;;;;; 

$_ZN2DD13kk_v_00000004Ev = comdat any	 ;;;;; 

$_ZN2DD13kk_v_00000005Ev = comdat any	 ;;;;; 

$_ZN2DD13hh_v_00000000Ev = comdat any	 ;;;;; 

$_ZN2DD13hh_v_00000001Ev = comdat any	 ;;;;; 

$_ZN2DD13hh_v_00000002Ev = comdat any	 ;;;;; 

$_ZN2DD13hh_v_00000003Ev = comdat any	 ;;;;; 

$_ZN2DD13hh_v_00000004Ev = comdat any	 ;;;;; 

$_ZN2DD13hh_v_00000005Ev = comdat any	 ;;;;; 

$_ZN2DD13hh_v_00000006Ev = comdat any	 ;;;;; 

$_ZN2DD13hh_v_00000007Ev = comdat any	 ;;;;; 

$_ZN2DD13hh_v_00000008Ev = comdat any	 ;;;;; 

$_ZN2DD13hh_v_00000009Ev = comdat any	 ;;;;; 

$_ZN2DD13hh_v_00000010Ev = comdat any	 ;;;;; 

$_ZN2DD13ff_v_00000000Ev = comdat any	 ;;;;; 

$_ZN2DD13ff_v_00000001Ev = comdat any	 ;;;;; 

$_ZN2DD13ff_v_00000002Ev = comdat any	 ;;;;; 

$_ZN2DD13ff_v_00000003Ev = comdat any	 ;;;;; 

$_ZN2DD13ff_v_00000004Ev = comdat any	 ;;;;; 

$_ZN2DD13ff_v_00000005Ev = comdat any	 ;;;;; 

$_ZN2DD13ff_v_00000006Ev = comdat any	 ;;;;; 

$_ZN2DD13ff_v_00000007Ev = comdat any	 ;;;;; 

$_ZN2DD13ff_v_00000008Ev = comdat any	 ;;;;; 

$_ZN2DD13ff_v_00000009Ev = comdat any	 ;;;;; 

$_ZN2DD13ff_v_00000010Ev = comdat any	 ;;;;; 

$_ZN2DD13ff_v_00000011Ev = comdat any	 ;;;;; 

$_ZN2DD13ff_v_00000012Ev = comdat any	 ;;;;; 

$_ZN2DD13ff_v_00000013Ev = comdat any	 ;;;;; 

$_ZN2DD13ff_v_00000014Ev = comdat any	 ;;;;; 

$_ZN2DD13ff_v_00000015Ev = comdat any	 ;;;;; 

$_ZN2DD13ff_v_00000016Ev = comdat any	 ;;;;; 

$_ZN2DD13ff_v_00000017Ev = comdat any	 ;;;;; 

$_ZN2DD13ff_v_00000018Ev = comdat any	 ;;;;; 

$_ZN2DD13ff_v_00000019Ev = comdat any	 ;;;;; 

$_ZN2DD13ff_v_00000020Ev = comdat any	 ;;;;; 

$_ZN2DD13ff_v_00000021Ev = comdat any	 ;;;;; 

$_ZN2DD13ff_v_00000022Ev = comdat any	 ;;;;; 

$_ZN2DD13ff_v_00000023Ev = comdat any	 ;;;;; 

$_ZN2DD13ff_v_00000024Ev = comdat any	 ;;;;; 

$_ZN2DD13ff_v_00000025Ev = comdat any	 ;;;;; 

$_ZN2DD13ff_v_00000026Ev = comdat any	 ;;;;; 

$_ZN2DD13ff_v_00000027Ev = comdat any	 ;;;;; 

$_ZN2DD13ff_v_00000028Ev = comdat any	 ;;;;; 

$_ZN2DD13ff_v_00000029Ev = comdat any	 ;;;;; 

$_ZThn16_N2DD13hh_v_00000000Ev = comdat any	 ;;;;; 

$_ZThn16_N2DD13hh_v_00000001Ev = comdat any	 ;;;;; 

$_ZThn16_N2DD13hh_v_00000002Ev = comdat any	 ;;;;; 

$_ZThn16_N2DD13hh_v_00000003Ev = comdat any	 ;;;;; 

$_ZThn16_N2DD13hh_v_00000004Ev = comdat any	 ;;;;; 

$_ZThn16_N2DD13hh_v_00000005Ev = comdat any	 ;;;;; 

$_ZThn16_N2DD13hh_v_00000006Ev = comdat any	 ;;;;; 

$_ZThn16_N2DD13hh_v_00000007Ev = comdat any	 ;;;;; 

$_ZThn16_N2DD13hh_v_00000008Ev = comdat any	 ;;;;; 

$_ZThn16_N2DD13hh_v_00000009Ev = comdat any	 ;;;;; 

$_ZThn16_N2DD13hh_v_00000010Ev = comdat any	 ;;;;; 

$_ZN2CC13hh_v_00000011Ev = comdat any	 ;;;;; 

$_ZN2CC13hh_v_00000012Ev = comdat any	 ;;;;; 

$_ZN2CC13hh_v_00000013Ev = comdat any	 ;;;;; 

$_ZN2CC13hh_v_00000014Ev = comdat any	 ;;;;; 

$_ZN2CC13hh_v_00000015Ev = comdat any	 ;;;;; 

$_ZN2CC13hh_v_00000016Ev = comdat any	 ;;;;; 

$_ZN2CC13hh_v_00000017Ev = comdat any	 ;;;;; 

$_ZN2CC13hh_v_00000018Ev = comdat any	 ;;;;; 

$_ZN2CC13hh_v_00000019Ev = comdat any	 ;;;;; 

$_ZN2CC13hh_v_00000020Ev = comdat any	 ;;;;; 

$_ZN2CC13hh_v_00000021Ev = comdat any	 ;;;;; 

$_ZN2CC13hh_v_00000022Ev = comdat any	 ;;;;; 

$_ZN2CC13hh_v_00000023Ev = comdat any	 ;;;;; 

$_ZN2CC13hh_v_00000024Ev = comdat any	 ;;;;; 

$_ZN2CC13hh_v_00000025Ev = comdat any	 ;;;;; 

$_ZN2CC13hh_v_00000026Ev = comdat any	 ;;;;; 

$_ZN2CC13hh_v_00000027Ev = comdat any	 ;;;;; 

$_ZN2CC13hh_v_00000028Ev = comdat any	 ;;;;; 

$_ZN2CC13hh_v_00000029Ev = comdat any	 ;;;;; 

$_ZTv0_n24_N2DD13kk_v_00000000Ev = comdat any	 ;;;;; 

$_ZTv0_n32_N2DD13kk_v_00000001Ev = comdat any	 ;;;;; 

$_ZTv0_n40_N2DD13kk_v_00000002Ev = comdat any	 ;;;;; 

$_ZTv0_n48_N2DD13kk_v_00000003Ev = comdat any	 ;;;;; 

$_ZTv0_n56_N2DD13kk_v_00000004Ev = comdat any	 ;;;;; 

$_ZTv0_n64_N2DD13kk_v_00000005Ev = comdat any	 ;;;;; 

$_ZN2AA13kk_v_00000006Ev = comdat any	 ;;;;; 

$_ZN2AA13kk_v_00000007Ev = comdat any	 ;;;;; 

$_ZN2AA13kk_v_00000008Ev = comdat any	 ;;;;; 

$_ZN2AA13kk_v_00000009Ev = comdat any	 ;;;;; 

$_ZN2AA13kk_v_00000010Ev = comdat any	 ;;;;; 

$_ZN2AA13kk_v_00000011Ev = comdat any	 ;;;;; 

$_ZN2AA13kk_v_00000012Ev = comdat any	 ;;;;; 

$_ZN2AA13kk_v_00000013Ev = comdat any	 ;;;;; 

$_ZN2AA13kk_v_00000014Ev = comdat any	 ;;;;; 

$_ZN2AA13kk_v_00000015Ev = comdat any	 ;;;;; 

$_ZN2AA13kk_v_00000016Ev = comdat any	 ;;;;; 

$_ZN2AA13kk_v_00000017Ev = comdat any	 ;;;;; 

$_ZN2AA13kk_v_00000018Ev = comdat any	 ;;;;; 

$_ZN2AA13kk_v_00000019Ev = comdat any	 ;;;;; 

$_ZN2AA13kk_v_00000020Ev = comdat any	 ;;;;; 

$_ZN2AA13kk_v_00000021Ev = comdat any	 ;;;;; 

$_ZN2AA13kk_v_00000022Ev = comdat any	 ;;;;; 

$_ZN2AA13kk_v_00000023Ev = comdat any	 ;;;;; 

$_ZN2AA13kk_v_00000024Ev = comdat any	 ;;;;; 

$_ZN2AA13kk_v_00000025Ev = comdat any	 ;;;;; 

$_ZN2AA13kk_v_00000026Ev = comdat any	 ;;;;; 

$_ZN2AA13kk_v_00000027Ev = comdat any	 ;;;;; 

$_ZN2AA13kk_v_00000028Ev = comdat any	 ;;;;; 

$_ZN2AA13kk_v_00000029Ev = comdat any	 ;;;;; 

$_ZN2CC13hh_v_00000000Ev = comdat any	 ;;;;; 

$_ZN2CC13hh_v_00000001Ev = comdat any	 ;;;;; 

$_ZN2CC13hh_v_00000002Ev = comdat any	 ;;;;; 

$_ZN2CC13hh_v_00000003Ev = comdat any	 ;;;;; 

$_ZN2CC13hh_v_00000004Ev = comdat any	 ;;;;; 

$_ZN2CC13hh_v_00000005Ev = comdat any	 ;;;;; 

$_ZN2CC13hh_v_00000006Ev = comdat any	 ;;;;; 

$_ZN2CC13hh_v_00000007Ev = comdat any	 ;;;;; 

$_ZN2CC13hh_v_00000008Ev = comdat any	 ;;;;; 

$_ZN2CC13hh_v_00000009Ev = comdat any	 ;;;;; 

$_ZN2CC13hh_v_00000010Ev = comdat any	 ;;;;; 

$_ZN2AA13kk_v_00000000Ev = comdat any	 ;;;;; 

$_ZN2AA13kk_v_00000001Ev = comdat any	 ;;;;; 

$_ZN2AA13kk_v_00000002Ev = comdat any	 ;;;;; 

$_ZN2AA13kk_v_00000003Ev = comdat any	 ;;;;; 

$_ZN2AA13kk_v_00000004Ev = comdat any	 ;;;;; 

$_ZN2AA13kk_v_00000005Ev = comdat any	 ;;;;; 

$_ZN2BB13gg_v_00000000Ev = comdat any	 ;;;;; 

$_ZN2BB13gg_v_00000001Ev = comdat any	 ;;;;; 

$_ZN2BB13gg_v_00000002Ev = comdat any	 ;;;;; 

$_ZN2BB13gg_v_00000003Ev = comdat any	 ;;;;; 

$_ZN2BB13gg_v_00000004Ev = comdat any	 ;;;;; 

$_ZN2BB13gg_v_00000005Ev = comdat any	 ;;;;; 

$_ZN2BB13gg_v_00000006Ev = comdat any	 ;;;;; 

$_ZN2BB13gg_v_00000007Ev = comdat any	 ;;;;; 

$_ZN2BB13gg_v_00000008Ev = comdat any	 ;;;;; 

$_ZN2BB13gg_v_00000009Ev = comdat any	 ;;;;; 

$_ZN2BB13gg_v_00000010Ev = comdat any	 ;;;;; 

$_ZN2BB13gg_v_00000011Ev = comdat any	 ;;;;; 

$_ZN2BB13gg_v_00000012Ev = comdat any	 ;;;;; 

$_ZN2BB13gg_v_00000013Ev = comdat any	 ;;;;; 

$_ZN2BB13gg_v_00000014Ev = comdat any	 ;;;;; 

$_ZTV2DD = comdat any	 ;;;;; 

$_ZTT2DD = comdat any	 ;;;;; 

$_ZTC2DD0_2BB = comdat any	 ;;;;; 

$_ZTS2BB = comdat any	 ;;;;; 

$_ZTS2AA = comdat any	 ;;;;; 

$_ZTI2AA = comdat any	 ;;;;; 

$_ZTI2BB = comdat any	 ;;;;; 

$_ZTC2DD16_2CC = comdat any	 ;;;;; 

$_ZTS2CC = comdat any	 ;;;;; 

$_ZTI2CC = comdat any	 ;;;;; 

$_ZTS2DD = comdat any	 ;;;;; 

$_ZTI2DD = comdat any	 ;;;;; 

$_ZTV2AA = comdat any	 ;;;;; 

@_ZTV2DD = linkonce_odr dso_local unnamed_addr constant { [80 x i8*], [33 x i8*], [62 x i8*] } { [80 x i8*] [i8* inttoptr (i64 40 to i8*), i8* null, i8* bitcast ({ i8*, i8*, i32, i32, i8*, i64, i8*, i64 }* @_ZTI2DD to i8*), i8* bitcast (void (%class.DD*)* @_ZN2DD13gg_v_00000000Ev to i8*), i8* bitcast (void (%class.DD*)* @_ZN2DD13gg_v_00000001Ev to i8*), i8* bitcast (void (%class.DD*)* @_ZN2DD13gg_v_00000002Ev to i8*), i8* bitcast (void (%class.DD*)* @_ZN2DD13gg_v_00000003Ev to i8*), i8* bitcast (void (%class.DD*)* @_ZN2DD13gg_v_00000004Ev to i8*), i8* bitcast (void (%class.DD*)* @_ZN2DD13gg_v_00000005Ev to i8*), i8* bitcast (void (%class.DD*)* @_ZN2DD13gg_v_00000006Ev to i8*), i8* bitcast (void (%class.DD*)* @_ZN2DD13gg_v_00000007Ev to i8*), i8* bitcast (void (%class.DD*)* @_ZN2DD13gg_v_00000008Ev to i8*), i8* bitcast (void (%class.DD*)* @_ZN2DD13gg_v_00000009Ev to i8*), i8* bitcast (void (%class.DD*)* @_ZN2DD13gg_v_00000010Ev to i8*), i8* bitcast (void (%class.DD*)* @_ZN2DD13gg_v_00000011Ev to i8*), i8* bitcast (void (%class.DD*)* @_ZN2DD13gg_v_00000012Ev to i8*), i8* bitcast (void (%class.DD*)* @_ZN2DD13gg_v_00000013Ev to i8*), i8* bitcast (void (%class.DD*)* @_ZN2DD13gg_v_00000014Ev to i8*), i8* bitcast (void (%class.BB*)* @_ZN2BB13gg_v_00000015Ev to i8*), i8* bitcast (void (%class.BB*)* @_ZN2BB13gg_v_00000016Ev to i8*), i8* bitcast (void (%class.BB*)* @_ZN2BB13gg_v_00000017Ev to i8*), i8* bitcast (void (%class.BB*)* @_ZN2BB13gg_v_00000018Ev to i8*), i8* bitcast (void (%class.BB*)* @_ZN2BB13gg_v_00000019Ev to i8*), i8* bitcast (void (%class.BB*)* @_ZN2BB13gg_v_00000020Ev to i8*), i8* bitcast (void (%class.BB*)* @_ZN2BB13gg_v_00000021Ev to i8*), i8* bitcast (void (%class.BB*)* @_ZN2BB13gg_v_00000022Ev to i8*), i8* bitcast (void (%class.BB*)* @_ZN2BB13gg_v_00000023Ev to i8*), i8* bitcast (void (%class.BB*)* @_ZN2BB13gg_v_00000024Ev to i8*), i8* bitcast (void (%class.BB*)* @_ZN2BB13gg_v_00000025Ev to i8*), i8* bitcast (void (%class.BB*)* @_ZN2BB13gg_v_00000026Ev to i8*), i8* bitcast (void (%class.BB*)* @_ZN2BB13gg_v_00000027Ev to i8*), i8* bitcast (void (%class.BB*)* @_ZN2BB13gg_v_00000028Ev to i8*), i8* bitcast (void (%class.BB*)* @_ZN2BB13gg_v_00000029Ev to i8*), i8* bitcast (void (%class.DD*)* @_ZN2DD13kk_v_00000000Ev to i8*), i8* bitcast (void (%class.DD*)* @_ZN2DD13kk_v_00000001Ev to i8*), i8* bitcast (void (%class.DD*)* @_ZN2DD13kk_v_00000002Ev to i8*), i8* bitcast (void (%class.DD*)* @_ZN2DD13kk_v_00000003Ev to i8*), i8* bitcast (void (%class.DD*)* @_ZN2DD13kk_v_00000004Ev to i8*), i8* bitcast (void (%class.DD*)* @_ZN2DD13kk_v_00000005Ev to i8*), i8* bitcast (void (%class.DD*)* @_ZN2DD13hh_v_00000000Ev to i8*), i8* bitcast (void (%class.DD*)* @_ZN2DD13hh_v_00000001Ev to i8*), i8* bitcast (void (%class.DD*)* @_ZN2DD13hh_v_00000002Ev to i8*), i8* bitcast (void (%class.DD*)* @_ZN2DD13hh_v_00000003Ev to i8*), i8* bitcast (void (%class.DD*)* @_ZN2DD13hh_v_00000004Ev to i8*), i8* bitcast (void (%class.DD*)* @_ZN2DD13hh_v_00000005Ev to i8*), i8* bitcast (void (%class.DD*)* @_ZN2DD13hh_v_00000006Ev to i8*), i8* bitcast (void (%class.DD*)* @_ZN2DD13hh_v_00000007Ev to i8*), i8* bitcast (void (%class.DD*)* @_ZN2DD13hh_v_00000008Ev to i8*), i8* bitcast (void (%class.DD*)* @_ZN2DD13hh_v_00000009Ev to i8*), i8* bitcast (void (%class.DD*)* @_ZN2DD13hh_v_00000010Ev to i8*), i8* bitcast (void (%class.DD*)* @_ZN2DD13ff_v_00000000Ev to i8*), i8* bitcast (void (%class.DD*)* @_ZN2DD13ff_v_00000001Ev to i8*), i8* bitcast (void (%class.DD*)* @_ZN2DD13ff_v_00000002Ev to i8*), i8* bitcast (void (%class.DD*)* @_ZN2DD13ff_v_00000003Ev to i8*), i8* bitcast (void (%class.DD*)* @_ZN2DD13ff_v_00000004Ev to i8*), i8* bitcast (void (%class.DD*)* @_ZN2DD13ff_v_00000005Ev to i8*), i8* bitcast (void (%class.DD*)* @_ZN2DD13ff_v_00000006Ev to i8*), i8* bitcast (void (%class.DD*)* @_ZN2DD13ff_v_00000007Ev to i8*), i8* bitcast (void (%class.DD*)* @_ZN2DD13ff_v_00000008Ev to i8*), i8* bitcast (void (%class.DD*)* @_ZN2DD13ff_v_00000009Ev to i8*), i8* bitcast (void (%class.DD*)* @_ZN2DD13ff_v_00000010Ev to i8*), i8* bitcast (void (%class.DD*)* @_ZN2DD13ff_v_00000011Ev to i8*), i8* bitcast (void (%class.DD*)* @_ZN2DD13ff_v_00000012Ev to i8*), i8* bitcast (void (%class.DD*)* @_ZN2DD13ff_v_00000013Ev to i8*), i8* bitcast (void (%class.DD*)* @_ZN2DD13ff_v_00000014Ev to i8*), i8* bitcast (void (%class.DD*)* @_ZN2DD13ff_v_00000015Ev to i8*), i8* bitcast (void (%class.DD*)* @_ZN2DD13ff_v_00000016Ev to i8*), i8* bitcast (void (%class.DD*)* @_ZN2DD13ff_v_00000017Ev to i8*), i8* bitcast (void (%class.DD*)* @_ZN2DD13ff_v_00000018Ev to i8*), i8* bitcast (void (%class.DD*)* @_ZN2DD13ff_v_00000019Ev to i8*), i8* bitcast (void (%class.DD*)* @_ZN2DD13ff_v_00000020Ev to i8*), i8* bitcast (void (%class.DD*)* @_ZN2DD13ff_v_00000021Ev to i8*), i8* bitcast (void (%class.DD*)* @_ZN2DD13ff_v_00000022Ev to i8*), i8* bitcast (void (%class.DD*)* @_ZN2DD13ff_v_00000023Ev to i8*), i8* bitcast (void (%class.DD*)* @_ZN2DD13ff_v_00000024Ev to i8*), i8* bitcast (void (%class.DD*)* @_ZN2DD13ff_v_00000025Ev to i8*), i8* bitcast (void (%class.DD*)* @_ZN2DD13ff_v_00000026Ev to i8*), i8* bitcast (void (%class.DD*)* @_ZN2DD13ff_v_00000027Ev to i8*), i8* bitcast (void (%class.DD*)* @_ZN2DD13ff_v_00000028Ev to i8*), i8* bitcast (void (%class.DD*)* @_ZN2DD13ff_v_00000029Ev to i8*)], [33 x i8*] [i8* inttoptr (i64 24 to i8*), i8* inttoptr (i64 -16 to i8*), i8* bitcast ({ i8*, i8*, i32, i32, i8*, i64, i8*, i64 }* @_ZTI2DD to i8*), i8* bitcast (void (%class.DD*)* @_ZThn16_N2DD13hh_v_00000000Ev to i8*), i8* bitcast (void (%class.DD*)* @_ZThn16_N2DD13hh_v_00000001Ev to i8*), i8* bitcast (void (%class.DD*)* @_ZThn16_N2DD13hh_v_00000002Ev to i8*), i8* bitcast (void (%class.DD*)* @_ZThn16_N2DD13hh_v_00000003Ev to i8*), i8* bitcast (void (%class.DD*)* @_ZThn16_N2DD13hh_v_00000004Ev to i8*), i8* bitcast (void (%class.DD*)* @_ZThn16_N2DD13hh_v_00000005Ev to i8*), i8* bitcast (void (%class.DD*)* @_ZThn16_N2DD13hh_v_00000006Ev to i8*), i8* bitcast (void (%class.DD*)* @_ZThn16_N2DD13hh_v_00000007Ev to i8*), i8* bitcast (void (%class.DD*)* @_ZThn16_N2DD13hh_v_00000008Ev to i8*), i8* bitcast (void (%class.DD*)* @_ZThn16_N2DD13hh_v_00000009Ev to i8*), i8* bitcast (void (%class.DD*)* @_ZThn16_N2DD13hh_v_00000010Ev to i8*), i8* bitcast (void (%class.CC*)* @_ZN2CC13hh_v_00000011Ev to i8*), i8* bitcast (void (%class.CC*)* @_ZN2CC13hh_v_00000012Ev to i8*), i8* bitcast (void (%class.CC*)* @_ZN2CC13hh_v_00000013Ev to i8*), i8* bitcast (void (%class.CC*)* @_ZN2CC13hh_v_00000014Ev to i8*), i8* bitcast (void (%class.CC*)* @_ZN2CC13hh_v_00000015Ev to i8*), i8* bitcast (void (%class.CC*)* @_ZN2CC13hh_v_00000016Ev to i8*), i8* bitcast (void (%class.CC*)* @_ZN2CC13hh_v_00000017Ev to i8*), i8* bitcast (void (%class.CC*)* @_ZN2CC13hh_v_00000018Ev to i8*), i8* bitcast (void (%class.CC*)* @_ZN2CC13hh_v_00000019Ev to i8*), i8* bitcast (void (%class.CC*)* @_ZN2CC13hh_v_00000020Ev to i8*), i8* bitcast (void (%class.CC*)* @_ZN2CC13hh_v_00000021Ev to i8*), i8* bitcast (void (%class.CC*)* @_ZN2CC13hh_v_00000022Ev to i8*), i8* bitcast (void (%class.CC*)* @_ZN2CC13hh_v_00000023Ev to i8*), i8* bitcast (void (%class.CC*)* @_ZN2CC13hh_v_00000024Ev to i8*), i8* bitcast (void (%class.CC*)* @_ZN2CC13hh_v_00000025Ev to i8*), i8* bitcast (void (%class.CC*)* @_ZN2CC13hh_v_00000026Ev to i8*), i8* bitcast (void (%class.CC*)* @_ZN2CC13hh_v_00000027Ev to i8*), i8* bitcast (void (%class.CC*)* @_ZN2CC13hh_v_00000028Ev to i8*), i8* bitcast (void (%class.CC*)* @_ZN2CC13hh_v_00000029Ev to i8*)], [62 x i8*] [i8* null, i8* null, i8* null, i8* null, i8* null, i8* null, i8* null, i8* null, i8* null, i8* null, i8* null, i8* null, i8* null, i8* null, i8* null, i8* null, i8* null, i8* null, i8* null, i8* null, i8* null, i8* null, i8* null, i8* null, i8* inttoptr (i64 -40 to i8*), i8* inttoptr (i64 -40 to i8*), i8* inttoptr (i64 -40 to i8*), i8* inttoptr (i64 -40 to i8*), i8* inttoptr (i64 -40 to i8*), i8* inttoptr (i64 -40 to i8*), i8* inttoptr (i64 -40 to i8*), i8* bitcast ({ i8*, i8*, i32, i32, i8*, i64, i8*, i64 }* @_ZTI2DD to i8*), i8* bitcast (void (%class.DD*)* @_ZTv0_n24_N2DD13kk_v_00000000Ev to i8*), i8* bitcast (void (%class.DD*)* @_ZTv0_n32_N2DD13kk_v_00000001Ev to i8*), i8* bitcast (void (%class.DD*)* @_ZTv0_n40_N2DD13kk_v_00000002Ev to i8*), i8* bitcast (void (%class.DD*)* @_ZTv0_n48_N2DD13kk_v_00000003Ev to i8*), i8* bitcast (void (%class.DD*)* @_ZTv0_n56_N2DD13kk_v_00000004Ev to i8*), i8* bitcast (void (%class.DD*)* @_ZTv0_n64_N2DD13kk_v_00000005Ev to i8*), i8* bitcast (void (%class.AA*)* @_ZN2AA13kk_v_00000006Ev to i8*), i8* bitcast (void (%class.AA*)* @_ZN2AA13kk_v_00000007Ev to i8*), i8* bitcast (void (%class.AA*)* @_ZN2AA13kk_v_00000008Ev to i8*), i8* bitcast (void (%class.AA*)* @_ZN2AA13kk_v_00000009Ev to i8*), i8* bitcast (void (%class.AA*)* @_ZN2AA13kk_v_00000010Ev to i8*), i8* bitcast (void (%class.AA*)* @_ZN2AA13kk_v_00000011Ev to i8*), i8* bitcast (void (%class.AA*)* @_ZN2AA13kk_v_00000012Ev to i8*), i8* bitcast (void (%class.AA*)* @_ZN2AA13kk_v_00000013Ev to i8*), i8* bitcast (void (%class.AA*)* @_ZN2AA13kk_v_00000014Ev to i8*), i8* bitcast (void (%class.AA*)* @_ZN2AA13kk_v_00000015Ev to i8*), i8* bitcast (void (%class.AA*)* @_ZN2AA13kk_v_00000016Ev to i8*), i8* bitcast (void (%class.AA*)* @_ZN2AA13kk_v_00000017Ev to i8*), i8* bitcast (void (%class.AA*)* @_ZN2AA13kk_v_00000018Ev to i8*), i8* bitcast (void (%class.AA*)* @_ZN2AA13kk_v_00000019Ev to i8*), i8* bitcast (void (%class.AA*)* @_ZN2AA13kk_v_00000020Ev to i8*), i8* bitcast (void (%class.AA*)* @_ZN2AA13kk_v_00000021Ev to i8*), i8* bitcast (void (%class.AA*)* @_ZN2AA13kk_v_00000022Ev to i8*), i8* bitcast (void (%class.AA*)* @_ZN2AA13kk_v_00000023Ev to i8*), i8* bitcast (void (%class.AA*)* @_ZN2AA13kk_v_00000024Ev to i8*), i8* bitcast (void (%class.AA*)* @_ZN2AA13kk_v_00000025Ev to i8*), i8* bitcast (void (%class.AA*)* @_ZN2AA13kk_v_00000026Ev to i8*), i8* bitcast (void (%class.AA*)* @_ZN2AA13kk_v_00000027Ev to i8*), i8* bitcast (void (%class.AA*)* @_ZN2AA13kk_v_00000028Ev to i8*), i8* bitcast (void (%class.AA*)* @_ZN2AA13kk_v_00000029Ev to i8*)] }, comdat, align 8	 ;;;;; 
@_ZTT2DD = linkonce_odr dso_local unnamed_addr constant [7 x i8*] [i8* bitcast (i8** getelementptr inbounds ({ [80 x i8*], [33 x i8*], [62 x i8*] }, { [80 x i8*], [33 x i8*], [62 x i8*] }* @_ZTV2DD, i32 0, inrange i32 0, i32 3) to i8*), i8* bitcast (i8** getelementptr inbounds ({ [33 x i8*], [62 x i8*] }, { [33 x i8*], [62 x i8*] }* @_ZTC2DD0_2BB, i32 0, inrange i32 0, i32 3) to i8*), i8* bitcast (i8** getelementptr inbounds ({ [33 x i8*], [62 x i8*] }, { [33 x i8*], [62 x i8*] }* @_ZTC2DD0_2BB, i32 0, inrange i32 1, i32 32) to i8*), i8* bitcast (i8** getelementptr inbounds ({ [33 x i8*], [62 x i8*] }, { [33 x i8*], [62 x i8*] }* @_ZTC2DD16_2CC, i32 0, inrange i32 0, i32 3) to i8*), i8* bitcast (i8** getelementptr inbounds ({ [33 x i8*], [62 x i8*] }, { [33 x i8*], [62 x i8*] }* @_ZTC2DD16_2CC, i32 0, inrange i32 1, i32 32) to i8*), i8* bitcast (i8** getelementptr inbounds ({ [80 x i8*], [33 x i8*], [62 x i8*] }, { [80 x i8*], [33 x i8*], [62 x i8*] }* @_ZTV2DD, i32 0, inrange i32 2, i32 32) to i8*), i8* bitcast (i8** getelementptr inbounds ({ [80 x i8*], [33 x i8*], [62 x i8*] }, { [80 x i8*], [33 x i8*], [62 x i8*] }* @_ZTV2DD, i32 0, inrange i32 1, i32 3) to i8*)], comdat, align 8	 ;;;;; 
@_ZTC2DD0_2BB = linkonce_odr dso_local unnamed_addr constant { [33 x i8*], [62 x i8*] } { [33 x i8*] [i8* inttoptr (i64 40 to i8*), i8* null, i8* bitcast ({ i8*, i8*, i32, i32, i8*, i64 }* @_ZTI2BB to i8*), i8* bitcast (void (%class.BB*)* @_ZN2BB13gg_v_00000000Ev to i8*), i8* bitcast (void (%class.BB*)* @_ZN2BB13gg_v_00000001Ev to i8*), i8* bitcast (void (%class.BB*)* @_ZN2BB13gg_v_00000002Ev to i8*), i8* bitcast (void (%class.BB*)* @_ZN2BB13gg_v_00000003Ev to i8*), i8* bitcast (void (%class.BB*)* @_ZN2BB13gg_v_00000004Ev to i8*), i8* bitcast (void (%class.BB*)* @_ZN2BB13gg_v_00000005Ev to i8*), i8* bitcast (void (%class.BB*)* @_ZN2BB13gg_v_00000006Ev to i8*), i8* bitcast (void (%class.BB*)* @_ZN2BB13gg_v_00000007Ev to i8*), i8* bitcast (void (%class.BB*)* @_ZN2BB13gg_v_00000008Ev to i8*), i8* bitcast (void (%class.BB*)* @_ZN2BB13gg_v_00000009Ev to i8*), i8* bitcast (void (%class.BB*)* @_ZN2BB13gg_v_00000010Ev to i8*), i8* bitcast (void (%class.BB*)* @_ZN2BB13gg_v_00000011Ev to i8*), i8* bitcast (void (%class.BB*)* @_ZN2BB13gg_v_00000012Ev to i8*), i8* bitcast (void (%class.BB*)* @_ZN2BB13gg_v_00000013Ev to i8*), i8* bitcast (void (%class.BB*)* @_ZN2BB13gg_v_00000014Ev to i8*), i8* bitcast (void (%class.BB*)* @_ZN2BB13gg_v_00000015Ev to i8*), i8* bitcast (void (%class.BB*)* @_ZN2BB13gg_v_00000016Ev to i8*), i8* bitcast (void (%class.BB*)* @_ZN2BB13gg_v_00000017Ev to i8*), i8* bitcast (void (%class.BB*)* @_ZN2BB13gg_v_00000018Ev to i8*), i8* bitcast (void (%class.BB*)* @_ZN2BB13gg_v_00000019Ev to i8*), i8* bitcast (void (%class.BB*)* @_ZN2BB13gg_v_00000020Ev to i8*), i8* bitcast (void (%class.BB*)* @_ZN2BB13gg_v_00000021Ev to i8*), i8* bitcast (void (%class.BB*)* @_ZN2BB13gg_v_00000022Ev to i8*), i8* bitcast (void (%class.BB*)* @_ZN2BB13gg_v_00000023Ev to i8*), i8* bitcast (void (%class.BB*)* @_ZN2BB13gg_v_00000024Ev to i8*), i8* bitcast (void (%class.BB*)* @_ZN2BB13gg_v_00000025Ev to i8*), i8* bitcast (void (%class.BB*)* @_ZN2BB13gg_v_00000026Ev to i8*), i8* bitcast (void (%class.BB*)* @_ZN2BB13gg_v_00000027Ev to i8*), i8* bitcast (void (%class.BB*)* @_ZN2BB13gg_v_00000028Ev to i8*), i8* bitcast (void (%class.BB*)* @_ZN2BB13gg_v_00000029Ev to i8*)], [62 x i8*] [i8* null, i8* null, i8* null, i8* null, i8* null, i8* null, i8* null, i8* null, i8* null, i8* null, i8* null, i8* null, i8* null, i8* null, i8* null, i8* null, i8* null, i8* null, i8* null, i8* null, i8* null, i8* null, i8* null, i8* null, i8* null, i8* null, i8* null, i8* null, i8* null, i8* null, i8* inttoptr (i64 -40 to i8*), i8* bitcast ({ i8*, i8*, i32, i32, i8*, i64 }* @_ZTI2BB to i8*), i8* bitcast (void (%class.AA*)* @_ZN2AA13kk_v_00000000Ev to i8*), i8* bitcast (void (%class.AA*)* @_ZN2AA13kk_v_00000001Ev to i8*), i8* bitcast (void (%class.AA*)* @_ZN2AA13kk_v_00000002Ev to i8*), i8* bitcast (void (%class.AA*)* @_ZN2AA13kk_v_00000003Ev to i8*), i8* bitcast (void (%class.AA*)* @_ZN2AA13kk_v_00000004Ev to i8*), i8* bitcast (void (%class.AA*)* @_ZN2AA13kk_v_00000005Ev to i8*), i8* bitcast (void (%class.AA*)* @_ZN2AA13kk_v_00000006Ev to i8*), i8* bitcast (void (%class.AA*)* @_ZN2AA13kk_v_00000007Ev to i8*), i8* bitcast (void (%class.AA*)* @_ZN2AA13kk_v_00000008Ev to i8*), i8* bitcast (void (%class.AA*)* @_ZN2AA13kk_v_00000009Ev to i8*), i8* bitcast (void (%class.AA*)* @_ZN2AA13kk_v_00000010Ev to i8*), i8* bitcast (void (%class.AA*)* @_ZN2AA13kk_v_00000011Ev to i8*), i8* bitcast (void (%class.AA*)* @_ZN2AA13kk_v_00000012Ev to i8*), i8* bitcast (void (%class.AA*)* @_ZN2AA13kk_v_00000013Ev to i8*), i8* bitcast (void (%class.AA*)* @_ZN2AA13kk_v_00000014Ev to i8*), i8* bitcast (void (%class.AA*)* @_ZN2AA13kk_v_00000015Ev to i8*), i8* bitcast (void (%class.AA*)* @_ZN2AA13kk_v_00000016Ev to i8*), i8* bitcast (void (%class.AA*)* @_ZN2AA13kk_v_00000017Ev to i8*), i8* bitcast (void (%class.AA*)* @_ZN2AA13kk_v_00000018Ev to i8*), i8* bitcast (void (%class.AA*)* @_ZN2AA13kk_v_00000019Ev to i8*), i8* bitcast (void (%class.AA*)* @_ZN2AA13kk_v_00000020Ev to i8*), i8* bitcast (void (%class.AA*)* @_ZN2AA13kk_v_00000021Ev to i8*), i8* bitcast (void (%class.AA*)* @_ZN2AA13kk_v_00000022Ev to i8*), i8* bitcast (void (%class.AA*)* @_ZN2AA13kk_v_00000023Ev to i8*), i8* bitcast (void (%class.AA*)* @_ZN2AA13kk_v_00000024Ev to i8*), i8* bitcast (void (%class.AA*)* @_ZN2AA13kk_v_00000025Ev to i8*), i8* bitcast (void (%class.AA*)* @_ZN2AA13kk_v_00000026Ev to i8*), i8* bitcast (void (%class.AA*)* @_ZN2AA13kk_v_00000027Ev to i8*), i8* bitcast (void (%class.AA*)* @_ZN2AA13kk_v_00000028Ev to i8*), i8* bitcast (void (%class.AA*)* @_ZN2AA13kk_v_00000029Ev to i8*)] }, comdat, align 8	 ;;;;; 
@_ZTVN10__cxxabiv121__vmi_class_type_infoE = external dso_local global i8*	 ;;;;; 
@_ZTS2BB = linkonce_odr dso_local constant [4 x i8] c"2BB\00", comdat, align 1	 ;;;;; 
@_ZTVN10__cxxabiv117__class_type_infoE = external dso_local global i8*	 ;;;;; 
@_ZTS2AA = linkonce_odr dso_local constant [4 x i8] c"2AA\00", comdat, align 1	 ;;;;; 
@_ZTI2AA = linkonce_odr dso_local constant { i8*, i8* } { i8* bitcast (i8** getelementptr inbounds (i8*, i8** @_ZTVN10__cxxabiv117__class_type_infoE, i64 2) to i8*), i8* getelementptr inbounds ([4 x i8], [4 x i8]* @_ZTS2AA, i32 0, i32 0) }, comdat, align 8	 ;;;;; 
@_ZTI2BB = linkonce_odr dso_local constant { i8*, i8*, i32, i32, i8*, i64 } { i8* bitcast (i8** getelementptr inbounds (i8*, i8** @_ZTVN10__cxxabiv121__vmi_class_type_infoE, i64 2) to i8*), i8* getelementptr inbounds ([4 x i8], [4 x i8]* @_ZTS2BB, i32 0, i32 0), i32 0, i32 1, i8* bitcast ({ i8*, i8* }* @_ZTI2AA to i8*), i64 -6141 }, comdat, align 8	 ;;;;; 
@_ZTC2DD16_2CC = linkonce_odr dso_local unnamed_addr constant { [33 x i8*], [62 x i8*] } { [33 x i8*] [i8* inttoptr (i64 24 to i8*), i8* null, i8* bitcast ({ i8*, i8*, i32, i32, i8*, i64 }* @_ZTI2CC to i8*), i8* bitcast (void (%class.CC*)* @_ZN2CC13hh_v_00000000Ev to i8*), i8* bitcast (void (%class.CC*)* @_ZN2CC13hh_v_00000001Ev to i8*), i8* bitcast (void (%class.CC*)* @_ZN2CC13hh_v_00000002Ev to i8*), i8* bitcast (void (%class.CC*)* @_ZN2CC13hh_v_00000003Ev to i8*), i8* bitcast (void (%class.CC*)* @_ZN2CC13hh_v_00000004Ev to i8*), i8* bitcast (void (%class.CC*)* @_ZN2CC13hh_v_00000005Ev to i8*), i8* bitcast (void (%class.CC*)* @_ZN2CC13hh_v_00000006Ev to i8*), i8* bitcast (void (%class.CC*)* @_ZN2CC13hh_v_00000007Ev to i8*), i8* bitcast (void (%class.CC*)* @_ZN2CC13hh_v_00000008Ev to i8*), i8* bitcast (void (%class.CC*)* @_ZN2CC13hh_v_00000009Ev to i8*), i8* bitcast (void (%class.CC*)* @_ZN2CC13hh_v_00000010Ev to i8*), i8* bitcast (void (%class.CC*)* @_ZN2CC13hh_v_00000011Ev to i8*), i8* bitcast (void (%class.CC*)* @_ZN2CC13hh_v_00000012Ev to i8*), i8* bitcast (void (%class.CC*)* @_ZN2CC13hh_v_00000013Ev to i8*), i8* bitcast (void (%class.CC*)* @_ZN2CC13hh_v_00000014Ev to i8*), i8* bitcast (void (%class.CC*)* @_ZN2CC13hh_v_00000015Ev to i8*), i8* bitcast (void (%class.CC*)* @_ZN2CC13hh_v_00000016Ev to i8*), i8* bitcast (void (%class.CC*)* @_ZN2CC13hh_v_00000017Ev to i8*), i8* bitcast (void (%class.CC*)* @_ZN2CC13hh_v_00000018Ev to i8*), i8* bitcast (void (%class.CC*)* @_ZN2CC13hh_v_00000019Ev to i8*), i8* bitcast (void (%class.CC*)* @_ZN2CC13hh_v_00000020Ev to i8*), i8* bitcast (void (%class.CC*)* @_ZN2CC13hh_v_00000021Ev to i8*), i8* bitcast (void (%class.CC*)* @_ZN2CC13hh_v_00000022Ev to i8*), i8* bitcast (void (%class.CC*)* @_ZN2CC13hh_v_00000023Ev to i8*), i8* bitcast (void (%class.CC*)* @_ZN2CC13hh_v_00000024Ev to i8*), i8* bitcast (void (%class.CC*)* @_ZN2CC13hh_v_00000025Ev to i8*), i8* bitcast (void (%class.CC*)* @_ZN2CC13hh_v_00000026Ev to i8*), i8* bitcast (void (%class.CC*)* @_ZN2CC13hh_v_00000027Ev to i8*), i8* bitcast (void (%class.CC*)* @_ZN2CC13hh_v_00000028Ev to i8*), i8* bitcast (void (%class.CC*)* @_ZN2CC13hh_v_00000029Ev to i8*)], [62 x i8*] [i8* null, i8* null, i8* null, i8* null, i8* null, i8* null, i8* null, i8* null, i8* null, i8* null, i8* null, i8* null, i8* null, i8* null, i8* null, i8* null, i8* null, i8* null, i8* null, i8* null, i8* null, i8* null, i8* null, i8* null, i8* null, i8* null, i8* null, i8* null, i8* null, i8* null, i8* inttoptr (i64 -24 to i8*), i8* bitcast ({ i8*, i8*, i32, i32, i8*, i64 }* @_ZTI2CC to i8*), i8* bitcast (void (%class.AA*)* @_ZN2AA13kk_v_00000000Ev to i8*), i8* bitcast (void (%class.AA*)* @_ZN2AA13kk_v_00000001Ev to i8*), i8* bitcast (void (%class.AA*)* @_ZN2AA13kk_v_00000002Ev to i8*), i8* bitcast (void (%class.AA*)* @_ZN2AA13kk_v_00000003Ev to i8*), i8* bitcast (void (%class.AA*)* @_ZN2AA13kk_v_00000004Ev to i8*), i8* bitcast (void (%class.AA*)* @_ZN2AA13kk_v_00000005Ev to i8*), i8* bitcast (void (%class.AA*)* @_ZN2AA13kk_v_00000006Ev to i8*), i8* bitcast (void (%class.AA*)* @_ZN2AA13kk_v_00000007Ev to i8*), i8* bitcast (void (%class.AA*)* @_ZN2AA13kk_v_00000008Ev to i8*), i8* bitcast (void (%class.AA*)* @_ZN2AA13kk_v_00000009Ev to i8*), i8* bitcast (void (%class.AA*)* @_ZN2AA13kk_v_00000010Ev to i8*), i8* bitcast (void (%class.AA*)* @_ZN2AA13kk_v_00000011Ev to i8*), i8* bitcast (void (%class.AA*)* @_ZN2AA13kk_v_00000012Ev to i8*), i8* bitcast (void (%class.AA*)* @_ZN2AA13kk_v_00000013Ev to i8*), i8* bitcast (void (%class.AA*)* @_ZN2AA13kk_v_00000014Ev to i8*), i8* bitcast (void (%class.AA*)* @_ZN2AA13kk_v_00000015Ev to i8*), i8* bitcast (void (%class.AA*)* @_ZN2AA13kk_v_00000016Ev to i8*), i8* bitcast (void (%class.AA*)* @_ZN2AA13kk_v_00000017Ev to i8*), i8* bitcast (void (%class.AA*)* @_ZN2AA13kk_v_00000018Ev to i8*), i8* bitcast (void (%class.AA*)* @_ZN2AA13kk_v_00000019Ev to i8*), i8* bitcast (void (%class.AA*)* @_ZN2AA13kk_v_00000020Ev to i8*), i8* bitcast (void (%class.AA*)* @_ZN2AA13kk_v_00000021Ev to i8*), i8* bitcast (void (%class.AA*)* @_ZN2AA13kk_v_00000022Ev to i8*), i8* bitcast (void (%class.AA*)* @_ZN2AA13kk_v_00000023Ev to i8*), i8* bitcast (void (%class.AA*)* @_ZN2AA13kk_v_00000024Ev to i8*), i8* bitcast (void (%class.AA*)* @_ZN2AA13kk_v_00000025Ev to i8*), i8* bitcast (void (%class.AA*)* @_ZN2AA13kk_v_00000026Ev to i8*), i8* bitcast (void (%class.AA*)* @_ZN2AA13kk_v_00000027Ev to i8*), i8* bitcast (void (%class.AA*)* @_ZN2AA13kk_v_00000028Ev to i8*), i8* bitcast (void (%class.AA*)* @_ZN2AA13kk_v_00000029Ev to i8*)] }, comdat, align 8	 ;;;;; 
@_ZTS2CC = linkonce_odr dso_local constant [4 x i8] c"2CC\00", comdat, align 1	 ;;;;; 
@_ZTI2CC = linkonce_odr dso_local constant { i8*, i8*, i32, i32, i8*, i64 } { i8* bitcast (i8** getelementptr inbounds (i8*, i8** @_ZTVN10__cxxabiv121__vmi_class_type_infoE, i64 2) to i8*), i8* getelementptr inbounds ([4 x i8], [4 x i8]* @_ZTS2CC, i32 0, i32 0), i32 0, i32 1, i8* bitcast ({ i8*, i8* }* @_ZTI2AA to i8*), i64 -6141 }, comdat, align 8	 ;;;;; 
@_ZTS2DD = linkonce_odr dso_local constant [4 x i8] c"2DD\00", comdat, align 1	 ;;;;; 
@_ZTI2DD = linkonce_odr dso_local constant { i8*, i8*, i32, i32, i8*, i64, i8*, i64 } { i8* bitcast (i8** getelementptr inbounds (i8*, i8** @_ZTVN10__cxxabiv121__vmi_class_type_infoE, i64 2) to i8*), i8* getelementptr inbounds ([4 x i8], [4 x i8]* @_ZTS2DD, i32 0, i32 0), i32 2, i32 2, i8* bitcast ({ i8*, i8*, i32, i32, i8*, i64 }* @_ZTI2BB to i8*), i64 2, i8* bitcast ({ i8*, i8*, i32, i32, i8*, i64 }* @_ZTI2CC to i8*), i64 4098 }, comdat, align 8	 ;;;;; 
@_ZTV2AA = linkonce_odr dso_local unnamed_addr constant { [32 x i8*] } { [32 x i8*] [i8* null, i8* bitcast ({ i8*, i8* }* @_ZTI2AA to i8*), i8* bitcast (void (%class.AA*)* @_ZN2AA13kk_v_00000000Ev to i8*), i8* bitcast (void (%class.AA*)* @_ZN2AA13kk_v_00000001Ev to i8*), i8* bitcast (void (%class.AA*)* @_ZN2AA13kk_v_00000002Ev to i8*), i8* bitcast (void (%class.AA*)* @_ZN2AA13kk_v_00000003Ev to i8*), i8* bitcast (void (%class.AA*)* @_ZN2AA13kk_v_00000004Ev to i8*), i8* bitcast (void (%class.AA*)* @_ZN2AA13kk_v_00000005Ev to i8*), i8* bitcast (void (%class.AA*)* @_ZN2AA13kk_v_00000006Ev to i8*), i8* bitcast (void (%class.AA*)* @_ZN2AA13kk_v_00000007Ev to i8*), i8* bitcast (void (%class.AA*)* @_ZN2AA13kk_v_00000008Ev to i8*), i8* bitcast (void (%class.AA*)* @_ZN2AA13kk_v_00000009Ev to i8*), i8* bitcast (void (%class.AA*)* @_ZN2AA13kk_v_00000010Ev to i8*), i8* bitcast (void (%class.AA*)* @_ZN2AA13kk_v_00000011Ev to i8*), i8* bitcast (void (%class.AA*)* @_ZN2AA13kk_v_00000012Ev to i8*), i8* bitcast (void (%class.AA*)* @_ZN2AA13kk_v_00000013Ev to i8*), i8* bitcast (void (%class.AA*)* @_ZN2AA13kk_v_00000014Ev to i8*), i8* bitcast (void (%class.AA*)* @_ZN2AA13kk_v_00000015Ev to i8*), i8* bitcast (void (%class.AA*)* @_ZN2AA13kk_v_00000016Ev to i8*), i8* bitcast (void (%class.AA*)* @_ZN2AA13kk_v_00000017Ev to i8*), i8* bitcast (void (%class.AA*)* @_ZN2AA13kk_v_00000018Ev to i8*), i8* bitcast (void (%class.AA*)* @_ZN2AA13kk_v_00000019Ev to i8*), i8* bitcast (void (%class.AA*)* @_ZN2AA13kk_v_00000020Ev to i8*), i8* bitcast (void (%class.AA*)* @_ZN2AA13kk_v_00000021Ev to i8*), i8* bitcast (void (%class.AA*)* @_ZN2AA13kk_v_00000022Ev to i8*), i8* bitcast (void (%class.AA*)* @_ZN2AA13kk_v_00000023Ev to i8*), i8* bitcast (void (%class.AA*)* @_ZN2AA13kk_v_00000024Ev to i8*), i8* bitcast (void (%class.AA*)* @_ZN2AA13kk_v_00000025Ev to i8*), i8* bitcast (void (%class.AA*)* @_ZN2AA13kk_v_00000026Ev to i8*), i8* bitcast (void (%class.AA*)* @_ZN2AA13kk_v_00000027Ev to i8*), i8* bitcast (void (%class.AA*)* @_ZN2AA13kk_v_00000028Ev to i8*), i8* bitcast (void (%class.AA*)* @_ZN2AA13kk_v_00000029Ev to i8*)] }, comdat, align 8	 ;;;;; 

; Function Attrs: mustprogress noinline uwtable
define dso_local void @_Z4testP2DDMS_FvvE(%class.DD* noundef %dptr, i64 %mfptr.coerce0, i64 %mfptr.coerce1) #0 !dbg !205 {	 ;;; filename : "./MicroBenchmark/virtual_v1_nv0/virtual_v1_nv0_30_2.cpp", line : 186, 
entry:	 ;;;;; filename : "./MicroBenchmark/virtual_v1_nv0/virtual_v1_nv0_30_2.cpp", line : 186, 
  %mfptr = alloca { i64, i64 }, align 8	 ;;;;; filename : "./MicroBenchmark/virtual_v1_nv0/virtual_v1_nv0_30_2.cpp", line : 186, 
  %0 = getelementptr inbounds { i64, i64 }, { i64, i64 }* %mfptr, i32 0, i32 0	 ;;;;; filename : "./MicroBenchmark/virtual_v1_nv0/virtual_v1_nv0_30_2.cpp", line : 186, 
  store i64 %mfptr.coerce0, i64* %0, align 8	 ;;;;; filename : "./MicroBenchmark/virtual_v1_nv0/virtual_v1_nv0_30_2.cpp", line : 186, 
  %1 = getelementptr inbounds { i64, i64 }, { i64, i64 }* %mfptr, i32 0, i32 1	 ;;;;; filename : "./MicroBenchmark/virtual_v1_nv0/virtual_v1_nv0_30_2.cpp", line : 186, 
  store i64 %mfptr.coerce1, i64* %1, align 8	 ;;;;; filename : "./MicroBenchmark/virtual_v1_nv0/virtual_v1_nv0_30_2.cpp", line : 186, 
  %TIPS_gep_00 = getelementptr { i64, i64 }, { i64, i64 }* %mfptr, i32 0, i32 0	 ;;;;; filename : "./MicroBenchmark/virtual_v1_nv0/virtual_v1_nv0_30_2.cpp", line : 186, 
  %TIPS_load_00 = load i64, i64* %TIPS_gep_00, align 8	 ;;;;; filename : "./MicroBenchmark/virtual_v1_nv0/virtual_v1_nv0_30_2.cpp", line : 186, 
  %TIPS_gep_01 = getelementptr { i64, i64 }, { i64, i64 }* %mfptr, i32 0, i32 1	 ;;;;; filename : "./MicroBenchmark/virtual_v1_nv0/virtual_v1_nv0_30_2.cpp", line : 186, 
  %TIPS_load_01 = load i64, i64* %TIPS_gep_01, align 8	 ;;;;; filename : "./MicroBenchmark/virtual_v1_nv0/virtual_v1_nv0_30_2.cpp", line : 186, 
  %mfptr1 = load { i64, i64 }, { i64, i64 }* %mfptr, align 8	 ;;;;; filename : "./MicroBenchmark/virtual_v1_nv0/virtual_v1_nv0_30_2.cpp", line : 186, 
  call void @llvm.dbg.value(metadata %class.DD* %dptr, metadata !212, metadata !DIExpression()), !dbg !213	 ;;;;; filename : "./MicroBenchmark/virtual_v1_nv0/virtual_v1_nv0_30_2.cpp", line : 186, 
  call void @llvm.dbg.value(metadata { i64, i64 } %mfptr1, metadata !214, metadata !DIExpression()), !dbg !213	 ;;;;; filename : "./MicroBenchmark/virtual_v1_nv0/virtual_v1_nv0_30_2.cpp", line : 186, 
  %memptr.adj = extractvalue { i64, i64 } %mfptr1, 1, !dbg !215	 ;;; line : 187, column : 4, filename : "./MicroBenchmark/virtual_v1_nv0/virtual_v1_nv0_30_2.cpp", 
  %2 = bitcast %class.DD* %dptr to i8*, !dbg !215	 ;;; line : 187, column : 4, filename : "./MicroBenchmark/virtual_v1_nv0/virtual_v1_nv0_30_2.cpp", 
  %3 = getelementptr inbounds i8, i8* %2, i64 %TIPS_load_01, !dbg !215	 ;;; line : 187, column : 4, filename : "./MicroBenchmark/virtual_v1_nv0/virtual_v1_nv0_30_2.cpp", 
  %this.adjusted = bitcast i8* %3 to %class.DD*, !dbg !215	 ;;; line : 187, column : 4, filename : "./MicroBenchmark/virtual_v1_nv0/virtual_v1_nv0_30_2.cpp", 
  %memptr.ptr = extractvalue { i64, i64 } %mfptr1, 0, !dbg !215	 ;;; line : 187, column : 4, filename : "./MicroBenchmark/virtual_v1_nv0/virtual_v1_nv0_30_2.cpp", 
  %4 = and i64 %TIPS_load_00, 1, !dbg !215	 ;;; line : 187, column : 4, filename : "./MicroBenchmark/virtual_v1_nv0/virtual_v1_nv0_30_2.cpp", 
  %memptr.isvirtual = icmp ne i64 %4, 0, !dbg !215	 ;;; line : 187, column : 4, filename : "./MicroBenchmark/virtual_v1_nv0/virtual_v1_nv0_30_2.cpp", 
  br i1 %memptr.isvirtual, label %memptr.virtual, label %memptr.nonvirtual, !dbg !215	 ;;; line : 187, column : 4, filename : "./MicroBenchmark/virtual_v1_nv0/virtual_v1_nv0_30_2.cpp", 

memptr.virtual:                                   ; preds = %entry	 ;;;;; line : 187, column : 4, filename : "./MicroBenchmark/virtual_v1_nv0/virtual_v1_nv0_30_2.cpp", 
  %5 = bitcast %class.DD* %this.adjusted to i8**, !dbg !215	 ;;; line : 187, column : 4, filename : "./MicroBenchmark/virtual_v1_nv0/virtual_v1_nv0_30_2.cpp", 
  %vtable = load i8*, i8** %5, align 8, !dbg !215	 ;;; line : 187, column : 4, filename : "./MicroBenchmark/virtual_v1_nv0/virtual_v1_nv0_30_2.cpp", 
  %6 = sub i64 %TIPS_load_00, 1, !dbg !215	 ;;; line : 187, column : 4, filename : "./MicroBenchmark/virtual_v1_nv0/virtual_v1_nv0_30_2.cpp", 
  %7 = getelementptr i8, i8* %vtable, i64 %6, !dbg !215, !nosanitize !211	 ;;;;; line : 187, column : 4, filename : "./MicroBenchmark/virtual_v1_nv0/virtual_v1_nv0_30_2.cpp", 
  %8 = bitcast i8* %7 to void (%class.DD*)**, !dbg !215, !nosanitize !211	 ;;;;; line : 187, column : 4, filename : "./MicroBenchmark/virtual_v1_nv0/virtual_v1_nv0_30_2.cpp", 
  %memptr.virtualfn = load void (%class.DD*)*, void (%class.DD*)** %8, align 8, !dbg !215, !nosanitize !211	 ;;;;; line : 187, column : 4, filename : "./MicroBenchmark/virtual_v1_nv0/virtual_v1_nv0_30_2.cpp", 
  br label %memptr.end, !dbg !215	 ;;; line : 187, column : 4, filename : "./MicroBenchmark/virtual_v1_nv0/virtual_v1_nv0_30_2.cpp", 

memptr.nonvirtual:                                ; preds = %entry	 ;;;;; line : 187, column : 4, filename : "./MicroBenchmark/virtual_v1_nv0/virtual_v1_nv0_30_2.cpp", 
  %memptr.nonvirtualfn = inttoptr i64 %TIPS_load_00 to void (%class.DD*)*, !dbg !215	 ;;; line : 187, column : 4, filename : "./MicroBenchmark/virtual_v1_nv0/virtual_v1_nv0_30_2.cpp", 
  br label %memptr.end, !dbg !215	 ;;; line : 187, column : 4, filename : "./MicroBenchmark/virtual_v1_nv0/virtual_v1_nv0_30_2.cpp", 

memptr.end:                                       ; preds = %memptr.nonvirtual, %memptr.virtual	 ;;;;; line : 187, column : 4, filename : "./MicroBenchmark/virtual_v1_nv0/virtual_v1_nv0_30_2.cpp", 
  %9 = phi void (%class.DD*)* [ %memptr.virtualfn, %memptr.virtual ], [ %memptr.nonvirtualfn, %memptr.nonvirtual ], !dbg !215	 ;;; line : 187, column : 4, filename : "./MicroBenchmark/virtual_v1_nv0/virtual_v1_nv0_30_2.cpp", 
  call void %9(%class.DD* noundef nonnull align 8 dereferenceable(40) %this.adjusted) #6, !dbg !215	 ;;; line : 187, column : 4, filename : "./MicroBenchmark/virtual_v1_nv0/virtual_v1_nv0_30_2.cpp", 
  ret void, !dbg !216	 ;;; line : 188, column : 2, filename : "./MicroBenchmark/virtual_v1_nv0/virtual_v1_nv0_30_2.cpp", 
}	 ;;;;; line : 188, column : 2, filename : "./MicroBenchmark/virtual_v1_nv0/virtual_v1_nv0_30_2.cpp", 

; Function Attrs: nofree nosync nounwind readnone speculatable willreturn
declare void @llvm.dbg.declare(metadata, metadata, metadata) #1	 ;;;;; line : 188, column : 2, filename : "./MicroBenchmark/virtual_v1_nv0/virtual_v1_nv0_30_2.cpp", 

; Function Attrs: mustprogress noinline norecurse uwtable
define dso_local noundef i32 @main() #2 !dbg !217 {	 ;;; filename : "./MicroBenchmark/virtual_v1_nv0/virtual_v1_nv0_30_2.cpp", line : 191, 
entry:	 ;;;;; filename : "./MicroBenchmark/virtual_v1_nv0/virtual_v1_nv0_30_2.cpp", line : 191, 
  %dobj = alloca %class.DD, align 8	 ;;;;; filename : "./MicroBenchmark/virtual_v1_nv0/virtual_v1_nv0_30_2.cpp", line : 191, 
  %coerce = alloca { i64, i64 }, align 8	 ;;;;; filename : "./MicroBenchmark/virtual_v1_nv0/virtual_v1_nv0_30_2.cpp", line : 191, 
  %coerce1 = alloca { i64, i64 }, align 8	 ;;;;; filename : "./MicroBenchmark/virtual_v1_nv0/virtual_v1_nv0_30_2.cpp", line : 191, 
  call void @llvm.dbg.declare(metadata %class.DD* %dobj, metadata !218, metadata !DIExpression()), !dbg !219	 ;;; line : 192, column : 7, filename : "./MicroBenchmark/virtual_v1_nv0/virtual_v1_nv0_30_2.cpp", 
  call void @_ZN2DDC1Ev(%class.DD* noundef nonnull align 8 dereferenceable(40) %dobj) #7, !dbg !219	 ;;; line : 192, column : 7, filename : "./MicroBenchmark/virtual_v1_nv0/virtual_v1_nv0_30_2.cpp", 
  %TIPS_gep_00 = getelementptr { i64, i64 }, { i64, i64 }* %coerce, i32 0, i32 0	 ;;;;; line : 192, column : 7, filename : "./MicroBenchmark/virtual_v1_nv0/virtual_v1_nv0_30_2.cpp", 
  %TIPS_gep_01 = getelementptr { i64, i64 }, { i64, i64 }* %coerce, i32 0, i32 1	 ;;;;; line : 192, column : 7, filename : "./MicroBenchmark/virtual_v1_nv0/virtual_v1_nv0_30_2.cpp", 
  store i64 377, i64* %TIPS_gep_00, align 8	 ;;;;; line : 192, column : 7, filename : "./MicroBenchmark/virtual_v1_nv0/virtual_v1_nv0_30_2.cpp", 
  store i64 0, i64* %TIPS_gep_01, align 8	 ;;;;; line : 192, column : 7, filename : "./MicroBenchmark/virtual_v1_nv0/virtual_v1_nv0_30_2.cpp", 
  store { i64, i64 } { i64 377, i64 0 }, { i64, i64 }* %coerce, align 8, !dbg !220	 ;;; line : 194, column : 4, filename : "./MicroBenchmark/virtual_v1_nv0/virtual_v1_nv0_30_2.cpp", 
  %0 = getelementptr inbounds { i64, i64 }, { i64, i64 }* %coerce, i32 0, i32 0, !dbg !220	 ;;; line : 194, column : 4, filename : "./MicroBenchmark/virtual_v1_nv0/virtual_v1_nv0_30_2.cpp", 
  %1 = load i64, i64* %0, align 8, !dbg !220	 ;;; line : 194, column : 4, filename : "./MicroBenchmark/virtual_v1_nv0/virtual_v1_nv0_30_2.cpp", 
  %2 = getelementptr inbounds { i64, i64 }, { i64, i64 }* %coerce, i32 0, i32 1, !dbg !220	 ;;; line : 194, column : 4, filename : "./MicroBenchmark/virtual_v1_nv0/virtual_v1_nv0_30_2.cpp", 
  %3 = load i64, i64* %2, align 8, !dbg !220	 ;;; line : 194, column : 4, filename : "./MicroBenchmark/virtual_v1_nv0/virtual_v1_nv0_30_2.cpp", 
  call void @_Z4testP2DDMS_FvvE(%class.DD* noundef %dobj, i64 %1, i64 %3) #6, !dbg !220	 ;;; line : 194, column : 4, filename : "./MicroBenchmark/virtual_v1_nv0/virtual_v1_nv0_30_2.cpp", 
  %TIPS_gep_001 = getelementptr { i64, i64 }, { i64, i64 }* %coerce1, i32 0, i32 0	 ;;;;; line : 194, column : 4, filename : "./MicroBenchmark/virtual_v1_nv0/virtual_v1_nv0_30_2.cpp", 
  %TIPS_gep_012 = getelementptr { i64, i64 }, { i64, i64 }* %coerce1, i32 0, i32 1	 ;;;;; line : 194, column : 4, filename : "./MicroBenchmark/virtual_v1_nv0/virtual_v1_nv0_30_2.cpp", 
  store i64 385, i64* %TIPS_gep_001, align 8	 ;;;;; line : 194, column : 4, filename : "./MicroBenchmark/virtual_v1_nv0/virtual_v1_nv0_30_2.cpp", 
  store i64 0, i64* %TIPS_gep_012, align 8	 ;;;;; line : 194, column : 4, filename : "./MicroBenchmark/virtual_v1_nv0/virtual_v1_nv0_30_2.cpp", 
  store { i64, i64 } { i64 385, i64 0 }, { i64, i64 }* %coerce1, align 8, !dbg !221	 ;;; line : 195, column : 4, filename : "./MicroBenchmark/virtual_v1_nv0/virtual_v1_nv0_30_2.cpp", 
  %4 = getelementptr inbounds { i64, i64 }, { i64, i64 }* %coerce1, i32 0, i32 0, !dbg !221	 ;;; line : 195, column : 4, filename : "./MicroBenchmark/virtual_v1_nv0/virtual_v1_nv0_30_2.cpp", 
  %5 = load i64, i64* %4, align 8, !dbg !221	 ;;; line : 195, column : 4, filename : "./MicroBenchmark/virtual_v1_nv0/virtual_v1_nv0_30_2.cpp", 
  %6 = getelementptr inbounds { i64, i64 }, { i64, i64 }* %coerce1, i32 0, i32 1, !dbg !221	 ;;; line : 195, column : 4, filename : "./MicroBenchmark/virtual_v1_nv0/virtual_v1_nv0_30_2.cpp", 
  %7 = load i64, i64* %6, align 8, !dbg !221	 ;;; line : 195, column : 4, filename : "./MicroBenchmark/virtual_v1_nv0/virtual_v1_nv0_30_2.cpp", 
  call void @_Z4testP2DDMS_FvvE(%class.DD* noundef %dobj, i64 %5, i64 %7) #6, !dbg !221	 ;;; line : 195, column : 4, filename : "./MicroBenchmark/virtual_v1_nv0/virtual_v1_nv0_30_2.cpp", 
  ret i32 0, !dbg !222	 ;;; line : 197, column : 4, filename : "./MicroBenchmark/virtual_v1_nv0/virtual_v1_nv0_30_2.cpp", 
}	 ;;;;; line : 197, column : 4, filename : "./MicroBenchmark/virtual_v1_nv0/virtual_v1_nv0_30_2.cpp", 

; Function Attrs: noinline nounwind uwtable
define linkonce_odr dso_local void @_ZN2DDC1Ev(%class.DD* noundef nonnull align 8 dereferenceable(40) %this) unnamed_addr #3 comdat align 2 !dbg !223 {	 ;;; filename : "./MicroBenchmark/virtual_v1_nv0/virtual_v1_nv0_30_2.cpp", line : 113, 
entry:	 ;;;;; filename : "./MicroBenchmark/virtual_v1_nv0/virtual_v1_nv0_30_2.cpp", line : 113, 
  call void @llvm.dbg.value(metadata %class.DD* %this, metadata !225, metadata !DIExpression()), !dbg !226	 ;;;;; filename : "./MicroBenchmark/virtual_v1_nv0/virtual_v1_nv0_30_2.cpp", line : 113, 
  %0 = bitcast %class.DD* %this to i8*, !dbg !227	 ;;; line : 113, column : 8, filename : "./MicroBenchmark/virtual_v1_nv0/virtual_v1_nv0_30_2.cpp", 
  %1 = getelementptr inbounds i8, i8* %0, i64 40, !dbg !227	 ;;; line : 113, column : 8, filename : "./MicroBenchmark/virtual_v1_nv0/virtual_v1_nv0_30_2.cpp", 
  %2 = bitcast i8* %1 to %class.AA*, !dbg !227	 ;;; line : 113, column : 8, filename : "./MicroBenchmark/virtual_v1_nv0/virtual_v1_nv0_30_2.cpp", 
  call void @_ZN2AAC2Ev(%class.AA* noundef nonnull align 8 dereferenceable(16) %2) #7, !dbg !227	 ;;; line : 113, column : 8, filename : "./MicroBenchmark/virtual_v1_nv0/virtual_v1_nv0_30_2.cpp", 
  %3 = bitcast %class.DD* %this to %class.BB*, !dbg !227	 ;;; line : 113, column : 8, filename : "./MicroBenchmark/virtual_v1_nv0/virtual_v1_nv0_30_2.cpp", 
  %4 = getelementptr inbounds [7 x i8*], [7 x i8*]* @_ZTT2DD, i64 0, i64 1	 ;;;;; line : 113, column : 8, filename : "./MicroBenchmark/virtual_v1_nv0/virtual_v1_nv0_30_2.cpp", 
  call void @_ZN2BBC2Ev(%class.BB* noundef nonnull align 8 dereferenceable(16) %3, i8** noundef %4) #7, !dbg !227	 ;;; line : 113, column : 8, filename : "./MicroBenchmark/virtual_v1_nv0/virtual_v1_nv0_30_2.cpp", 
  %5 = bitcast %class.DD* %this to i8*, !dbg !227	 ;;; line : 113, column : 8, filename : "./MicroBenchmark/virtual_v1_nv0/virtual_v1_nv0_30_2.cpp", 
  %6 = getelementptr inbounds i8, i8* %5, i64 16, !dbg !227	 ;;; line : 113, column : 8, filename : "./MicroBenchmark/virtual_v1_nv0/virtual_v1_nv0_30_2.cpp", 
  %7 = bitcast i8* %6 to %class.CC*, !dbg !227	 ;;; line : 113, column : 8, filename : "./MicroBenchmark/virtual_v1_nv0/virtual_v1_nv0_30_2.cpp", 
  %8 = getelementptr inbounds [7 x i8*], [7 x i8*]* @_ZTT2DD, i64 0, i64 3	 ;;;;; line : 113, column : 8, filename : "./MicroBenchmark/virtual_v1_nv0/virtual_v1_nv0_30_2.cpp", 
  call void @_ZN2CCC2Ev(%class.CC* noundef nonnull align 8 dereferenceable(16) %7, i8** noundef %8) #7, !dbg !227	 ;;; line : 113, column : 8, filename : "./MicroBenchmark/virtual_v1_nv0/virtual_v1_nv0_30_2.cpp", 
  %9 = bitcast %class.DD* %this to i32 (...)***, !dbg !227	 ;;; line : 113, column : 8, filename : "./MicroBenchmark/virtual_v1_nv0/virtual_v1_nv0_30_2.cpp", 
  %10 = getelementptr inbounds { [80 x i8*], [33 x i8*], [62 x i8*] }, { [80 x i8*], [33 x i8*], [62 x i8*] }* @_ZTV2DD, i32 0, i32 0, i32 3	 ;;;;; line : 113, column : 8, filename : "./MicroBenchmark/virtual_v1_nv0/virtual_v1_nv0_30_2.cpp", 
  %11 = bitcast i8** %10 to i32 (...)**	 ;;;;; line : 113, column : 8, filename : "./MicroBenchmark/virtual_v1_nv0/virtual_v1_nv0_30_2.cpp", 
  store i32 (...)** %11, i32 (...)*** %9, align 8, !dbg !227	 ;;; line : 113, column : 8, filename : "./MicroBenchmark/virtual_v1_nv0/virtual_v1_nv0_30_2.cpp", 
  %12 = bitcast %class.DD* %this to i8*, !dbg !227	 ;;; line : 113, column : 8, filename : "./MicroBenchmark/virtual_v1_nv0/virtual_v1_nv0_30_2.cpp", 
  %add.ptr = getelementptr inbounds i8, i8* %12, i64 40, !dbg !227	 ;;; line : 113, column : 8, filename : "./MicroBenchmark/virtual_v1_nv0/virtual_v1_nv0_30_2.cpp", 
  %13 = bitcast i8* %add.ptr to i32 (...)***, !dbg !227	 ;;; line : 113, column : 8, filename : "./MicroBenchmark/virtual_v1_nv0/virtual_v1_nv0_30_2.cpp", 
  %14 = getelementptr inbounds { [80 x i8*], [33 x i8*], [62 x i8*] }, { [80 x i8*], [33 x i8*], [62 x i8*] }* @_ZTV2DD, i32 0, i32 2, i32 32	 ;;;;; line : 113, column : 8, filename : "./MicroBenchmark/virtual_v1_nv0/virtual_v1_nv0_30_2.cpp", 
  %15 = bitcast i8** %14 to i32 (...)**	 ;;;;; line : 113, column : 8, filename : "./MicroBenchmark/virtual_v1_nv0/virtual_v1_nv0_30_2.cpp", 
  store i32 (...)** %15, i32 (...)*** %13, align 8, !dbg !227	 ;;; line : 113, column : 8, filename : "./MicroBenchmark/virtual_v1_nv0/virtual_v1_nv0_30_2.cpp", 
  %16 = bitcast %class.DD* %this to i8*, !dbg !227	 ;;; line : 113, column : 8, filename : "./MicroBenchmark/virtual_v1_nv0/virtual_v1_nv0_30_2.cpp", 
  %add.ptr2 = getelementptr inbounds i8, i8* %16, i64 16, !dbg !227	 ;;; line : 113, column : 8, filename : "./MicroBenchmark/virtual_v1_nv0/virtual_v1_nv0_30_2.cpp", 
  %17 = bitcast i8* %add.ptr2 to i32 (...)***, !dbg !227	 ;;; line : 113, column : 8, filename : "./MicroBenchmark/virtual_v1_nv0/virtual_v1_nv0_30_2.cpp", 
  %18 = getelementptr inbounds { [80 x i8*], [33 x i8*], [62 x i8*] }, { [80 x i8*], [33 x i8*], [62 x i8*] }* @_ZTV2DD, i32 0, i32 1, i32 3	 ;;;;; line : 113, column : 8, filename : "./MicroBenchmark/virtual_v1_nv0/virtual_v1_nv0_30_2.cpp", 
  %19 = bitcast i8** %18 to i32 (...)**	 ;;;;; line : 113, column : 8, filename : "./MicroBenchmark/virtual_v1_nv0/virtual_v1_nv0_30_2.cpp", 
  store i32 (...)** %19, i32 (...)*** %17, align 8, !dbg !227	 ;;; line : 113, column : 8, filename : "./MicroBenchmark/virtual_v1_nv0/virtual_v1_nv0_30_2.cpp", 
  ret void, !dbg !227	 ;;; line : 113, column : 8, filename : "./MicroBenchmark/virtual_v1_nv0/virtual_v1_nv0_30_2.cpp", 
}	 ;;;;; line : 113, column : 8, filename : "./MicroBenchmark/virtual_v1_nv0/virtual_v1_nv0_30_2.cpp", 

; Function Attrs: noinline nounwind uwtable
define linkonce_odr dso_local void @_ZN2AAC2Ev(%class.AA* noundef nonnull align 8 dereferenceable(16) %this) unnamed_addr #3 comdat align 2 !dbg !228 {	 ;;; filename : "./MicroBenchmark/virtual_v1_nv0/virtual_v1_nv0_30_2.cpp", line : 2, 
entry:	 ;;;;; filename : "./MicroBenchmark/virtual_v1_nv0/virtual_v1_nv0_30_2.cpp", line : 2, 
  call void @llvm.dbg.value(metadata %class.AA* %this, metadata !230, metadata !DIExpression()), !dbg !232	 ;;;;; filename : "./MicroBenchmark/virtual_v1_nv0/virtual_v1_nv0_30_2.cpp", line : 2, 
  %0 = bitcast %class.AA* %this to i32 (...)***, !dbg !233	 ;;; line : 2, column : 8, filename : "./MicroBenchmark/virtual_v1_nv0/virtual_v1_nv0_30_2.cpp", 
  %1 = getelementptr inbounds { [32 x i8*] }, { [32 x i8*] }* @_ZTV2AA, i32 0, i32 0, i32 2	 ;;;;; line : 2, column : 8, filename : "./MicroBenchmark/virtual_v1_nv0/virtual_v1_nv0_30_2.cpp", 
  %2 = bitcast i8** %1 to i32 (...)**	 ;;;;; line : 2, column : 8, filename : "./MicroBenchmark/virtual_v1_nv0/virtual_v1_nv0_30_2.cpp", 
  store i32 (...)** %2, i32 (...)*** %0, align 8, !dbg !233	 ;;; line : 2, column : 8, filename : "./MicroBenchmark/virtual_v1_nv0/virtual_v1_nv0_30_2.cpp", 
  ret void, !dbg !233	 ;;; line : 2, column : 8, filename : "./MicroBenchmark/virtual_v1_nv0/virtual_v1_nv0_30_2.cpp", 
}	 ;;;;; line : 2, column : 8, filename : "./MicroBenchmark/virtual_v1_nv0/virtual_v1_nv0_30_2.cpp", 

; Function Attrs: noinline nounwind uwtable
define linkonce_odr dso_local void @_ZN2BBC2Ev(%class.BB* noundef nonnull align 8 dereferenceable(16) %this, i8** noundef %vtt) unnamed_addr #3 comdat align 2 !dbg !234 {	 ;;; filename : "./MicroBenchmark/virtual_v1_nv0/virtual_v1_nv0_30_2.cpp", line : 39, 
entry:	 ;;;;; filename : "./MicroBenchmark/virtual_v1_nv0/virtual_v1_nv0_30_2.cpp", line : 39, 
  call void @llvm.dbg.value(metadata %class.BB* %this, metadata !236, metadata !DIExpression()), !dbg !238	 ;;;;; filename : "./MicroBenchmark/virtual_v1_nv0/virtual_v1_nv0_30_2.cpp", line : 39, 
  call void @llvm.dbg.value(metadata i8** %vtt, metadata !239, metadata !DIExpression()), !dbg !238	 ;;;;; filename : "./MicroBenchmark/virtual_v1_nv0/virtual_v1_nv0_30_2.cpp", line : 39, 
  %0 = load i8*, i8** %vtt, align 8, !dbg !242	 ;;; line : 39, column : 8, filename : "./MicroBenchmark/virtual_v1_nv0/virtual_v1_nv0_30_2.cpp", 
  %1 = bitcast %class.BB* %this to i32 (...)***, !dbg !242	 ;;; line : 39, column : 8, filename : "./MicroBenchmark/virtual_v1_nv0/virtual_v1_nv0_30_2.cpp", 
  %2 = bitcast i8* %0 to i32 (...)**, !dbg !242	 ;;; line : 39, column : 8, filename : "./MicroBenchmark/virtual_v1_nv0/virtual_v1_nv0_30_2.cpp", 
  store i32 (...)** %2, i32 (...)*** %1, align 8, !dbg !242	 ;;; line : 39, column : 8, filename : "./MicroBenchmark/virtual_v1_nv0/virtual_v1_nv0_30_2.cpp", 
  %3 = getelementptr inbounds i8*, i8** %vtt, i64 1, !dbg !242	 ;;; line : 39, column : 8, filename : "./MicroBenchmark/virtual_v1_nv0/virtual_v1_nv0_30_2.cpp", 
  %4 = load i8*, i8** %3, align 8, !dbg !242	 ;;; line : 39, column : 8, filename : "./MicroBenchmark/virtual_v1_nv0/virtual_v1_nv0_30_2.cpp", 
  %5 = bitcast %class.BB* %this to i8**, !dbg !242	 ;;; line : 39, column : 8, filename : "./MicroBenchmark/virtual_v1_nv0/virtual_v1_nv0_30_2.cpp", 
  %vtable = load i8*, i8** %5, align 8, !dbg !242	 ;;; line : 39, column : 8, filename : "./MicroBenchmark/virtual_v1_nv0/virtual_v1_nv0_30_2.cpp", 
  %vbase.offset.ptr = getelementptr i8, i8* %vtable, i64 -24, !dbg !242	 ;;; line : 39, column : 8, filename : "./MicroBenchmark/virtual_v1_nv0/virtual_v1_nv0_30_2.cpp", 
  %6 = bitcast i8* %vbase.offset.ptr to i64*, !dbg !242	 ;;; line : 39, column : 8, filename : "./MicroBenchmark/virtual_v1_nv0/virtual_v1_nv0_30_2.cpp", 
  %vbase.offset = load i64, i64* %6, align 8, !dbg !242	 ;;; line : 39, column : 8, filename : "./MicroBenchmark/virtual_v1_nv0/virtual_v1_nv0_30_2.cpp", 
  %7 = bitcast %class.BB* %this to i8*, !dbg !242	 ;;; line : 39, column : 8, filename : "./MicroBenchmark/virtual_v1_nv0/virtual_v1_nv0_30_2.cpp", 
  %add.ptr = getelementptr inbounds i8, i8* %7, i64 %vbase.offset, !dbg !242	 ;;; line : 39, column : 8, filename : "./MicroBenchmark/virtual_v1_nv0/virtual_v1_nv0_30_2.cpp", 
  %8 = bitcast i8* %add.ptr to i32 (...)***, !dbg !242	 ;;; line : 39, column : 8, filename : "./MicroBenchmark/virtual_v1_nv0/virtual_v1_nv0_30_2.cpp", 
  %9 = bitcast i8* %4 to i32 (...)**, !dbg !242	 ;;; line : 39, column : 8, filename : "./MicroBenchmark/virtual_v1_nv0/virtual_v1_nv0_30_2.cpp", 
  store i32 (...)** %9, i32 (...)*** %8, align 8, !dbg !242	 ;;; line : 39, column : 8, filename : "./MicroBenchmark/virtual_v1_nv0/virtual_v1_nv0_30_2.cpp", 
  ret void, !dbg !242	 ;;; line : 39, column : 8, filename : "./MicroBenchmark/virtual_v1_nv0/virtual_v1_nv0_30_2.cpp", 
}	 ;;;;; line : 39, column : 8, filename : "./MicroBenchmark/virtual_v1_nv0/virtual_v1_nv0_30_2.cpp", 

; Function Attrs: noinline nounwind uwtable
define linkonce_odr dso_local void @_ZN2CCC2Ev(%class.CC* noundef nonnull align 8 dereferenceable(16) %this, i8** noundef %vtt) unnamed_addr #3 comdat align 2 !dbg !243 {	 ;;; filename : "./MicroBenchmark/virtual_v1_nv0/virtual_v1_nv0_30_2.cpp", line : 76, 
entry:	 ;;;;; filename : "./MicroBenchmark/virtual_v1_nv0/virtual_v1_nv0_30_2.cpp", line : 76, 
  call void @llvm.dbg.value(metadata %class.CC* %this, metadata !245, metadata !DIExpression()), !dbg !247	 ;;;;; filename : "./MicroBenchmark/virtual_v1_nv0/virtual_v1_nv0_30_2.cpp", line : 76, 
  call void @llvm.dbg.value(metadata i8** %vtt, metadata !248, metadata !DIExpression()), !dbg !247	 ;;;;; filename : "./MicroBenchmark/virtual_v1_nv0/virtual_v1_nv0_30_2.cpp", line : 76, 
  %0 = load i8*, i8** %vtt, align 8, !dbg !249	 ;;; line : 76, column : 8, filename : "./MicroBenchmark/virtual_v1_nv0/virtual_v1_nv0_30_2.cpp", 
  %1 = bitcast %class.CC* %this to i32 (...)***, !dbg !249	 ;;; line : 76, column : 8, filename : "./MicroBenchmark/virtual_v1_nv0/virtual_v1_nv0_30_2.cpp", 
  %2 = bitcast i8* %0 to i32 (...)**, !dbg !249	 ;;; line : 76, column : 8, filename : "./MicroBenchmark/virtual_v1_nv0/virtual_v1_nv0_30_2.cpp", 
  store i32 (...)** %2, i32 (...)*** %1, align 8, !dbg !249	 ;;; line : 76, column : 8, filename : "./MicroBenchmark/virtual_v1_nv0/virtual_v1_nv0_30_2.cpp", 
  %3 = getelementptr inbounds i8*, i8** %vtt, i64 1, !dbg !249	 ;;; line : 76, column : 8, filename : "./MicroBenchmark/virtual_v1_nv0/virtual_v1_nv0_30_2.cpp", 
  %4 = load i8*, i8** %3, align 8, !dbg !249	 ;;; line : 76, column : 8, filename : "./MicroBenchmark/virtual_v1_nv0/virtual_v1_nv0_30_2.cpp", 
  %5 = bitcast %class.CC* %this to i8**, !dbg !249	 ;;; line : 76, column : 8, filename : "./MicroBenchmark/virtual_v1_nv0/virtual_v1_nv0_30_2.cpp", 
  %vtable = load i8*, i8** %5, align 8, !dbg !249	 ;;; line : 76, column : 8, filename : "./MicroBenchmark/virtual_v1_nv0/virtual_v1_nv0_30_2.cpp", 
  %vbase.offset.ptr = getelementptr i8, i8* %vtable, i64 -24, !dbg !249	 ;;; line : 76, column : 8, filename : "./MicroBenchmark/virtual_v1_nv0/virtual_v1_nv0_30_2.cpp", 
  %6 = bitcast i8* %vbase.offset.ptr to i64*, !dbg !249	 ;;; line : 76, column : 8, filename : "./MicroBenchmark/virtual_v1_nv0/virtual_v1_nv0_30_2.cpp", 
  %vbase.offset = load i64, i64* %6, align 8, !dbg !249	 ;;; line : 76, column : 8, filename : "./MicroBenchmark/virtual_v1_nv0/virtual_v1_nv0_30_2.cpp", 
  %7 = bitcast %class.CC* %this to i8*, !dbg !249	 ;;; line : 76, column : 8, filename : "./MicroBenchmark/virtual_v1_nv0/virtual_v1_nv0_30_2.cpp", 
  %add.ptr = getelementptr inbounds i8, i8* %7, i64 %vbase.offset, !dbg !249	 ;;; line : 76, column : 8, filename : "./MicroBenchmark/virtual_v1_nv0/virtual_v1_nv0_30_2.cpp", 
  %8 = bitcast i8* %add.ptr to i32 (...)***, !dbg !249	 ;;; line : 76, column : 8, filename : "./MicroBenchmark/virtual_v1_nv0/virtual_v1_nv0_30_2.cpp", 
  %9 = bitcast i8* %4 to i32 (...)**, !dbg !249	 ;;; line : 76, column : 8, filename : "./MicroBenchmark/virtual_v1_nv0/virtual_v1_nv0_30_2.cpp", 
  store i32 (...)** %9, i32 (...)*** %8, align 8, !dbg !249	 ;;; line : 76, column : 8, filename : "./MicroBenchmark/virtual_v1_nv0/virtual_v1_nv0_30_2.cpp", 
  ret void, !dbg !249	 ;;; line : 76, column : 8, filename : "./MicroBenchmark/virtual_v1_nv0/virtual_v1_nv0_30_2.cpp", 
}	 ;;;;; line : 76, column : 8, filename : "./MicroBenchmark/virtual_v1_nv0/virtual_v1_nv0_30_2.cpp", 

; Function Attrs: mustprogress noinline nounwind uwtable
define linkonce_odr dso_local void @_ZN2DD13gg_v_00000000Ev(%class.DD* noundef nonnull align 8 dereferenceable(40) %this) unnamed_addr #4 comdat align 2 !dbg !250 {	 ;;; filename : "./MicroBenchmark/virtual_v1_nv0/virtual_v1_nv0_30_2.cpp", line : 124, 
entry:	 ;;;;; filename : "./MicroBenchmark/virtual_v1_nv0/virtual_v1_nv0_30_2.cpp", line : 124, 
  call void @llvm.dbg.value(metadata %class.DD* %this, metadata !251, metadata !DIExpression()), !dbg !252	 ;;;;; filename : "./MicroBenchmark/virtual_v1_nv0/virtual_v1_nv0_30_2.cpp", line : 124, 
  ret void, !dbg !253	 ;;; line : 124, column : 35, filename : "./MicroBenchmark/virtual_v1_nv0/virtual_v1_nv0_30_2.cpp", 
}	 ;;;;; line : 124, column : 35, filename : "./MicroBenchmark/virtual_v1_nv0/virtual_v1_nv0_30_2.cpp", 

; Function Attrs: mustprogress noinline nounwind uwtable
define linkonce_odr dso_local void @_ZN2DD13gg_v_00000001Ev(%class.DD* noundef nonnull align 8 dereferenceable(40) %this) unnamed_addr #4 comdat align 2 !dbg !254 {	 ;;; filename : "./MicroBenchmark/virtual_v1_nv0/virtual_v1_nv0_30_2.cpp", line : 125, 
entry:	 ;;;;; filename : "./MicroBenchmark/virtual_v1_nv0/virtual_v1_nv0_30_2.cpp", line : 125, 
  call void @llvm.dbg.value(metadata %class.DD* %this, metadata !255, metadata !DIExpression()), !dbg !256	 ;;;;; filename : "./MicroBenchmark/virtual_v1_nv0/virtual_v1_nv0_30_2.cpp", line : 125, 
  ret void, !dbg !257	 ;;; line : 125, column : 35, filename : "./MicroBenchmark/virtual_v1_nv0/virtual_v1_nv0_30_2.cpp", 
}	 ;;;;; line : 125, column : 35, filename : "./MicroBenchmark/virtual_v1_nv0/virtual_v1_nv0_30_2.cpp", 

; Function Attrs: mustprogress noinline nounwind uwtable
define linkonce_odr dso_local void @_ZN2DD13gg_v_00000002Ev(%class.DD* noundef nonnull align 8 dereferenceable(40) %this) unnamed_addr #4 comdat align 2 !dbg !258 {	 ;;; filename : "./MicroBenchmark/virtual_v1_nv0/virtual_v1_nv0_30_2.cpp", line : 126, 
entry:	 ;;;;; filename : "./MicroBenchmark/virtual_v1_nv0/virtual_v1_nv0_30_2.cpp", line : 126, 
  call void @llvm.dbg.value(metadata %class.DD* %this, metadata !259, metadata !DIExpression()), !dbg !260	 ;;;;; filename : "./MicroBenchmark/virtual_v1_nv0/virtual_v1_nv0_30_2.cpp", line : 126, 
  ret void, !dbg !261	 ;;; line : 126, column : 35, filename : "./MicroBenchmark/virtual_v1_nv0/virtual_v1_nv0_30_2.cpp", 
}	 ;;;;; line : 126, column : 35, filename : "./MicroBenchmark/virtual_v1_nv0/virtual_v1_nv0_30_2.cpp", 

; Function Attrs: mustprogress noinline nounwind uwtable
define linkonce_odr dso_local void @_ZN2DD13gg_v_00000003Ev(%class.DD* noundef nonnull align 8 dereferenceable(40) %this) unnamed_addr #4 comdat align 2 !dbg !262 {	 ;;; filename : "./MicroBenchmark/virtual_v1_nv0/virtual_v1_nv0_30_2.cpp", line : 127, 
entry:	 ;;;;; filename : "./MicroBenchmark/virtual_v1_nv0/virtual_v1_nv0_30_2.cpp", line : 127, 
  call void @llvm.dbg.value(metadata %class.DD* %this, metadata !263, metadata !DIExpression()), !dbg !264	 ;;;;; filename : "./MicroBenchmark/virtual_v1_nv0/virtual_v1_nv0_30_2.cpp", line : 127, 
  ret void, !dbg !265	 ;;; line : 127, column : 35, filename : "./MicroBenchmark/virtual_v1_nv0/virtual_v1_nv0_30_2.cpp", 
}	 ;;;;; line : 127, column : 35, filename : "./MicroBenchmark/virtual_v1_nv0/virtual_v1_nv0_30_2.cpp", 

; Function Attrs: mustprogress noinline nounwind uwtable
define linkonce_odr dso_local void @_ZN2DD13gg_v_00000004Ev(%class.DD* noundef nonnull align 8 dereferenceable(40) %this) unnamed_addr #4 comdat align 2 !dbg !266 {	 ;;; filename : "./MicroBenchmark/virtual_v1_nv0/virtual_v1_nv0_30_2.cpp", line : 128, 
entry:	 ;;;;; filename : "./MicroBenchmark/virtual_v1_nv0/virtual_v1_nv0_30_2.cpp", line : 128, 
  call void @llvm.dbg.value(metadata %class.DD* %this, metadata !267, metadata !DIExpression()), !dbg !268	 ;;;;; filename : "./MicroBenchmark/virtual_v1_nv0/virtual_v1_nv0_30_2.cpp", line : 128, 
  ret void, !dbg !269	 ;;; line : 128, column : 35, filename : "./MicroBenchmark/virtual_v1_nv0/virtual_v1_nv0_30_2.cpp", 
}	 ;;;;; line : 128, column : 35, filename : "./MicroBenchmark/virtual_v1_nv0/virtual_v1_nv0_30_2.cpp", 

; Function Attrs: mustprogress noinline nounwind uwtable
define linkonce_odr dso_local void @_ZN2DD13gg_v_00000005Ev(%class.DD* noundef nonnull align 8 dereferenceable(40) %this) unnamed_addr #4 comdat align 2 !dbg !270 {	 ;;; filename : "./MicroBenchmark/virtual_v1_nv0/virtual_v1_nv0_30_2.cpp", line : 129, 
entry:	 ;;;;; filename : "./MicroBenchmark/virtual_v1_nv0/virtual_v1_nv0_30_2.cpp", line : 129, 
  call void @llvm.dbg.value(metadata %class.DD* %this, metadata !271, metadata !DIExpression()), !dbg !272	 ;;;;; filename : "./MicroBenchmark/virtual_v1_nv0/virtual_v1_nv0_30_2.cpp", line : 129, 
  ret void, !dbg !273	 ;;; line : 129, column : 35, filename : "./MicroBenchmark/virtual_v1_nv0/virtual_v1_nv0_30_2.cpp", 
}	 ;;;;; line : 129, column : 35, filename : "./MicroBenchmark/virtual_v1_nv0/virtual_v1_nv0_30_2.cpp", 

; Function Attrs: mustprogress noinline nounwind uwtable
define linkonce_odr dso_local void @_ZN2DD13gg_v_00000006Ev(%class.DD* noundef nonnull align 8 dereferenceable(40) %this) unnamed_addr #4 comdat align 2 !dbg !274 {	 ;;; filename : "./MicroBenchmark/virtual_v1_nv0/virtual_v1_nv0_30_2.cpp", line : 130, 
entry:	 ;;;;; filename : "./MicroBenchmark/virtual_v1_nv0/virtual_v1_nv0_30_2.cpp", line : 130, 
  call void @llvm.dbg.value(metadata %class.DD* %this, metadata !275, metadata !DIExpression()), !dbg !276	 ;;;;; filename : "./MicroBenchmark/virtual_v1_nv0/virtual_v1_nv0_30_2.cpp", line : 130, 
  ret void, !dbg !277	 ;;; line : 130, column : 35, filename : "./MicroBenchmark/virtual_v1_nv0/virtual_v1_nv0_30_2.cpp", 
}	 ;;;;; line : 130, column : 35, filename : "./MicroBenchmark/virtual_v1_nv0/virtual_v1_nv0_30_2.cpp", 

; Function Attrs: mustprogress noinline nounwind uwtable
define linkonce_odr dso_local void @_ZN2DD13gg_v_00000007Ev(%class.DD* noundef nonnull align 8 dereferenceable(40) %this) unnamed_addr #4 comdat align 2 !dbg !278 {	 ;;; filename : "./MicroBenchmark/virtual_v1_nv0/virtual_v1_nv0_30_2.cpp", line : 131, 
entry:	 ;;;;; filename : "./MicroBenchmark/virtual_v1_nv0/virtual_v1_nv0_30_2.cpp", line : 131, 
  call void @llvm.dbg.value(metadata %class.DD* %this, metadata !279, metadata !DIExpression()), !dbg !280	 ;;;;; filename : "./MicroBenchmark/virtual_v1_nv0/virtual_v1_nv0_30_2.cpp", line : 131, 
  ret void, !dbg !281	 ;;; line : 131, column : 35, filename : "./MicroBenchmark/virtual_v1_nv0/virtual_v1_nv0_30_2.cpp", 
}	 ;;;;; line : 131, column : 35, filename : "./MicroBenchmark/virtual_v1_nv0/virtual_v1_nv0_30_2.cpp", 

; Function Attrs: mustprogress noinline nounwind uwtable
define linkonce_odr dso_local void @_ZN2DD13gg_v_00000008Ev(%class.DD* noundef nonnull align 8 dereferenceable(40) %this) unnamed_addr #4 comdat align 2 !dbg !282 {	 ;;; filename : "./MicroBenchmark/virtual_v1_nv0/virtual_v1_nv0_30_2.cpp", line : 132, 
entry:	 ;;;;; filename : "./MicroBenchmark/virtual_v1_nv0/virtual_v1_nv0_30_2.cpp", line : 132, 
  call void @llvm.dbg.value(metadata %class.DD* %this, metadata !283, metadata !DIExpression()), !dbg !284	 ;;;;; filename : "./MicroBenchmark/virtual_v1_nv0/virtual_v1_nv0_30_2.cpp", line : 132, 
  ret void, !dbg !285	 ;;; line : 132, column : 35, filename : "./MicroBenchmark/virtual_v1_nv0/virtual_v1_nv0_30_2.cpp", 
}	 ;;;;; line : 132, column : 35, filename : "./MicroBenchmark/virtual_v1_nv0/virtual_v1_nv0_30_2.cpp", 

; Function Attrs: mustprogress noinline nounwind uwtable
define linkonce_odr dso_local void @_ZN2DD13gg_v_00000009Ev(%class.DD* noundef nonnull align 8 dereferenceable(40) %this) unnamed_addr #4 comdat align 2 !dbg !286 {	 ;;; filename : "./MicroBenchmark/virtual_v1_nv0/virtual_v1_nv0_30_2.cpp", line : 133, 
entry:	 ;;;;; filename : "./MicroBenchmark/virtual_v1_nv0/virtual_v1_nv0_30_2.cpp", line : 133, 
  call void @llvm.dbg.value(metadata %class.DD* %this, metadata !287, metadata !DIExpression()), !dbg !288	 ;;;;; filename : "./MicroBenchmark/virtual_v1_nv0/virtual_v1_nv0_30_2.cpp", line : 133, 
  ret void, !dbg !289	 ;;; line : 133, column : 35, filename : "./MicroBenchmark/virtual_v1_nv0/virtual_v1_nv0_30_2.cpp", 
}	 ;;;;; line : 133, column : 35, filename : "./MicroBenchmark/virtual_v1_nv0/virtual_v1_nv0_30_2.cpp", 

; Function Attrs: mustprogress noinline nounwind uwtable
define linkonce_odr dso_local void @_ZN2DD13gg_v_00000010Ev(%class.DD* noundef nonnull align 8 dereferenceable(40) %this) unnamed_addr #4 comdat align 2 !dbg !290 {	 ;;; filename : "./MicroBenchmark/virtual_v1_nv0/virtual_v1_nv0_30_2.cpp", line : 134, 
entry:	 ;;;;; filename : "./MicroBenchmark/virtual_v1_nv0/virtual_v1_nv0_30_2.cpp", line : 134, 
  call void @llvm.dbg.value(metadata %class.DD* %this, metadata !291, metadata !DIExpression()), !dbg !292	 ;;;;; filename : "./MicroBenchmark/virtual_v1_nv0/virtual_v1_nv0_30_2.cpp", line : 134, 
  ret void, !dbg !293	 ;;; line : 134, column : 35, filename : "./MicroBenchmark/virtual_v1_nv0/virtual_v1_nv0_30_2.cpp", 
}	 ;;;;; line : 134, column : 35, filename : "./MicroBenchmark/virtual_v1_nv0/virtual_v1_nv0_30_2.cpp", 

; Function Attrs: mustprogress noinline nounwind uwtable
define linkonce_odr dso_local void @_ZN2DD13gg_v_00000011Ev(%class.DD* noundef nonnull align 8 dereferenceable(40) %this) unnamed_addr #4 comdat align 2 !dbg !294 {	 ;;; filename : "./MicroBenchmark/virtual_v1_nv0/virtual_v1_nv0_30_2.cpp", line : 135, 
entry:	 ;;;;; filename : "./MicroBenchmark/virtual_v1_nv0/virtual_v1_nv0_30_2.cpp", line : 135, 
  call void @llvm.dbg.value(metadata %class.DD* %this, metadata !295, metadata !DIExpression()), !dbg !296	 ;;;;; filename : "./MicroBenchmark/virtual_v1_nv0/virtual_v1_nv0_30_2.cpp", line : 135, 
  ret void, !dbg !297	 ;;; line : 135, column : 35, filename : "./MicroBenchmark/virtual_v1_nv0/virtual_v1_nv0_30_2.cpp", 
}	 ;;;;; line : 135, column : 35, filename : "./MicroBenchmark/virtual_v1_nv0/virtual_v1_nv0_30_2.cpp", 

; Function Attrs: mustprogress noinline nounwind uwtable
define linkonce_odr dso_local void @_ZN2DD13gg_v_00000012Ev(%class.DD* noundef nonnull align 8 dereferenceable(40) %this) unnamed_addr #4 comdat align 2 !dbg !298 {	 ;;; filename : "./MicroBenchmark/virtual_v1_nv0/virtual_v1_nv0_30_2.cpp", line : 136, 
entry:	 ;;;;; filename : "./MicroBenchmark/virtual_v1_nv0/virtual_v1_nv0_30_2.cpp", line : 136, 
  call void @llvm.dbg.value(metadata %class.DD* %this, metadata !299, metadata !DIExpression()), !dbg !300	 ;;;;; filename : "./MicroBenchmark/virtual_v1_nv0/virtual_v1_nv0_30_2.cpp", line : 136, 
  ret void, !dbg !301	 ;;; line : 136, column : 35, filename : "./MicroBenchmark/virtual_v1_nv0/virtual_v1_nv0_30_2.cpp", 
}	 ;;;;; line : 136, column : 35, filename : "./MicroBenchmark/virtual_v1_nv0/virtual_v1_nv0_30_2.cpp", 

; Function Attrs: mustprogress noinline nounwind uwtable
define linkonce_odr dso_local void @_ZN2DD13gg_v_00000013Ev(%class.DD* noundef nonnull align 8 dereferenceable(40) %this) unnamed_addr #4 comdat align 2 !dbg !302 {	 ;;; filename : "./MicroBenchmark/virtual_v1_nv0/virtual_v1_nv0_30_2.cpp", line : 137, 
entry:	 ;;;;; filename : "./MicroBenchmark/virtual_v1_nv0/virtual_v1_nv0_30_2.cpp", line : 137, 
  call void @llvm.dbg.value(metadata %class.DD* %this, metadata !303, metadata !DIExpression()), !dbg !304	 ;;;;; filename : "./MicroBenchmark/virtual_v1_nv0/virtual_v1_nv0_30_2.cpp", line : 137, 
  ret void, !dbg !305	 ;;; line : 137, column : 35, filename : "./MicroBenchmark/virtual_v1_nv0/virtual_v1_nv0_30_2.cpp", 
}	 ;;;;; line : 137, column : 35, filename : "./MicroBenchmark/virtual_v1_nv0/virtual_v1_nv0_30_2.cpp", 

; Function Attrs: mustprogress noinline nounwind uwtable
define linkonce_odr dso_local void @_ZN2DD13gg_v_00000014Ev(%class.DD* noundef nonnull align 8 dereferenceable(40) %this) unnamed_addr #4 comdat align 2 !dbg !306 {	 ;;; filename : "./MicroBenchmark/virtual_v1_nv0/virtual_v1_nv0_30_2.cpp", line : 138, 
entry:	 ;;;;; filename : "./MicroBenchmark/virtual_v1_nv0/virtual_v1_nv0_30_2.cpp", line : 138, 
  call void @llvm.dbg.value(metadata %class.DD* %this, metadata !307, metadata !DIExpression()), !dbg !308	 ;;;;; filename : "./MicroBenchmark/virtual_v1_nv0/virtual_v1_nv0_30_2.cpp", line : 138, 
  ret void, !dbg !309	 ;;; line : 138, column : 35, filename : "./MicroBenchmark/virtual_v1_nv0/virtual_v1_nv0_30_2.cpp", 
}	 ;;;;; line : 138, column : 35, filename : "./MicroBenchmark/virtual_v1_nv0/virtual_v1_nv0_30_2.cpp", 

; Function Attrs: mustprogress noinline nounwind uwtable
define linkonce_odr dso_local void @_ZN2BB13gg_v_00000015Ev(%class.BB* noundef nonnull align 8 dereferenceable(16) %this) unnamed_addr #4 comdat align 2 !dbg !310 {	 ;;; filename : "./MicroBenchmark/virtual_v1_nv0/virtual_v1_nv0_30_2.cpp", line : 58, 
entry:	 ;;;;; filename : "./MicroBenchmark/virtual_v1_nv0/virtual_v1_nv0_30_2.cpp", line : 58, 
  call void @llvm.dbg.value(metadata %class.BB* %this, metadata !311, metadata !DIExpression()), !dbg !312	 ;;;;; filename : "./MicroBenchmark/virtual_v1_nv0/virtual_v1_nv0_30_2.cpp", line : 58, 
  ret void, !dbg !313	 ;;; line : 58, column : 35, filename : "./MicroBenchmark/virtual_v1_nv0/virtual_v1_nv0_30_2.cpp", 
}	 ;;;;; line : 58, column : 35, filename : "./MicroBenchmark/virtual_v1_nv0/virtual_v1_nv0_30_2.cpp", 

; Function Attrs: mustprogress noinline nounwind uwtable
define linkonce_odr dso_local void @_ZN2BB13gg_v_00000016Ev(%class.BB* noundef nonnull align 8 dereferenceable(16) %this) unnamed_addr #4 comdat align 2 !dbg !314 {	 ;;; filename : "./MicroBenchmark/virtual_v1_nv0/virtual_v1_nv0_30_2.cpp", line : 59, 
entry:	 ;;;;; filename : "./MicroBenchmark/virtual_v1_nv0/virtual_v1_nv0_30_2.cpp", line : 59, 
  call void @llvm.dbg.value(metadata %class.BB* %this, metadata !315, metadata !DIExpression()), !dbg !316	 ;;;;; filename : "./MicroBenchmark/virtual_v1_nv0/virtual_v1_nv0_30_2.cpp", line : 59, 
  ret void, !dbg !317	 ;;; line : 59, column : 35, filename : "./MicroBenchmark/virtual_v1_nv0/virtual_v1_nv0_30_2.cpp", 
}	 ;;;;; line : 59, column : 35, filename : "./MicroBenchmark/virtual_v1_nv0/virtual_v1_nv0_30_2.cpp", 

; Function Attrs: mustprogress noinline nounwind uwtable
define linkonce_odr dso_local void @_ZN2BB13gg_v_00000017Ev(%class.BB* noundef nonnull align 8 dereferenceable(16) %this) unnamed_addr #4 comdat align 2 !dbg !318 {	 ;;; filename : "./MicroBenchmark/virtual_v1_nv0/virtual_v1_nv0_30_2.cpp", line : 60, 
entry:	 ;;;;; filename : "./MicroBenchmark/virtual_v1_nv0/virtual_v1_nv0_30_2.cpp", line : 60, 
  call void @llvm.dbg.value(metadata %class.BB* %this, metadata !319, metadata !DIExpression()), !dbg !320	 ;;;;; filename : "./MicroBenchmark/virtual_v1_nv0/virtual_v1_nv0_30_2.cpp", line : 60, 
  ret void, !dbg !321	 ;;; line : 60, column : 35, filename : "./MicroBenchmark/virtual_v1_nv0/virtual_v1_nv0_30_2.cpp", 
}	 ;;;;; line : 60, column : 35, filename : "./MicroBenchmark/virtual_v1_nv0/virtual_v1_nv0_30_2.cpp", 

; Function Attrs: mustprogress noinline nounwind uwtable
define linkonce_odr dso_local void @_ZN2BB13gg_v_00000018Ev(%class.BB* noundef nonnull align 8 dereferenceable(16) %this) unnamed_addr #4 comdat align 2 !dbg !322 {	 ;;; filename : "./MicroBenchmark/virtual_v1_nv0/virtual_v1_nv0_30_2.cpp", line : 61, 
entry:	 ;;;;; filename : "./MicroBenchmark/virtual_v1_nv0/virtual_v1_nv0_30_2.cpp", line : 61, 
  call void @llvm.dbg.value(metadata %class.BB* %this, metadata !323, metadata !DIExpression()), !dbg !324	 ;;;;; filename : "./MicroBenchmark/virtual_v1_nv0/virtual_v1_nv0_30_2.cpp", line : 61, 
  ret void, !dbg !325	 ;;; line : 61, column : 35, filename : "./MicroBenchmark/virtual_v1_nv0/virtual_v1_nv0_30_2.cpp", 
}	 ;;;;; line : 61, column : 35, filename : "./MicroBenchmark/virtual_v1_nv0/virtual_v1_nv0_30_2.cpp", 

; Function Attrs: mustprogress noinline nounwind uwtable
define linkonce_odr dso_local void @_ZN2BB13gg_v_00000019Ev(%class.BB* noundef nonnull align 8 dereferenceable(16) %this) unnamed_addr #4 comdat align 2 !dbg !326 {	 ;;; filename : "./MicroBenchmark/virtual_v1_nv0/virtual_v1_nv0_30_2.cpp", line : 62, 
entry:	 ;;;;; filename : "./MicroBenchmark/virtual_v1_nv0/virtual_v1_nv0_30_2.cpp", line : 62, 
  call void @llvm.dbg.value(metadata %class.BB* %this, metadata !327, metadata !DIExpression()), !dbg !328	 ;;;;; filename : "./MicroBenchmark/virtual_v1_nv0/virtual_v1_nv0_30_2.cpp", line : 62, 
  ret void, !dbg !329	 ;;; line : 62, column : 35, filename : "./MicroBenchmark/virtual_v1_nv0/virtual_v1_nv0_30_2.cpp", 
}	 ;;;;; line : 62, column : 35, filename : "./MicroBenchmark/virtual_v1_nv0/virtual_v1_nv0_30_2.cpp", 

; Function Attrs: mustprogress noinline nounwind uwtable
define linkonce_odr dso_local void @_ZN2BB13gg_v_00000020Ev(%class.BB* noundef nonnull align 8 dereferenceable(16) %this) unnamed_addr #4 comdat align 2 !dbg !330 {	 ;;; filename : "./MicroBenchmark/virtual_v1_nv0/virtual_v1_nv0_30_2.cpp", line : 63, 
entry:	 ;;;;; filename : "./MicroBenchmark/virtual_v1_nv0/virtual_v1_nv0_30_2.cpp", line : 63, 
  call void @llvm.dbg.value(metadata %class.BB* %this, metadata !331, metadata !DIExpression()), !dbg !332	 ;;;;; filename : "./MicroBenchmark/virtual_v1_nv0/virtual_v1_nv0_30_2.cpp", line : 63, 
  ret void, !dbg !333	 ;;; line : 63, column : 35, filename : "./MicroBenchmark/virtual_v1_nv0/virtual_v1_nv0_30_2.cpp", 
}	 ;;;;; line : 63, column : 35, filename : "./MicroBenchmark/virtual_v1_nv0/virtual_v1_nv0_30_2.cpp", 

; Function Attrs: mustprogress noinline nounwind uwtable
define linkonce_odr dso_local void @_ZN2BB13gg_v_00000021Ev(%class.BB* noundef nonnull align 8 dereferenceable(16) %this) unnamed_addr #4 comdat align 2 !dbg !334 {	 ;;; filename : "./MicroBenchmark/virtual_v1_nv0/virtual_v1_nv0_30_2.cpp", line : 64, 
entry:	 ;;;;; filename : "./MicroBenchmark/virtual_v1_nv0/virtual_v1_nv0_30_2.cpp", line : 64, 
  call void @llvm.dbg.value(metadata %class.BB* %this, metadata !335, metadata !DIExpression()), !dbg !336	 ;;;;; filename : "./MicroBenchmark/virtual_v1_nv0/virtual_v1_nv0_30_2.cpp", line : 64, 
  ret void, !dbg !337	 ;;; line : 64, column : 35, filename : "./MicroBenchmark/virtual_v1_nv0/virtual_v1_nv0_30_2.cpp", 
}	 ;;;;; line : 64, column : 35, filename : "./MicroBenchmark/virtual_v1_nv0/virtual_v1_nv0_30_2.cpp", 

; Function Attrs: mustprogress noinline nounwind uwtable
define linkonce_odr dso_local void @_ZN2BB13gg_v_00000022Ev(%class.BB* noundef nonnull align 8 dereferenceable(16) %this) unnamed_addr #4 comdat align 2 !dbg !338 {	 ;;; filename : "./MicroBenchmark/virtual_v1_nv0/virtual_v1_nv0_30_2.cpp", line : 65, 
entry:	 ;;;;; filename : "./MicroBenchmark/virtual_v1_nv0/virtual_v1_nv0_30_2.cpp", line : 65, 
  call void @llvm.dbg.value(metadata %class.BB* %this, metadata !339, metadata !DIExpression()), !dbg !340	 ;;;;; filename : "./MicroBenchmark/virtual_v1_nv0/virtual_v1_nv0_30_2.cpp", line : 65, 
  ret void, !dbg !341	 ;;; line : 65, column : 35, filename : "./MicroBenchmark/virtual_v1_nv0/virtual_v1_nv0_30_2.cpp", 
}	 ;;;;; line : 65, column : 35, filename : "./MicroBenchmark/virtual_v1_nv0/virtual_v1_nv0_30_2.cpp", 

; Function Attrs: mustprogress noinline nounwind uwtable
define linkonce_odr dso_local void @_ZN2BB13gg_v_00000023Ev(%class.BB* noundef nonnull align 8 dereferenceable(16) %this) unnamed_addr #4 comdat align 2 !dbg !342 {	 ;;; filename : "./MicroBenchmark/virtual_v1_nv0/virtual_v1_nv0_30_2.cpp", line : 66, 
entry:	 ;;;;; filename : "./MicroBenchmark/virtual_v1_nv0/virtual_v1_nv0_30_2.cpp", line : 66, 
  call void @llvm.dbg.value(metadata %class.BB* %this, metadata !343, metadata !DIExpression()), !dbg !344	 ;;;;; filename : "./MicroBenchmark/virtual_v1_nv0/virtual_v1_nv0_30_2.cpp", line : 66, 
  ret void, !dbg !345	 ;;; line : 66, column : 35, filename : "./MicroBenchmark/virtual_v1_nv0/virtual_v1_nv0_30_2.cpp", 
}	 ;;;;; line : 66, column : 35, filename : "./MicroBenchmark/virtual_v1_nv0/virtual_v1_nv0_30_2.cpp", 

; Function Attrs: mustprogress noinline nounwind uwtable
define linkonce_odr dso_local void @_ZN2BB13gg_v_00000024Ev(%class.BB* noundef nonnull align 8 dereferenceable(16) %this) unnamed_addr #4 comdat align 2 !dbg !346 {	 ;;; filename : "./MicroBenchmark/virtual_v1_nv0/virtual_v1_nv0_30_2.cpp", line : 67, 
entry:	 ;;;;; filename : "./MicroBenchmark/virtual_v1_nv0/virtual_v1_nv0_30_2.cpp", line : 67, 
  call void @llvm.dbg.value(metadata %class.BB* %this, metadata !347, metadata !DIExpression()), !dbg !348	 ;;;;; filename : "./MicroBenchmark/virtual_v1_nv0/virtual_v1_nv0_30_2.cpp", line : 67, 
  ret void, !dbg !349	 ;;; line : 67, column : 35, filename : "./MicroBenchmark/virtual_v1_nv0/virtual_v1_nv0_30_2.cpp", 
}	 ;;;;; line : 67, column : 35, filename : "./MicroBenchmark/virtual_v1_nv0/virtual_v1_nv0_30_2.cpp", 

; Function Attrs: mustprogress noinline nounwind uwtable
define linkonce_odr dso_local void @_ZN2BB13gg_v_00000025Ev(%class.BB* noundef nonnull align 8 dereferenceable(16) %this) unnamed_addr #4 comdat align 2 !dbg !350 {	 ;;; filename : "./MicroBenchmark/virtual_v1_nv0/virtual_v1_nv0_30_2.cpp", line : 68, 
entry:	 ;;;;; filename : "./MicroBenchmark/virtual_v1_nv0/virtual_v1_nv0_30_2.cpp", line : 68, 
  call void @llvm.dbg.value(metadata %class.BB* %this, metadata !351, metadata !DIExpression()), !dbg !352	 ;;;;; filename : "./MicroBenchmark/virtual_v1_nv0/virtual_v1_nv0_30_2.cpp", line : 68, 
  ret void, !dbg !353	 ;;; line : 68, column : 35, filename : "./MicroBenchmark/virtual_v1_nv0/virtual_v1_nv0_30_2.cpp", 
}	 ;;;;; line : 68, column : 35, filename : "./MicroBenchmark/virtual_v1_nv0/virtual_v1_nv0_30_2.cpp", 

; Function Attrs: mustprogress noinline nounwind uwtable
define linkonce_odr dso_local void @_ZN2BB13gg_v_00000026Ev(%class.BB* noundef nonnull align 8 dereferenceable(16) %this) unnamed_addr #4 comdat align 2 !dbg !354 {	 ;;; filename : "./MicroBenchmark/virtual_v1_nv0/virtual_v1_nv0_30_2.cpp", line : 69, 
entry:	 ;;;;; filename : "./MicroBenchmark/virtual_v1_nv0/virtual_v1_nv0_30_2.cpp", line : 69, 
  call void @llvm.dbg.value(metadata %class.BB* %this, metadata !355, metadata !DIExpression()), !dbg !356	 ;;;;; filename : "./MicroBenchmark/virtual_v1_nv0/virtual_v1_nv0_30_2.cpp", line : 69, 
  ret void, !dbg !357	 ;;; line : 69, column : 35, filename : "./MicroBenchmark/virtual_v1_nv0/virtual_v1_nv0_30_2.cpp", 
}	 ;;;;; line : 69, column : 35, filename : "./MicroBenchmark/virtual_v1_nv0/virtual_v1_nv0_30_2.cpp", 

; Function Attrs: mustprogress noinline nounwind uwtable
define linkonce_odr dso_local void @_ZN2BB13gg_v_00000027Ev(%class.BB* noundef nonnull align 8 dereferenceable(16) %this) unnamed_addr #4 comdat align 2 !dbg !358 {	 ;;; filename : "./MicroBenchmark/virtual_v1_nv0/virtual_v1_nv0_30_2.cpp", line : 70, 
entry:	 ;;;;; filename : "./MicroBenchmark/virtual_v1_nv0/virtual_v1_nv0_30_2.cpp", line : 70, 
  call void @llvm.dbg.value(metadata %class.BB* %this, metadata !359, metadata !DIExpression()), !dbg !360	 ;;;;; filename : "./MicroBenchmark/virtual_v1_nv0/virtual_v1_nv0_30_2.cpp", line : 70, 
  ret void, !dbg !361	 ;;; line : 70, column : 35, filename : "./MicroBenchmark/virtual_v1_nv0/virtual_v1_nv0_30_2.cpp", 
}	 ;;;;; line : 70, column : 35, filename : "./MicroBenchmark/virtual_v1_nv0/virtual_v1_nv0_30_2.cpp", 

; Function Attrs: mustprogress noinline nounwind uwtable
define linkonce_odr dso_local void @_ZN2BB13gg_v_00000028Ev(%class.BB* noundef nonnull align 8 dereferenceable(16) %this) unnamed_addr #4 comdat align 2 !dbg !362 {	 ;;; filename : "./MicroBenchmark/virtual_v1_nv0/virtual_v1_nv0_30_2.cpp", line : 71, 
entry:	 ;;;;; filename : "./MicroBenchmark/virtual_v1_nv0/virtual_v1_nv0_30_2.cpp", line : 71, 
  call void @llvm.dbg.value(metadata %class.BB* %this, metadata !363, metadata !DIExpression()), !dbg !364	 ;;;;; filename : "./MicroBenchmark/virtual_v1_nv0/virtual_v1_nv0_30_2.cpp", line : 71, 
  ret void, !dbg !365	 ;;; line : 71, column : 35, filename : "./MicroBenchmark/virtual_v1_nv0/virtual_v1_nv0_30_2.cpp", 
}	 ;;;;; line : 71, column : 35, filename : "./MicroBenchmark/virtual_v1_nv0/virtual_v1_nv0_30_2.cpp", 

; Function Attrs: mustprogress noinline nounwind uwtable
define linkonce_odr dso_local void @_ZN2BB13gg_v_00000029Ev(%class.BB* noundef nonnull align 8 dereferenceable(16) %this) unnamed_addr #4 comdat align 2 !dbg !366 {	 ;;; filename : "./MicroBenchmark/virtual_v1_nv0/virtual_v1_nv0_30_2.cpp", line : 72, 
entry:	 ;;;;; filename : "./MicroBenchmark/virtual_v1_nv0/virtual_v1_nv0_30_2.cpp", line : 72, 
  call void @llvm.dbg.value(metadata %class.BB* %this, metadata !367, metadata !DIExpression()), !dbg !368	 ;;;;; filename : "./MicroBenchmark/virtual_v1_nv0/virtual_v1_nv0_30_2.cpp", line : 72, 
  ret void, !dbg !369	 ;;; line : 72, column : 35, filename : "./MicroBenchmark/virtual_v1_nv0/virtual_v1_nv0_30_2.cpp", 
}	 ;;;;; line : 72, column : 35, filename : "./MicroBenchmark/virtual_v1_nv0/virtual_v1_nv0_30_2.cpp", 

; Function Attrs: mustprogress noinline nounwind uwtable
define linkonce_odr dso_local void @_ZN2DD13kk_v_00000000Ev(%class.DD* noundef nonnull align 8 dereferenceable(40) %this) unnamed_addr #4 comdat align 2 !dbg !370 {	 ;;; filename : "./MicroBenchmark/virtual_v1_nv0/virtual_v1_nv0_30_2.cpp", line : 117, 
entry:	 ;;;;; filename : "./MicroBenchmark/virtual_v1_nv0/virtual_v1_nv0_30_2.cpp", line : 117, 
  call void @llvm.dbg.value(metadata %class.DD* %this, metadata !371, metadata !DIExpression()), !dbg !372	 ;;;;; filename : "./MicroBenchmark/virtual_v1_nv0/virtual_v1_nv0_30_2.cpp", line : 117, 
  ret void, !dbg !373	 ;;; line : 117, column : 35, filename : "./MicroBenchmark/virtual_v1_nv0/virtual_v1_nv0_30_2.cpp", 
}	 ;;;;; line : 117, column : 35, filename : "./MicroBenchmark/virtual_v1_nv0/virtual_v1_nv0_30_2.cpp", 

; Function Attrs: mustprogress noinline nounwind uwtable
define linkonce_odr dso_local void @_ZN2DD13kk_v_00000001Ev(%class.DD* noundef nonnull align 8 dereferenceable(40) %this) unnamed_addr #4 comdat align 2 !dbg !374 {	 ;;; filename : "./MicroBenchmark/virtual_v1_nv0/virtual_v1_nv0_30_2.cpp", line : 118, 
entry:	 ;;;;; filename : "./MicroBenchmark/virtual_v1_nv0/virtual_v1_nv0_30_2.cpp", line : 118, 
  call void @llvm.dbg.value(metadata %class.DD* %this, metadata !375, metadata !DIExpression()), !dbg !376	 ;;;;; filename : "./MicroBenchmark/virtual_v1_nv0/virtual_v1_nv0_30_2.cpp", line : 118, 
  ret void, !dbg !377	 ;;; line : 118, column : 35, filename : "./MicroBenchmark/virtual_v1_nv0/virtual_v1_nv0_30_2.cpp", 
}	 ;;;;; line : 118, column : 35, filename : "./MicroBenchmark/virtual_v1_nv0/virtual_v1_nv0_30_2.cpp", 

; Function Attrs: mustprogress noinline nounwind uwtable
define linkonce_odr dso_local void @_ZN2DD13kk_v_00000002Ev(%class.DD* noundef nonnull align 8 dereferenceable(40) %this) unnamed_addr #4 comdat align 2 !dbg !378 {	 ;;; filename : "./MicroBenchmark/virtual_v1_nv0/virtual_v1_nv0_30_2.cpp", line : 119, 
entry:	 ;;;;; filename : "./MicroBenchmark/virtual_v1_nv0/virtual_v1_nv0_30_2.cpp", line : 119, 
  call void @llvm.dbg.value(metadata %class.DD* %this, metadata !379, metadata !DIExpression()), !dbg !380	 ;;;;; filename : "./MicroBenchmark/virtual_v1_nv0/virtual_v1_nv0_30_2.cpp", line : 119, 
  ret void, !dbg !381	 ;;; line : 119, column : 35, filename : "./MicroBenchmark/virtual_v1_nv0/virtual_v1_nv0_30_2.cpp", 
}	 ;;;;; line : 119, column : 35, filename : "./MicroBenchmark/virtual_v1_nv0/virtual_v1_nv0_30_2.cpp", 

; Function Attrs: mustprogress noinline nounwind uwtable
define linkonce_odr dso_local void @_ZN2DD13kk_v_00000003Ev(%class.DD* noundef nonnull align 8 dereferenceable(40) %this) unnamed_addr #4 comdat align 2 !dbg !382 {	 ;;; filename : "./MicroBenchmark/virtual_v1_nv0/virtual_v1_nv0_30_2.cpp", line : 120, 
entry:	 ;;;;; filename : "./MicroBenchmark/virtual_v1_nv0/virtual_v1_nv0_30_2.cpp", line : 120, 
  call void @llvm.dbg.value(metadata %class.DD* %this, metadata !383, metadata !DIExpression()), !dbg !384	 ;;;;; filename : "./MicroBenchmark/virtual_v1_nv0/virtual_v1_nv0_30_2.cpp", line : 120, 
  ret void, !dbg !385	 ;;; line : 120, column : 35, filename : "./MicroBenchmark/virtual_v1_nv0/virtual_v1_nv0_30_2.cpp", 
}	 ;;;;; line : 120, column : 35, filename : "./MicroBenchmark/virtual_v1_nv0/virtual_v1_nv0_30_2.cpp", 

; Function Attrs: mustprogress noinline nounwind uwtable
define linkonce_odr dso_local void @_ZN2DD13kk_v_00000004Ev(%class.DD* noundef nonnull align 8 dereferenceable(40) %this) unnamed_addr #4 comdat align 2 !dbg !386 {	 ;;; filename : "./MicroBenchmark/virtual_v1_nv0/virtual_v1_nv0_30_2.cpp", line : 121, 
entry:	 ;;;;; filename : "./MicroBenchmark/virtual_v1_nv0/virtual_v1_nv0_30_2.cpp", line : 121, 
  call void @llvm.dbg.value(metadata %class.DD* %this, metadata !387, metadata !DIExpression()), !dbg !388	 ;;;;; filename : "./MicroBenchmark/virtual_v1_nv0/virtual_v1_nv0_30_2.cpp", line : 121, 
  ret void, !dbg !389	 ;;; line : 121, column : 35, filename : "./MicroBenchmark/virtual_v1_nv0/virtual_v1_nv0_30_2.cpp", 
}	 ;;;;; line : 121, column : 35, filename : "./MicroBenchmark/virtual_v1_nv0/virtual_v1_nv0_30_2.cpp", 

; Function Attrs: mustprogress noinline nounwind uwtable
define linkonce_odr dso_local void @_ZN2DD13kk_v_00000005Ev(%class.DD* noundef nonnull align 8 dereferenceable(40) %this) unnamed_addr #4 comdat align 2 !dbg !390 {	 ;;; filename : "./MicroBenchmark/virtual_v1_nv0/virtual_v1_nv0_30_2.cpp", line : 122, 
entry:	 ;;;;; filename : "./MicroBenchmark/virtual_v1_nv0/virtual_v1_nv0_30_2.cpp", line : 122, 
  call void @llvm.dbg.value(metadata %class.DD* %this, metadata !391, metadata !DIExpression()), !dbg !392	 ;;;;; filename : "./MicroBenchmark/virtual_v1_nv0/virtual_v1_nv0_30_2.cpp", line : 122, 
  ret void, !dbg !393	 ;;; line : 122, column : 35, filename : "./MicroBenchmark/virtual_v1_nv0/virtual_v1_nv0_30_2.cpp", 
}	 ;;;;; line : 122, column : 35, filename : "./MicroBenchmark/virtual_v1_nv0/virtual_v1_nv0_30_2.cpp", 

; Function Attrs: mustprogress noinline nounwind uwtable
define linkonce_odr dso_local void @_ZN2DD13hh_v_00000000Ev(%class.DD* noundef nonnull align 8 dereferenceable(40) %this) unnamed_addr #4 comdat align 2 !dbg !394 {	 ;;; filename : "./MicroBenchmark/virtual_v1_nv0/virtual_v1_nv0_30_2.cpp", line : 140, 
entry:	 ;;;;; filename : "./MicroBenchmark/virtual_v1_nv0/virtual_v1_nv0_30_2.cpp", line : 140, 
  call void @llvm.dbg.value(metadata %class.DD* %this, metadata !395, metadata !DIExpression()), !dbg !396	 ;;;;; filename : "./MicroBenchmark/virtual_v1_nv0/virtual_v1_nv0_30_2.cpp", line : 140, 
  ret void, !dbg !397	 ;;; line : 140, column : 35, filename : "./MicroBenchmark/virtual_v1_nv0/virtual_v1_nv0_30_2.cpp", 
}	 ;;;;; line : 140, column : 35, filename : "./MicroBenchmark/virtual_v1_nv0/virtual_v1_nv0_30_2.cpp", 

; Function Attrs: mustprogress noinline nounwind uwtable
define linkonce_odr dso_local void @_ZN2DD13hh_v_00000001Ev(%class.DD* noundef nonnull align 8 dereferenceable(40) %this) unnamed_addr #4 comdat align 2 !dbg !398 {	 ;;; filename : "./MicroBenchmark/virtual_v1_nv0/virtual_v1_nv0_30_2.cpp", line : 141, 
entry:	 ;;;;; filename : "./MicroBenchmark/virtual_v1_nv0/virtual_v1_nv0_30_2.cpp", line : 141, 
  call void @llvm.dbg.value(metadata %class.DD* %this, metadata !399, metadata !DIExpression()), !dbg !400	 ;;;;; filename : "./MicroBenchmark/virtual_v1_nv0/virtual_v1_nv0_30_2.cpp", line : 141, 
  ret void, !dbg !401	 ;;; line : 141, column : 35, filename : "./MicroBenchmark/virtual_v1_nv0/virtual_v1_nv0_30_2.cpp", 
}	 ;;;;; line : 141, column : 35, filename : "./MicroBenchmark/virtual_v1_nv0/virtual_v1_nv0_30_2.cpp", 

; Function Attrs: mustprogress noinline nounwind uwtable
define linkonce_odr dso_local void @_ZN2DD13hh_v_00000002Ev(%class.DD* noundef nonnull align 8 dereferenceable(40) %this) unnamed_addr #4 comdat align 2 !dbg !402 {	 ;;; filename : "./MicroBenchmark/virtual_v1_nv0/virtual_v1_nv0_30_2.cpp", line : 142, 
entry:	 ;;;;; filename : "./MicroBenchmark/virtual_v1_nv0/virtual_v1_nv0_30_2.cpp", line : 142, 
  call void @llvm.dbg.value(metadata %class.DD* %this, metadata !403, metadata !DIExpression()), !dbg !404	 ;;;;; filename : "./MicroBenchmark/virtual_v1_nv0/virtual_v1_nv0_30_2.cpp", line : 142, 
  ret void, !dbg !405	 ;;; line : 142, column : 35, filename : "./MicroBenchmark/virtual_v1_nv0/virtual_v1_nv0_30_2.cpp", 
}	 ;;;;; line : 142, column : 35, filename : "./MicroBenchmark/virtual_v1_nv0/virtual_v1_nv0_30_2.cpp", 

; Function Attrs: mustprogress noinline nounwind uwtable
define linkonce_odr dso_local void @_ZN2DD13hh_v_00000003Ev(%class.DD* noundef nonnull align 8 dereferenceable(40) %this) unnamed_addr #4 comdat align 2 !dbg !406 {	 ;;; filename : "./MicroBenchmark/virtual_v1_nv0/virtual_v1_nv0_30_2.cpp", line : 143, 
entry:	 ;;;;; filename : "./MicroBenchmark/virtual_v1_nv0/virtual_v1_nv0_30_2.cpp", line : 143, 
  call void @llvm.dbg.value(metadata %class.DD* %this, metadata !407, metadata !DIExpression()), !dbg !408	 ;;;;; filename : "./MicroBenchmark/virtual_v1_nv0/virtual_v1_nv0_30_2.cpp", line : 143, 
  ret void, !dbg !409	 ;;; line : 143, column : 35, filename : "./MicroBenchmark/virtual_v1_nv0/virtual_v1_nv0_30_2.cpp", 
}	 ;;;;; line : 143, column : 35, filename : "./MicroBenchmark/virtual_v1_nv0/virtual_v1_nv0_30_2.cpp", 

; Function Attrs: mustprogress noinline nounwind uwtable
define linkonce_odr dso_local void @_ZN2DD13hh_v_00000004Ev(%class.DD* noundef nonnull align 8 dereferenceable(40) %this) unnamed_addr #4 comdat align 2 !dbg !410 {	 ;;; filename : "./MicroBenchmark/virtual_v1_nv0/virtual_v1_nv0_30_2.cpp", line : 144, 
entry:	 ;;;;; filename : "./MicroBenchmark/virtual_v1_nv0/virtual_v1_nv0_30_2.cpp", line : 144, 
  call void @llvm.dbg.value(metadata %class.DD* %this, metadata !411, metadata !DIExpression()), !dbg !412	 ;;;;; filename : "./MicroBenchmark/virtual_v1_nv0/virtual_v1_nv0_30_2.cpp", line : 144, 
  ret void, !dbg !413	 ;;; line : 144, column : 35, filename : "./MicroBenchmark/virtual_v1_nv0/virtual_v1_nv0_30_2.cpp", 
}	 ;;;;; line : 144, column : 35, filename : "./MicroBenchmark/virtual_v1_nv0/virtual_v1_nv0_30_2.cpp", 

; Function Attrs: mustprogress noinline nounwind uwtable
define linkonce_odr dso_local void @_ZN2DD13hh_v_00000005Ev(%class.DD* noundef nonnull align 8 dereferenceable(40) %this) unnamed_addr #4 comdat align 2 !dbg !414 {	 ;;; filename : "./MicroBenchmark/virtual_v1_nv0/virtual_v1_nv0_30_2.cpp", line : 145, 
entry:	 ;;;;; filename : "./MicroBenchmark/virtual_v1_nv0/virtual_v1_nv0_30_2.cpp", line : 145, 
  call void @llvm.dbg.value(metadata %class.DD* %this, metadata !415, metadata !DIExpression()), !dbg !416	 ;;;;; filename : "./MicroBenchmark/virtual_v1_nv0/virtual_v1_nv0_30_2.cpp", line : 145, 
  ret void, !dbg !417	 ;;; line : 145, column : 35, filename : "./MicroBenchmark/virtual_v1_nv0/virtual_v1_nv0_30_2.cpp", 
}	 ;;;;; line : 145, column : 35, filename : "./MicroBenchmark/virtual_v1_nv0/virtual_v1_nv0_30_2.cpp", 

; Function Attrs: mustprogress noinline nounwind uwtable
define linkonce_odr dso_local void @_ZN2DD13hh_v_00000006Ev(%class.DD* noundef nonnull align 8 dereferenceable(40) %this) unnamed_addr #4 comdat align 2 !dbg !418 {	 ;;; filename : "./MicroBenchmark/virtual_v1_nv0/virtual_v1_nv0_30_2.cpp", line : 146, 
entry:	 ;;;;; filename : "./MicroBenchmark/virtual_v1_nv0/virtual_v1_nv0_30_2.cpp", line : 146, 
  call void @llvm.dbg.value(metadata %class.DD* %this, metadata !419, metadata !DIExpression()), !dbg !420	 ;;;;; filename : "./MicroBenchmark/virtual_v1_nv0/virtual_v1_nv0_30_2.cpp", line : 146, 
  ret void, !dbg !421	 ;;; line : 146, column : 35, filename : "./MicroBenchmark/virtual_v1_nv0/virtual_v1_nv0_30_2.cpp", 
}	 ;;;;; line : 146, column : 35, filename : "./MicroBenchmark/virtual_v1_nv0/virtual_v1_nv0_30_2.cpp", 

; Function Attrs: mustprogress noinline nounwind uwtable
define linkonce_odr dso_local void @_ZN2DD13hh_v_00000007Ev(%class.DD* noundef nonnull align 8 dereferenceable(40) %this) unnamed_addr #4 comdat align 2 !dbg !422 {	 ;;; filename : "./MicroBenchmark/virtual_v1_nv0/virtual_v1_nv0_30_2.cpp", line : 147, 
entry:	 ;;;;; filename : "./MicroBenchmark/virtual_v1_nv0/virtual_v1_nv0_30_2.cpp", line : 147, 
  call void @llvm.dbg.value(metadata %class.DD* %this, metadata !423, metadata !DIExpression()), !dbg !424	 ;;;;; filename : "./MicroBenchmark/virtual_v1_nv0/virtual_v1_nv0_30_2.cpp", line : 147, 
  ret void, !dbg !425	 ;;; line : 147, column : 35, filename : "./MicroBenchmark/virtual_v1_nv0/virtual_v1_nv0_30_2.cpp", 
}	 ;;;;; line : 147, column : 35, filename : "./MicroBenchmark/virtual_v1_nv0/virtual_v1_nv0_30_2.cpp", 

; Function Attrs: mustprogress noinline nounwind uwtable
define linkonce_odr dso_local void @_ZN2DD13hh_v_00000008Ev(%class.DD* noundef nonnull align 8 dereferenceable(40) %this) unnamed_addr #4 comdat align 2 !dbg !426 {	 ;;; filename : "./MicroBenchmark/virtual_v1_nv0/virtual_v1_nv0_30_2.cpp", line : 148, 
entry:	 ;;;;; filename : "./MicroBenchmark/virtual_v1_nv0/virtual_v1_nv0_30_2.cpp", line : 148, 
  call void @llvm.dbg.value(metadata %class.DD* %this, metadata !427, metadata !DIExpression()), !dbg !428	 ;;;;; filename : "./MicroBenchmark/virtual_v1_nv0/virtual_v1_nv0_30_2.cpp", line : 148, 
  ret void, !dbg !429	 ;;; line : 148, column : 35, filename : "./MicroBenchmark/virtual_v1_nv0/virtual_v1_nv0_30_2.cpp", 
}	 ;;;;; line : 148, column : 35, filename : "./MicroBenchmark/virtual_v1_nv0/virtual_v1_nv0_30_2.cpp", 

; Function Attrs: mustprogress noinline nounwind uwtable
define linkonce_odr dso_local void @_ZN2DD13hh_v_00000009Ev(%class.DD* noundef nonnull align 8 dereferenceable(40) %this) unnamed_addr #4 comdat align 2 !dbg !430 {	 ;;; filename : "./MicroBenchmark/virtual_v1_nv0/virtual_v1_nv0_30_2.cpp", line : 149, 
entry:	 ;;;;; filename : "./MicroBenchmark/virtual_v1_nv0/virtual_v1_nv0_30_2.cpp", line : 149, 
  call void @llvm.dbg.value(metadata %class.DD* %this, metadata !431, metadata !DIExpression()), !dbg !432	 ;;;;; filename : "./MicroBenchmark/virtual_v1_nv0/virtual_v1_nv0_30_2.cpp", line : 149, 
  ret void, !dbg !433	 ;;; line : 149, column : 35, filename : "./MicroBenchmark/virtual_v1_nv0/virtual_v1_nv0_30_2.cpp", 
}	 ;;;;; line : 149, column : 35, filename : "./MicroBenchmark/virtual_v1_nv0/virtual_v1_nv0_30_2.cpp", 

; Function Attrs: mustprogress noinline nounwind uwtable
define linkonce_odr dso_local void @_ZN2DD13hh_v_00000010Ev(%class.DD* noundef nonnull align 8 dereferenceable(40) %this) unnamed_addr #4 comdat align 2 !dbg !434 {	 ;;; filename : "./MicroBenchmark/virtual_v1_nv0/virtual_v1_nv0_30_2.cpp", line : 150, 
entry:	 ;;;;; filename : "./MicroBenchmark/virtual_v1_nv0/virtual_v1_nv0_30_2.cpp", line : 150, 
  call void @llvm.dbg.value(metadata %class.DD* %this, metadata !435, metadata !DIExpression()), !dbg !436	 ;;;;; filename : "./MicroBenchmark/virtual_v1_nv0/virtual_v1_nv0_30_2.cpp", line : 150, 
  ret void, !dbg !437	 ;;; line : 150, column : 35, filename : "./MicroBenchmark/virtual_v1_nv0/virtual_v1_nv0_30_2.cpp", 
}	 ;;;;; line : 150, column : 35, filename : "./MicroBenchmark/virtual_v1_nv0/virtual_v1_nv0_30_2.cpp", 

; Function Attrs: mustprogress noinline nounwind uwtable
define linkonce_odr dso_local void @_ZN2DD13ff_v_00000000Ev(%class.DD* noundef nonnull align 8 dereferenceable(40) %this) unnamed_addr #4 comdat align 2 !dbg !438 {	 ;;; filename : "./MicroBenchmark/virtual_v1_nv0/virtual_v1_nv0_30_2.cpp", line : 152, 
entry:	 ;;;;; filename : "./MicroBenchmark/virtual_v1_nv0/virtual_v1_nv0_30_2.cpp", line : 152, 
  call void @llvm.dbg.value(metadata %class.DD* %this, metadata !439, metadata !DIExpression()), !dbg !440	 ;;;;; filename : "./MicroBenchmark/virtual_v1_nv0/virtual_v1_nv0_30_2.cpp", line : 152, 
  ret void, !dbg !441	 ;;; line : 152, column : 35, filename : "./MicroBenchmark/virtual_v1_nv0/virtual_v1_nv0_30_2.cpp", 
}	 ;;;;; line : 152, column : 35, filename : "./MicroBenchmark/virtual_v1_nv0/virtual_v1_nv0_30_2.cpp", 

; Function Attrs: mustprogress noinline nounwind uwtable
define linkonce_odr dso_local void @_ZN2DD13ff_v_00000001Ev(%class.DD* noundef nonnull align 8 dereferenceable(40) %this) unnamed_addr #4 comdat align 2 !dbg !442 {	 ;;; filename : "./MicroBenchmark/virtual_v1_nv0/virtual_v1_nv0_30_2.cpp", line : 153, 
entry:	 ;;;;; filename : "./MicroBenchmark/virtual_v1_nv0/virtual_v1_nv0_30_2.cpp", line : 153, 
  call void @llvm.dbg.value(metadata %class.DD* %this, metadata !443, metadata !DIExpression()), !dbg !444	 ;;;;; filename : "./MicroBenchmark/virtual_v1_nv0/virtual_v1_nv0_30_2.cpp", line : 153, 
  ret void, !dbg !445	 ;;; line : 153, column : 35, filename : "./MicroBenchmark/virtual_v1_nv0/virtual_v1_nv0_30_2.cpp", 
}	 ;;;;; line : 153, column : 35, filename : "./MicroBenchmark/virtual_v1_nv0/virtual_v1_nv0_30_2.cpp", 

; Function Attrs: mustprogress noinline nounwind uwtable
define linkonce_odr dso_local void @_ZN2DD13ff_v_00000002Ev(%class.DD* noundef nonnull align 8 dereferenceable(40) %this) unnamed_addr #4 comdat align 2 !dbg !446 {	 ;;; filename : "./MicroBenchmark/virtual_v1_nv0/virtual_v1_nv0_30_2.cpp", line : 154, 
entry:	 ;;;;; filename : "./MicroBenchmark/virtual_v1_nv0/virtual_v1_nv0_30_2.cpp", line : 154, 
  call void @llvm.dbg.value(metadata %class.DD* %this, metadata !447, metadata !DIExpression()), !dbg !448	 ;;;;; filename : "./MicroBenchmark/virtual_v1_nv0/virtual_v1_nv0_30_2.cpp", line : 154, 
  ret void, !dbg !449	 ;;; line : 154, column : 35, filename : "./MicroBenchmark/virtual_v1_nv0/virtual_v1_nv0_30_2.cpp", 
}	 ;;;;; line : 154, column : 35, filename : "./MicroBenchmark/virtual_v1_nv0/virtual_v1_nv0_30_2.cpp", 

; Function Attrs: mustprogress noinline nounwind uwtable
define linkonce_odr dso_local void @_ZN2DD13ff_v_00000003Ev(%class.DD* noundef nonnull align 8 dereferenceable(40) %this) unnamed_addr #4 comdat align 2 !dbg !450 {	 ;;; filename : "./MicroBenchmark/virtual_v1_nv0/virtual_v1_nv0_30_2.cpp", line : 155, 
entry:	 ;;;;; filename : "./MicroBenchmark/virtual_v1_nv0/virtual_v1_nv0_30_2.cpp", line : 155, 
  call void @llvm.dbg.value(metadata %class.DD* %this, metadata !451, metadata !DIExpression()), !dbg !452	 ;;;;; filename : "./MicroBenchmark/virtual_v1_nv0/virtual_v1_nv0_30_2.cpp", line : 155, 
  ret void, !dbg !453	 ;;; line : 155, column : 35, filename : "./MicroBenchmark/virtual_v1_nv0/virtual_v1_nv0_30_2.cpp", 
}	 ;;;;; line : 155, column : 35, filename : "./MicroBenchmark/virtual_v1_nv0/virtual_v1_nv0_30_2.cpp", 

; Function Attrs: mustprogress noinline nounwind uwtable
define linkonce_odr dso_local void @_ZN2DD13ff_v_00000004Ev(%class.DD* noundef nonnull align 8 dereferenceable(40) %this) unnamed_addr #4 comdat align 2 !dbg !454 {	 ;;; filename : "./MicroBenchmark/virtual_v1_nv0/virtual_v1_nv0_30_2.cpp", line : 156, 
entry:	 ;;;;; filename : "./MicroBenchmark/virtual_v1_nv0/virtual_v1_nv0_30_2.cpp", line : 156, 
  call void @llvm.dbg.value(metadata %class.DD* %this, metadata !455, metadata !DIExpression()), !dbg !456	 ;;;;; filename : "./MicroBenchmark/virtual_v1_nv0/virtual_v1_nv0_30_2.cpp", line : 156, 
  ret void, !dbg !457	 ;;; line : 156, column : 35, filename : "./MicroBenchmark/virtual_v1_nv0/virtual_v1_nv0_30_2.cpp", 
}	 ;;;;; line : 156, column : 35, filename : "./MicroBenchmark/virtual_v1_nv0/virtual_v1_nv0_30_2.cpp", 

; Function Attrs: mustprogress noinline nounwind uwtable
define linkonce_odr dso_local void @_ZN2DD13ff_v_00000005Ev(%class.DD* noundef nonnull align 8 dereferenceable(40) %this) unnamed_addr #4 comdat align 2 !dbg !458 {	 ;;; filename : "./MicroBenchmark/virtual_v1_nv0/virtual_v1_nv0_30_2.cpp", line : 157, 
entry:	 ;;;;; filename : "./MicroBenchmark/virtual_v1_nv0/virtual_v1_nv0_30_2.cpp", line : 157, 
  call void @llvm.dbg.value(metadata %class.DD* %this, metadata !459, metadata !DIExpression()), !dbg !460	 ;;;;; filename : "./MicroBenchmark/virtual_v1_nv0/virtual_v1_nv0_30_2.cpp", line : 157, 
  ret void, !dbg !461	 ;;; line : 157, column : 35, filename : "./MicroBenchmark/virtual_v1_nv0/virtual_v1_nv0_30_2.cpp", 
}	 ;;;;; line : 157, column : 35, filename : "./MicroBenchmark/virtual_v1_nv0/virtual_v1_nv0_30_2.cpp", 

; Function Attrs: mustprogress noinline nounwind uwtable
define linkonce_odr dso_local void @_ZN2DD13ff_v_00000006Ev(%class.DD* noundef nonnull align 8 dereferenceable(40) %this) unnamed_addr #4 comdat align 2 !dbg !462 {	 ;;; filename : "./MicroBenchmark/virtual_v1_nv0/virtual_v1_nv0_30_2.cpp", line : 158, 
entry:	 ;;;;; filename : "./MicroBenchmark/virtual_v1_nv0/virtual_v1_nv0_30_2.cpp", line : 158, 
  call void @llvm.dbg.value(metadata %class.DD* %this, metadata !463, metadata !DIExpression()), !dbg !464	 ;;;;; filename : "./MicroBenchmark/virtual_v1_nv0/virtual_v1_nv0_30_2.cpp", line : 158, 
  ret void, !dbg !465	 ;;; line : 158, column : 35, filename : "./MicroBenchmark/virtual_v1_nv0/virtual_v1_nv0_30_2.cpp", 
}	 ;;;;; line : 158, column : 35, filename : "./MicroBenchmark/virtual_v1_nv0/virtual_v1_nv0_30_2.cpp", 

; Function Attrs: mustprogress noinline nounwind uwtable
define linkonce_odr dso_local void @_ZN2DD13ff_v_00000007Ev(%class.DD* noundef nonnull align 8 dereferenceable(40) %this) unnamed_addr #4 comdat align 2 !dbg !466 {	 ;;; filename : "./MicroBenchmark/virtual_v1_nv0/virtual_v1_nv0_30_2.cpp", line : 159, 
entry:	 ;;;;; filename : "./MicroBenchmark/virtual_v1_nv0/virtual_v1_nv0_30_2.cpp", line : 159, 
  call void @llvm.dbg.value(metadata %class.DD* %this, metadata !467, metadata !DIExpression()), !dbg !468	 ;;;;; filename : "./MicroBenchmark/virtual_v1_nv0/virtual_v1_nv0_30_2.cpp", line : 159, 
  ret void, !dbg !469	 ;;; line : 159, column : 35, filename : "./MicroBenchmark/virtual_v1_nv0/virtual_v1_nv0_30_2.cpp", 
}	 ;;;;; line : 159, column : 35, filename : "./MicroBenchmark/virtual_v1_nv0/virtual_v1_nv0_30_2.cpp", 

; Function Attrs: mustprogress noinline nounwind uwtable
define linkonce_odr dso_local void @_ZN2DD13ff_v_00000008Ev(%class.DD* noundef nonnull align 8 dereferenceable(40) %this) unnamed_addr #4 comdat align 2 !dbg !470 {	 ;;; filename : "./MicroBenchmark/virtual_v1_nv0/virtual_v1_nv0_30_2.cpp", line : 160, 
entry:	 ;;;;; filename : "./MicroBenchmark/virtual_v1_nv0/virtual_v1_nv0_30_2.cpp", line : 160, 
  call void @llvm.dbg.value(metadata %class.DD* %this, metadata !471, metadata !DIExpression()), !dbg !472	 ;;;;; filename : "./MicroBenchmark/virtual_v1_nv0/virtual_v1_nv0_30_2.cpp", line : 160, 
  ret void, !dbg !473	 ;;; line : 160, column : 35, filename : "./MicroBenchmark/virtual_v1_nv0/virtual_v1_nv0_30_2.cpp", 
}	 ;;;;; line : 160, column : 35, filename : "./MicroBenchmark/virtual_v1_nv0/virtual_v1_nv0_30_2.cpp", 

; Function Attrs: mustprogress noinline nounwind uwtable
define linkonce_odr dso_local void @_ZN2DD13ff_v_00000009Ev(%class.DD* noundef nonnull align 8 dereferenceable(40) %this) unnamed_addr #4 comdat align 2 !dbg !474 {	 ;;; filename : "./MicroBenchmark/virtual_v1_nv0/virtual_v1_nv0_30_2.cpp", line : 161, 
entry:	 ;;;;; filename : "./MicroBenchmark/virtual_v1_nv0/virtual_v1_nv0_30_2.cpp", line : 161, 
  call void @llvm.dbg.value(metadata %class.DD* %this, metadata !475, metadata !DIExpression()), !dbg !476	 ;;;;; filename : "./MicroBenchmark/virtual_v1_nv0/virtual_v1_nv0_30_2.cpp", line : 161, 
  ret void, !dbg !477	 ;;; line : 161, column : 35, filename : "./MicroBenchmark/virtual_v1_nv0/virtual_v1_nv0_30_2.cpp", 
}	 ;;;;; line : 161, column : 35, filename : "./MicroBenchmark/virtual_v1_nv0/virtual_v1_nv0_30_2.cpp", 

; Function Attrs: mustprogress noinline nounwind uwtable
define linkonce_odr dso_local void @_ZN2DD13ff_v_00000010Ev(%class.DD* noundef nonnull align 8 dereferenceable(40) %this) unnamed_addr #4 comdat align 2 !dbg !478 {	 ;;; filename : "./MicroBenchmark/virtual_v1_nv0/virtual_v1_nv0_30_2.cpp", line : 162, 
entry:	 ;;;;; filename : "./MicroBenchmark/virtual_v1_nv0/virtual_v1_nv0_30_2.cpp", line : 162, 
  call void @llvm.dbg.value(metadata %class.DD* %this, metadata !479, metadata !DIExpression()), !dbg !480	 ;;;;; filename : "./MicroBenchmark/virtual_v1_nv0/virtual_v1_nv0_30_2.cpp", line : 162, 
  ret void, !dbg !481	 ;;; line : 162, column : 35, filename : "./MicroBenchmark/virtual_v1_nv0/virtual_v1_nv0_30_2.cpp", 
}	 ;;;;; line : 162, column : 35, filename : "./MicroBenchmark/virtual_v1_nv0/virtual_v1_nv0_30_2.cpp", 

; Function Attrs: mustprogress noinline nounwind uwtable
define linkonce_odr dso_local void @_ZN2DD13ff_v_00000011Ev(%class.DD* noundef nonnull align 8 dereferenceable(40) %this) unnamed_addr #4 comdat align 2 !dbg !482 {	 ;;; filename : "./MicroBenchmark/virtual_v1_nv0/virtual_v1_nv0_30_2.cpp", line : 163, 
entry:	 ;;;;; filename : "./MicroBenchmark/virtual_v1_nv0/virtual_v1_nv0_30_2.cpp", line : 163, 
  call void @llvm.dbg.value(metadata %class.DD* %this, metadata !483, metadata !DIExpression()), !dbg !484	 ;;;;; filename : "./MicroBenchmark/virtual_v1_nv0/virtual_v1_nv0_30_2.cpp", line : 163, 
  ret void, !dbg !485	 ;;; line : 163, column : 35, filename : "./MicroBenchmark/virtual_v1_nv0/virtual_v1_nv0_30_2.cpp", 
}	 ;;;;; line : 163, column : 35, filename : "./MicroBenchmark/virtual_v1_nv0/virtual_v1_nv0_30_2.cpp", 

; Function Attrs: mustprogress noinline nounwind uwtable
define linkonce_odr dso_local void @_ZN2DD13ff_v_00000012Ev(%class.DD* noundef nonnull align 8 dereferenceable(40) %this) unnamed_addr #4 comdat align 2 !dbg !486 {	 ;;; filename : "./MicroBenchmark/virtual_v1_nv0/virtual_v1_nv0_30_2.cpp", line : 164, 
entry:	 ;;;;; filename : "./MicroBenchmark/virtual_v1_nv0/virtual_v1_nv0_30_2.cpp", line : 164, 
  call void @llvm.dbg.value(metadata %class.DD* %this, metadata !487, metadata !DIExpression()), !dbg !488	 ;;;;; filename : "./MicroBenchmark/virtual_v1_nv0/virtual_v1_nv0_30_2.cpp", line : 164, 
  ret void, !dbg !489	 ;;; line : 164, column : 35, filename : "./MicroBenchmark/virtual_v1_nv0/virtual_v1_nv0_30_2.cpp", 
}	 ;;;;; line : 164, column : 35, filename : "./MicroBenchmark/virtual_v1_nv0/virtual_v1_nv0_30_2.cpp", 

; Function Attrs: mustprogress noinline nounwind uwtable
define linkonce_odr dso_local void @_ZN2DD13ff_v_00000013Ev(%class.DD* noundef nonnull align 8 dereferenceable(40) %this) unnamed_addr #4 comdat align 2 !dbg !490 {	 ;;; filename : "./MicroBenchmark/virtual_v1_nv0/virtual_v1_nv0_30_2.cpp", line : 165, 
entry:	 ;;;;; filename : "./MicroBenchmark/virtual_v1_nv0/virtual_v1_nv0_30_2.cpp", line : 165, 
  call void @llvm.dbg.value(metadata %class.DD* %this, metadata !491, metadata !DIExpression()), !dbg !492	 ;;;;; filename : "./MicroBenchmark/virtual_v1_nv0/virtual_v1_nv0_30_2.cpp", line : 165, 
  ret void, !dbg !493	 ;;; line : 165, column : 35, filename : "./MicroBenchmark/virtual_v1_nv0/virtual_v1_nv0_30_2.cpp", 
}	 ;;;;; line : 165, column : 35, filename : "./MicroBenchmark/virtual_v1_nv0/virtual_v1_nv0_30_2.cpp", 

; Function Attrs: mustprogress noinline nounwind uwtable
define linkonce_odr dso_local void @_ZN2DD13ff_v_00000014Ev(%class.DD* noundef nonnull align 8 dereferenceable(40) %this) unnamed_addr #4 comdat align 2 !dbg !494 {	 ;;; filename : "./MicroBenchmark/virtual_v1_nv0/virtual_v1_nv0_30_2.cpp", line : 166, 
entry:	 ;;;;; filename : "./MicroBenchmark/virtual_v1_nv0/virtual_v1_nv0_30_2.cpp", line : 166, 
  call void @llvm.dbg.value(metadata %class.DD* %this, metadata !495, metadata !DIExpression()), !dbg !496	 ;;;;; filename : "./MicroBenchmark/virtual_v1_nv0/virtual_v1_nv0_30_2.cpp", line : 166, 
  ret void, !dbg !497	 ;;; line : 166, column : 35, filename : "./MicroBenchmark/virtual_v1_nv0/virtual_v1_nv0_30_2.cpp", 
}	 ;;;;; line : 166, column : 35, filename : "./MicroBenchmark/virtual_v1_nv0/virtual_v1_nv0_30_2.cpp", 

; Function Attrs: mustprogress noinline nounwind uwtable
define linkonce_odr dso_local void @_ZN2DD13ff_v_00000015Ev(%class.DD* noundef nonnull align 8 dereferenceable(40) %this) unnamed_addr #4 comdat align 2 !dbg !498 {	 ;;; filename : "./MicroBenchmark/virtual_v1_nv0/virtual_v1_nv0_30_2.cpp", line : 167, 
entry:	 ;;;;; filename : "./MicroBenchmark/virtual_v1_nv0/virtual_v1_nv0_30_2.cpp", line : 167, 
  call void @llvm.dbg.value(metadata %class.DD* %this, metadata !499, metadata !DIExpression()), !dbg !500	 ;;;;; filename : "./MicroBenchmark/virtual_v1_nv0/virtual_v1_nv0_30_2.cpp", line : 167, 
  ret void, !dbg !501	 ;;; line : 167, column : 35, filename : "./MicroBenchmark/virtual_v1_nv0/virtual_v1_nv0_30_2.cpp", 
}	 ;;;;; line : 167, column : 35, filename : "./MicroBenchmark/virtual_v1_nv0/virtual_v1_nv0_30_2.cpp", 

; Function Attrs: mustprogress noinline nounwind uwtable
define linkonce_odr dso_local void @_ZN2DD13ff_v_00000016Ev(%class.DD* noundef nonnull align 8 dereferenceable(40) %this) unnamed_addr #4 comdat align 2 !dbg !502 {	 ;;; filename : "./MicroBenchmark/virtual_v1_nv0/virtual_v1_nv0_30_2.cpp", line : 168, 
entry:	 ;;;;; filename : "./MicroBenchmark/virtual_v1_nv0/virtual_v1_nv0_30_2.cpp", line : 168, 
  call void @llvm.dbg.value(metadata %class.DD* %this, metadata !503, metadata !DIExpression()), !dbg !504	 ;;;;; filename : "./MicroBenchmark/virtual_v1_nv0/virtual_v1_nv0_30_2.cpp", line : 168, 
  ret void, !dbg !505	 ;;; line : 168, column : 35, filename : "./MicroBenchmark/virtual_v1_nv0/virtual_v1_nv0_30_2.cpp", 
}	 ;;;;; line : 168, column : 35, filename : "./MicroBenchmark/virtual_v1_nv0/virtual_v1_nv0_30_2.cpp", 

; Function Attrs: mustprogress noinline nounwind uwtable
define linkonce_odr dso_local void @_ZN2DD13ff_v_00000017Ev(%class.DD* noundef nonnull align 8 dereferenceable(40) %this) unnamed_addr #4 comdat align 2 !dbg !506 {	 ;;; filename : "./MicroBenchmark/virtual_v1_nv0/virtual_v1_nv0_30_2.cpp", line : 169, 
entry:	 ;;;;; filename : "./MicroBenchmark/virtual_v1_nv0/virtual_v1_nv0_30_2.cpp", line : 169, 
  call void @llvm.dbg.value(metadata %class.DD* %this, metadata !507, metadata !DIExpression()), !dbg !508	 ;;;;; filename : "./MicroBenchmark/virtual_v1_nv0/virtual_v1_nv0_30_2.cpp", line : 169, 
  ret void, !dbg !509	 ;;; line : 169, column : 35, filename : "./MicroBenchmark/virtual_v1_nv0/virtual_v1_nv0_30_2.cpp", 
}	 ;;;;; line : 169, column : 35, filename : "./MicroBenchmark/virtual_v1_nv0/virtual_v1_nv0_30_2.cpp", 

; Function Attrs: mustprogress noinline nounwind uwtable
define linkonce_odr dso_local void @_ZN2DD13ff_v_00000018Ev(%class.DD* noundef nonnull align 8 dereferenceable(40) %this) unnamed_addr #4 comdat align 2 !dbg !510 {	 ;;; filename : "./MicroBenchmark/virtual_v1_nv0/virtual_v1_nv0_30_2.cpp", line : 170, 
entry:	 ;;;;; filename : "./MicroBenchmark/virtual_v1_nv0/virtual_v1_nv0_30_2.cpp", line : 170, 
  call void @llvm.dbg.value(metadata %class.DD* %this, metadata !511, metadata !DIExpression()), !dbg !512	 ;;;;; filename : "./MicroBenchmark/virtual_v1_nv0/virtual_v1_nv0_30_2.cpp", line : 170, 
  ret void, !dbg !513	 ;;; line : 170, column : 35, filename : "./MicroBenchmark/virtual_v1_nv0/virtual_v1_nv0_30_2.cpp", 
}	 ;;;;; line : 170, column : 35, filename : "./MicroBenchmark/virtual_v1_nv0/virtual_v1_nv0_30_2.cpp", 

; Function Attrs: mustprogress noinline nounwind uwtable
define linkonce_odr dso_local void @_ZN2DD13ff_v_00000019Ev(%class.DD* noundef nonnull align 8 dereferenceable(40) %this) unnamed_addr #4 comdat align 2 !dbg !514 {	 ;;; filename : "./MicroBenchmark/virtual_v1_nv0/virtual_v1_nv0_30_2.cpp", line : 171, 
entry:	 ;;;;; filename : "./MicroBenchmark/virtual_v1_nv0/virtual_v1_nv0_30_2.cpp", line : 171, 
  call void @llvm.dbg.value(metadata %class.DD* %this, metadata !515, metadata !DIExpression()), !dbg !516	 ;;;;; filename : "./MicroBenchmark/virtual_v1_nv0/virtual_v1_nv0_30_2.cpp", line : 171, 
  ret void, !dbg !517	 ;;; line : 171, column : 35, filename : "./MicroBenchmark/virtual_v1_nv0/virtual_v1_nv0_30_2.cpp", 
}	 ;;;;; line : 171, column : 35, filename : "./MicroBenchmark/virtual_v1_nv0/virtual_v1_nv0_30_2.cpp", 

; Function Attrs: mustprogress noinline nounwind uwtable
define linkonce_odr dso_local void @_ZN2DD13ff_v_00000020Ev(%class.DD* noundef nonnull align 8 dereferenceable(40) %this) unnamed_addr #4 comdat align 2 !dbg !518 {	 ;;; filename : "./MicroBenchmark/virtual_v1_nv0/virtual_v1_nv0_30_2.cpp", line : 172, 
entry:	 ;;;;; filename : "./MicroBenchmark/virtual_v1_nv0/virtual_v1_nv0_30_2.cpp", line : 172, 
  call void @llvm.dbg.value(metadata %class.DD* %this, metadata !519, metadata !DIExpression()), !dbg !520	 ;;;;; filename : "./MicroBenchmark/virtual_v1_nv0/virtual_v1_nv0_30_2.cpp", line : 172, 
  ret void, !dbg !521	 ;;; line : 172, column : 35, filename : "./MicroBenchmark/virtual_v1_nv0/virtual_v1_nv0_30_2.cpp", 
}	 ;;;;; line : 172, column : 35, filename : "./MicroBenchmark/virtual_v1_nv0/virtual_v1_nv0_30_2.cpp", 

; Function Attrs: mustprogress noinline nounwind uwtable
define linkonce_odr dso_local void @_ZN2DD13ff_v_00000021Ev(%class.DD* noundef nonnull align 8 dereferenceable(40) %this) unnamed_addr #4 comdat align 2 !dbg !522 {	 ;;; filename : "./MicroBenchmark/virtual_v1_nv0/virtual_v1_nv0_30_2.cpp", line : 173, 
entry:	 ;;;;; filename : "./MicroBenchmark/virtual_v1_nv0/virtual_v1_nv0_30_2.cpp", line : 173, 
  call void @llvm.dbg.value(metadata %class.DD* %this, metadata !523, metadata !DIExpression()), !dbg !524	 ;;;;; filename : "./MicroBenchmark/virtual_v1_nv0/virtual_v1_nv0_30_2.cpp", line : 173, 
  ret void, !dbg !525	 ;;; line : 173, column : 35, filename : "./MicroBenchmark/virtual_v1_nv0/virtual_v1_nv0_30_2.cpp", 
}	 ;;;;; line : 173, column : 35, filename : "./MicroBenchmark/virtual_v1_nv0/virtual_v1_nv0_30_2.cpp", 

; Function Attrs: mustprogress noinline nounwind uwtable
define linkonce_odr dso_local void @_ZN2DD13ff_v_00000022Ev(%class.DD* noundef nonnull align 8 dereferenceable(40) %this) unnamed_addr #4 comdat align 2 !dbg !526 {	 ;;; filename : "./MicroBenchmark/virtual_v1_nv0/virtual_v1_nv0_30_2.cpp", line : 174, 
entry:	 ;;;;; filename : "./MicroBenchmark/virtual_v1_nv0/virtual_v1_nv0_30_2.cpp", line : 174, 
  call void @llvm.dbg.value(metadata %class.DD* %this, metadata !527, metadata !DIExpression()), !dbg !528	 ;;;;; filename : "./MicroBenchmark/virtual_v1_nv0/virtual_v1_nv0_30_2.cpp", line : 174, 
  ret void, !dbg !529	 ;;; line : 174, column : 35, filename : "./MicroBenchmark/virtual_v1_nv0/virtual_v1_nv0_30_2.cpp", 
}	 ;;;;; line : 174, column : 35, filename : "./MicroBenchmark/virtual_v1_nv0/virtual_v1_nv0_30_2.cpp", 

; Function Attrs: mustprogress noinline nounwind uwtable
define linkonce_odr dso_local void @_ZN2DD13ff_v_00000023Ev(%class.DD* noundef nonnull align 8 dereferenceable(40) %this) unnamed_addr #4 comdat align 2 !dbg !530 {	 ;;; filename : "./MicroBenchmark/virtual_v1_nv0/virtual_v1_nv0_30_2.cpp", line : 175, 
entry:	 ;;;;; filename : "./MicroBenchmark/virtual_v1_nv0/virtual_v1_nv0_30_2.cpp", line : 175, 
  call void @llvm.dbg.value(metadata %class.DD* %this, metadata !531, metadata !DIExpression()), !dbg !532	 ;;;;; filename : "./MicroBenchmark/virtual_v1_nv0/virtual_v1_nv0_30_2.cpp", line : 175, 
  ret void, !dbg !533	 ;;; line : 175, column : 35, filename : "./MicroBenchmark/virtual_v1_nv0/virtual_v1_nv0_30_2.cpp", 
}	 ;;;;; line : 175, column : 35, filename : "./MicroBenchmark/virtual_v1_nv0/virtual_v1_nv0_30_2.cpp", 

; Function Attrs: mustprogress noinline nounwind uwtable
define linkonce_odr dso_local void @_ZN2DD13ff_v_00000024Ev(%class.DD* noundef nonnull align 8 dereferenceable(40) %this) unnamed_addr #4 comdat align 2 !dbg !534 {	 ;;; filename : "./MicroBenchmark/virtual_v1_nv0/virtual_v1_nv0_30_2.cpp", line : 176, 
entry:	 ;;;;; filename : "./MicroBenchmark/virtual_v1_nv0/virtual_v1_nv0_30_2.cpp", line : 176, 
  call void @llvm.dbg.value(metadata %class.DD* %this, metadata !535, metadata !DIExpression()), !dbg !536	 ;;;;; filename : "./MicroBenchmark/virtual_v1_nv0/virtual_v1_nv0_30_2.cpp", line : 176, 
  ret void, !dbg !537	 ;;; line : 176, column : 35, filename : "./MicroBenchmark/virtual_v1_nv0/virtual_v1_nv0_30_2.cpp", 
}	 ;;;;; line : 176, column : 35, filename : "./MicroBenchmark/virtual_v1_nv0/virtual_v1_nv0_30_2.cpp", 

; Function Attrs: mustprogress noinline nounwind uwtable
define linkonce_odr dso_local void @_ZN2DD13ff_v_00000025Ev(%class.DD* noundef nonnull align 8 dereferenceable(40) %this) unnamed_addr #4 comdat align 2 !dbg !538 {	 ;;; filename : "./MicroBenchmark/virtual_v1_nv0/virtual_v1_nv0_30_2.cpp", line : 177, 
entry:	 ;;;;; filename : "./MicroBenchmark/virtual_v1_nv0/virtual_v1_nv0_30_2.cpp", line : 177, 
  call void @llvm.dbg.value(metadata %class.DD* %this, metadata !539, metadata !DIExpression()), !dbg !540	 ;;;;; filename : "./MicroBenchmark/virtual_v1_nv0/virtual_v1_nv0_30_2.cpp", line : 177, 
  ret void, !dbg !541	 ;;; line : 177, column : 35, filename : "./MicroBenchmark/virtual_v1_nv0/virtual_v1_nv0_30_2.cpp", 
}	 ;;;;; line : 177, column : 35, filename : "./MicroBenchmark/virtual_v1_nv0/virtual_v1_nv0_30_2.cpp", 

; Function Attrs: mustprogress noinline nounwind uwtable
define linkonce_odr dso_local void @_ZN2DD13ff_v_00000026Ev(%class.DD* noundef nonnull align 8 dereferenceable(40) %this) unnamed_addr #4 comdat align 2 !dbg !542 {	 ;;; filename : "./MicroBenchmark/virtual_v1_nv0/virtual_v1_nv0_30_2.cpp", line : 178, 
entry:	 ;;;;; filename : "./MicroBenchmark/virtual_v1_nv0/virtual_v1_nv0_30_2.cpp", line : 178, 
  call void @llvm.dbg.value(metadata %class.DD* %this, metadata !543, metadata !DIExpression()), !dbg !544	 ;;;;; filename : "./MicroBenchmark/virtual_v1_nv0/virtual_v1_nv0_30_2.cpp", line : 178, 
  ret void, !dbg !545	 ;;; line : 178, column : 35, filename : "./MicroBenchmark/virtual_v1_nv0/virtual_v1_nv0_30_2.cpp", 
}	 ;;;;; line : 178, column : 35, filename : "./MicroBenchmark/virtual_v1_nv0/virtual_v1_nv0_30_2.cpp", 

; Function Attrs: mustprogress noinline nounwind uwtable
define linkonce_odr dso_local void @_ZN2DD13ff_v_00000027Ev(%class.DD* noundef nonnull align 8 dereferenceable(40) %this) unnamed_addr #4 comdat align 2 !dbg !546 {	 ;;; filename : "./MicroBenchmark/virtual_v1_nv0/virtual_v1_nv0_30_2.cpp", line : 179, 
entry:	 ;;;;; filename : "./MicroBenchmark/virtual_v1_nv0/virtual_v1_nv0_30_2.cpp", line : 179, 
  call void @llvm.dbg.value(metadata %class.DD* %this, metadata !547, metadata !DIExpression()), !dbg !548	 ;;;;; filename : "./MicroBenchmark/virtual_v1_nv0/virtual_v1_nv0_30_2.cpp", line : 179, 
  ret void, !dbg !549	 ;;; line : 179, column : 35, filename : "./MicroBenchmark/virtual_v1_nv0/virtual_v1_nv0_30_2.cpp", 
}	 ;;;;; line : 179, column : 35, filename : "./MicroBenchmark/virtual_v1_nv0/virtual_v1_nv0_30_2.cpp", 

; Function Attrs: mustprogress noinline nounwind uwtable
define linkonce_odr dso_local void @_ZN2DD13ff_v_00000028Ev(%class.DD* noundef nonnull align 8 dereferenceable(40) %this) unnamed_addr #4 comdat align 2 !dbg !550 {	 ;;; filename : "./MicroBenchmark/virtual_v1_nv0/virtual_v1_nv0_30_2.cpp", line : 180, 
entry:	 ;;;;; filename : "./MicroBenchmark/virtual_v1_nv0/virtual_v1_nv0_30_2.cpp", line : 180, 
  call void @llvm.dbg.value(metadata %class.DD* %this, metadata !551, metadata !DIExpression()), !dbg !552	 ;;;;; filename : "./MicroBenchmark/virtual_v1_nv0/virtual_v1_nv0_30_2.cpp", line : 180, 
  ret void, !dbg !553	 ;;; line : 180, column : 35, filename : "./MicroBenchmark/virtual_v1_nv0/virtual_v1_nv0_30_2.cpp", 
}	 ;;;;; line : 180, column : 35, filename : "./MicroBenchmark/virtual_v1_nv0/virtual_v1_nv0_30_2.cpp", 

; Function Attrs: mustprogress noinline nounwind uwtable
define linkonce_odr dso_local void @_ZN2DD13ff_v_00000029Ev(%class.DD* noundef nonnull align 8 dereferenceable(40) %this) unnamed_addr #4 comdat align 2 !dbg !554 {	 ;;; filename : "./MicroBenchmark/virtual_v1_nv0/virtual_v1_nv0_30_2.cpp", line : 181, 
entry:	 ;;;;; filename : "./MicroBenchmark/virtual_v1_nv0/virtual_v1_nv0_30_2.cpp", line : 181, 
  call void @llvm.dbg.value(metadata %class.DD* %this, metadata !555, metadata !DIExpression()), !dbg !556	 ;;;;; filename : "./MicroBenchmark/virtual_v1_nv0/virtual_v1_nv0_30_2.cpp", line : 181, 
  ret void, !dbg !557	 ;;; line : 181, column : 35, filename : "./MicroBenchmark/virtual_v1_nv0/virtual_v1_nv0_30_2.cpp", 
}	 ;;;;; line : 181, column : 35, filename : "./MicroBenchmark/virtual_v1_nv0/virtual_v1_nv0_30_2.cpp", 

; Function Attrs: noinline uwtable
define linkonce_odr dso_local void @_ZThn16_N2DD13hh_v_00000000Ev(%class.DD* noundef %this) unnamed_addr #5 comdat align 2 !dbg !558 {	 ;;; filename : "./MicroBenchmark/virtual_v1_nv0/virtual_v1_nv0_30_2.cpp", line : 140, 
entry:	 ;;;;; filename : "./MicroBenchmark/virtual_v1_nv0/virtual_v1_nv0_30_2.cpp", line : 140, 
  %0 = bitcast %class.DD* %this to i8*, !dbg !560	 ;;;;; filename : "./MicroBenchmark/virtual_v1_nv0/virtual_v1_nv0_30_2.cpp", line : 140, 
  %1 = getelementptr inbounds i8, i8* %0, i64 -16, !dbg !560	 ;;;;; filename : "./MicroBenchmark/virtual_v1_nv0/virtual_v1_nv0_30_2.cpp", line : 140, 
  %2 = bitcast i8* %1 to %class.DD*, !dbg !560	 ;;;;; filename : "./MicroBenchmark/virtual_v1_nv0/virtual_v1_nv0_30_2.cpp", line : 140, 
  tail call void @_ZN2DD13hh_v_00000000Ev(%class.DD* noundef nonnull align 8 dereferenceable(40) %2) #6, !dbg !560	 ;;;;; filename : "./MicroBenchmark/virtual_v1_nv0/virtual_v1_nv0_30_2.cpp", line : 140, 
  ret void, !dbg !560	 ;;;;; filename : "./MicroBenchmark/virtual_v1_nv0/virtual_v1_nv0_30_2.cpp", line : 140, 
}	 ;;;;; filename : "./MicroBenchmark/virtual_v1_nv0/virtual_v1_nv0_30_2.cpp", line : 140, 

; Function Attrs: noinline uwtable
define linkonce_odr dso_local void @_ZThn16_N2DD13hh_v_00000001Ev(%class.DD* noundef %this) unnamed_addr #5 comdat align 2 !dbg !561 {	 ;;; filename : "./MicroBenchmark/virtual_v1_nv0/virtual_v1_nv0_30_2.cpp", line : 141, 
entry:	 ;;;;; filename : "./MicroBenchmark/virtual_v1_nv0/virtual_v1_nv0_30_2.cpp", line : 141, 
  %0 = bitcast %class.DD* %this to i8*, !dbg !562	 ;;;;; filename : "./MicroBenchmark/virtual_v1_nv0/virtual_v1_nv0_30_2.cpp", line : 141, 
  %1 = getelementptr inbounds i8, i8* %0, i64 -16, !dbg !562	 ;;;;; filename : "./MicroBenchmark/virtual_v1_nv0/virtual_v1_nv0_30_2.cpp", line : 141, 
  %2 = bitcast i8* %1 to %class.DD*, !dbg !562	 ;;;;; filename : "./MicroBenchmark/virtual_v1_nv0/virtual_v1_nv0_30_2.cpp", line : 141, 
  tail call void @_ZN2DD13hh_v_00000001Ev(%class.DD* noundef nonnull align 8 dereferenceable(40) %2) #6, !dbg !562	 ;;;;; filename : "./MicroBenchmark/virtual_v1_nv0/virtual_v1_nv0_30_2.cpp", line : 141, 
  ret void, !dbg !562	 ;;;;; filename : "./MicroBenchmark/virtual_v1_nv0/virtual_v1_nv0_30_2.cpp", line : 141, 
}	 ;;;;; filename : "./MicroBenchmark/virtual_v1_nv0/virtual_v1_nv0_30_2.cpp", line : 141, 

; Function Attrs: noinline uwtable
define linkonce_odr dso_local void @_ZThn16_N2DD13hh_v_00000002Ev(%class.DD* noundef %this) unnamed_addr #5 comdat align 2 !dbg !563 {	 ;;; filename : "./MicroBenchmark/virtual_v1_nv0/virtual_v1_nv0_30_2.cpp", line : 142, 
entry:	 ;;;;; filename : "./MicroBenchmark/virtual_v1_nv0/virtual_v1_nv0_30_2.cpp", line : 142, 
  %0 = bitcast %class.DD* %this to i8*, !dbg !564	 ;;;;; filename : "./MicroBenchmark/virtual_v1_nv0/virtual_v1_nv0_30_2.cpp", line : 142, 
  %1 = getelementptr inbounds i8, i8* %0, i64 -16, !dbg !564	 ;;;;; filename : "./MicroBenchmark/virtual_v1_nv0/virtual_v1_nv0_30_2.cpp", line : 142, 
  %2 = bitcast i8* %1 to %class.DD*, !dbg !564	 ;;;;; filename : "./MicroBenchmark/virtual_v1_nv0/virtual_v1_nv0_30_2.cpp", line : 142, 
  tail call void @_ZN2DD13hh_v_00000002Ev(%class.DD* noundef nonnull align 8 dereferenceable(40) %2) #6, !dbg !564	 ;;;;; filename : "./MicroBenchmark/virtual_v1_nv0/virtual_v1_nv0_30_2.cpp", line : 142, 
  ret void, !dbg !564	 ;;;;; filename : "./MicroBenchmark/virtual_v1_nv0/virtual_v1_nv0_30_2.cpp", line : 142, 
}	 ;;;;; filename : "./MicroBenchmark/virtual_v1_nv0/virtual_v1_nv0_30_2.cpp", line : 142, 

; Function Attrs: noinline uwtable
define linkonce_odr dso_local void @_ZThn16_N2DD13hh_v_00000003Ev(%class.DD* noundef %this) unnamed_addr #5 comdat align 2 !dbg !565 {	 ;;; filename : "./MicroBenchmark/virtual_v1_nv0/virtual_v1_nv0_30_2.cpp", line : 143, 
entry:	 ;;;;; filename : "./MicroBenchmark/virtual_v1_nv0/virtual_v1_nv0_30_2.cpp", line : 143, 
  %0 = bitcast %class.DD* %this to i8*, !dbg !566	 ;;;;; filename : "./MicroBenchmark/virtual_v1_nv0/virtual_v1_nv0_30_2.cpp", line : 143, 
  %1 = getelementptr inbounds i8, i8* %0, i64 -16, !dbg !566	 ;;;;; filename : "./MicroBenchmark/virtual_v1_nv0/virtual_v1_nv0_30_2.cpp", line : 143, 
  %2 = bitcast i8* %1 to %class.DD*, !dbg !566	 ;;;;; filename : "./MicroBenchmark/virtual_v1_nv0/virtual_v1_nv0_30_2.cpp", line : 143, 
  tail call void @_ZN2DD13hh_v_00000003Ev(%class.DD* noundef nonnull align 8 dereferenceable(40) %2) #6, !dbg !566	 ;;;;; filename : "./MicroBenchmark/virtual_v1_nv0/virtual_v1_nv0_30_2.cpp", line : 143, 
  ret void, !dbg !566	 ;;;;; filename : "./MicroBenchmark/virtual_v1_nv0/virtual_v1_nv0_30_2.cpp", line : 143, 
}	 ;;;;; filename : "./MicroBenchmark/virtual_v1_nv0/virtual_v1_nv0_30_2.cpp", line : 143, 

; Function Attrs: noinline uwtable
define linkonce_odr dso_local void @_ZThn16_N2DD13hh_v_00000004Ev(%class.DD* noundef %this) unnamed_addr #5 comdat align 2 !dbg !567 {	 ;;; filename : "./MicroBenchmark/virtual_v1_nv0/virtual_v1_nv0_30_2.cpp", line : 144, 
entry:	 ;;;;; filename : "./MicroBenchmark/virtual_v1_nv0/virtual_v1_nv0_30_2.cpp", line : 144, 
  %0 = bitcast %class.DD* %this to i8*, !dbg !568	 ;;;;; filename : "./MicroBenchmark/virtual_v1_nv0/virtual_v1_nv0_30_2.cpp", line : 144, 
  %1 = getelementptr inbounds i8, i8* %0, i64 -16, !dbg !568	 ;;;;; filename : "./MicroBenchmark/virtual_v1_nv0/virtual_v1_nv0_30_2.cpp", line : 144, 
  %2 = bitcast i8* %1 to %class.DD*, !dbg !568	 ;;;;; filename : "./MicroBenchmark/virtual_v1_nv0/virtual_v1_nv0_30_2.cpp", line : 144, 
  tail call void @_ZN2DD13hh_v_00000004Ev(%class.DD* noundef nonnull align 8 dereferenceable(40) %2) #6, !dbg !568	 ;;;;; filename : "./MicroBenchmark/virtual_v1_nv0/virtual_v1_nv0_30_2.cpp", line : 144, 
  ret void, !dbg !568	 ;;;;; filename : "./MicroBenchmark/virtual_v1_nv0/virtual_v1_nv0_30_2.cpp", line : 144, 
}	 ;;;;; filename : "./MicroBenchmark/virtual_v1_nv0/virtual_v1_nv0_30_2.cpp", line : 144, 

; Function Attrs: noinline uwtable
define linkonce_odr dso_local void @_ZThn16_N2DD13hh_v_00000005Ev(%class.DD* noundef %this) unnamed_addr #5 comdat align 2 !dbg !569 {	 ;;; filename : "./MicroBenchmark/virtual_v1_nv0/virtual_v1_nv0_30_2.cpp", line : 145, 
entry:	 ;;;;; filename : "./MicroBenchmark/virtual_v1_nv0/virtual_v1_nv0_30_2.cpp", line : 145, 
  %0 = bitcast %class.DD* %this to i8*, !dbg !570	 ;;;;; filename : "./MicroBenchmark/virtual_v1_nv0/virtual_v1_nv0_30_2.cpp", line : 145, 
  %1 = getelementptr inbounds i8, i8* %0, i64 -16, !dbg !570	 ;;;;; filename : "./MicroBenchmark/virtual_v1_nv0/virtual_v1_nv0_30_2.cpp", line : 145, 
  %2 = bitcast i8* %1 to %class.DD*, !dbg !570	 ;;;;; filename : "./MicroBenchmark/virtual_v1_nv0/virtual_v1_nv0_30_2.cpp", line : 145, 
  tail call void @_ZN2DD13hh_v_00000005Ev(%class.DD* noundef nonnull align 8 dereferenceable(40) %2) #6, !dbg !570	 ;;;;; filename : "./MicroBenchmark/virtual_v1_nv0/virtual_v1_nv0_30_2.cpp", line : 145, 
  ret void, !dbg !570	 ;;;;; filename : "./MicroBenchmark/virtual_v1_nv0/virtual_v1_nv0_30_2.cpp", line : 145, 
}	 ;;;;; filename : "./MicroBenchmark/virtual_v1_nv0/virtual_v1_nv0_30_2.cpp", line : 145, 

; Function Attrs: noinline uwtable
define linkonce_odr dso_local void @_ZThn16_N2DD13hh_v_00000006Ev(%class.DD* noundef %this) unnamed_addr #5 comdat align 2 !dbg !571 {	 ;;; filename : "./MicroBenchmark/virtual_v1_nv0/virtual_v1_nv0_30_2.cpp", line : 146, 
entry:	 ;;;;; filename : "./MicroBenchmark/virtual_v1_nv0/virtual_v1_nv0_30_2.cpp", line : 146, 
  %0 = bitcast %class.DD* %this to i8*, !dbg !572	 ;;;;; filename : "./MicroBenchmark/virtual_v1_nv0/virtual_v1_nv0_30_2.cpp", line : 146, 
  %1 = getelementptr inbounds i8, i8* %0, i64 -16, !dbg !572	 ;;;;; filename : "./MicroBenchmark/virtual_v1_nv0/virtual_v1_nv0_30_2.cpp", line : 146, 
  %2 = bitcast i8* %1 to %class.DD*, !dbg !572	 ;;;;; filename : "./MicroBenchmark/virtual_v1_nv0/virtual_v1_nv0_30_2.cpp", line : 146, 
  tail call void @_ZN2DD13hh_v_00000006Ev(%class.DD* noundef nonnull align 8 dereferenceable(40) %2) #6, !dbg !572	 ;;;;; filename : "./MicroBenchmark/virtual_v1_nv0/virtual_v1_nv0_30_2.cpp", line : 146, 
  ret void, !dbg !572	 ;;;;; filename : "./MicroBenchmark/virtual_v1_nv0/virtual_v1_nv0_30_2.cpp", line : 146, 
}	 ;;;;; filename : "./MicroBenchmark/virtual_v1_nv0/virtual_v1_nv0_30_2.cpp", line : 146, 

; Function Attrs: noinline uwtable
define linkonce_odr dso_local void @_ZThn16_N2DD13hh_v_00000007Ev(%class.DD* noundef %this) unnamed_addr #5 comdat align 2 !dbg !573 {	 ;;; filename : "./MicroBenchmark/virtual_v1_nv0/virtual_v1_nv0_30_2.cpp", line : 147, 
entry:	 ;;;;; filename : "./MicroBenchmark/virtual_v1_nv0/virtual_v1_nv0_30_2.cpp", line : 147, 
  %0 = bitcast %class.DD* %this to i8*, !dbg !574	 ;;;;; filename : "./MicroBenchmark/virtual_v1_nv0/virtual_v1_nv0_30_2.cpp", line : 147, 
  %1 = getelementptr inbounds i8, i8* %0, i64 -16, !dbg !574	 ;;;;; filename : "./MicroBenchmark/virtual_v1_nv0/virtual_v1_nv0_30_2.cpp", line : 147, 
  %2 = bitcast i8* %1 to %class.DD*, !dbg !574	 ;;;;; filename : "./MicroBenchmark/virtual_v1_nv0/virtual_v1_nv0_30_2.cpp", line : 147, 
  tail call void @_ZN2DD13hh_v_00000007Ev(%class.DD* noundef nonnull align 8 dereferenceable(40) %2) #6, !dbg !574	 ;;;;; filename : "./MicroBenchmark/virtual_v1_nv0/virtual_v1_nv0_30_2.cpp", line : 147, 
  ret void, !dbg !574	 ;;;;; filename : "./MicroBenchmark/virtual_v1_nv0/virtual_v1_nv0_30_2.cpp", line : 147, 
}	 ;;;;; filename : "./MicroBenchmark/virtual_v1_nv0/virtual_v1_nv0_30_2.cpp", line : 147, 

; Function Attrs: noinline uwtable
define linkonce_odr dso_local void @_ZThn16_N2DD13hh_v_00000008Ev(%class.DD* noundef %this) unnamed_addr #5 comdat align 2 !dbg !575 {	 ;;; filename : "./MicroBenchmark/virtual_v1_nv0/virtual_v1_nv0_30_2.cpp", line : 148, 
entry:	 ;;;;; filename : "./MicroBenchmark/virtual_v1_nv0/virtual_v1_nv0_30_2.cpp", line : 148, 
  %0 = bitcast %class.DD* %this to i8*, !dbg !576	 ;;;;; filename : "./MicroBenchmark/virtual_v1_nv0/virtual_v1_nv0_30_2.cpp", line : 148, 
  %1 = getelementptr inbounds i8, i8* %0, i64 -16, !dbg !576	 ;;;;; filename : "./MicroBenchmark/virtual_v1_nv0/virtual_v1_nv0_30_2.cpp", line : 148, 
  %2 = bitcast i8* %1 to %class.DD*, !dbg !576	 ;;;;; filename : "./MicroBenchmark/virtual_v1_nv0/virtual_v1_nv0_30_2.cpp", line : 148, 
  tail call void @_ZN2DD13hh_v_00000008Ev(%class.DD* noundef nonnull align 8 dereferenceable(40) %2) #6, !dbg !576	 ;;;;; filename : "./MicroBenchmark/virtual_v1_nv0/virtual_v1_nv0_30_2.cpp", line : 148, 
  ret void, !dbg !576	 ;;;;; filename : "./MicroBenchmark/virtual_v1_nv0/virtual_v1_nv0_30_2.cpp", line : 148, 
}	 ;;;;; filename : "./MicroBenchmark/virtual_v1_nv0/virtual_v1_nv0_30_2.cpp", line : 148, 

; Function Attrs: noinline uwtable
define linkonce_odr dso_local void @_ZThn16_N2DD13hh_v_00000009Ev(%class.DD* noundef %this) unnamed_addr #5 comdat align 2 !dbg !577 {	 ;;; filename : "./MicroBenchmark/virtual_v1_nv0/virtual_v1_nv0_30_2.cpp", line : 149, 
entry:	 ;;;;; filename : "./MicroBenchmark/virtual_v1_nv0/virtual_v1_nv0_30_2.cpp", line : 149, 
  %0 = bitcast %class.DD* %this to i8*, !dbg !578	 ;;;;; filename : "./MicroBenchmark/virtual_v1_nv0/virtual_v1_nv0_30_2.cpp", line : 149, 
  %1 = getelementptr inbounds i8, i8* %0, i64 -16, !dbg !578	 ;;;;; filename : "./MicroBenchmark/virtual_v1_nv0/virtual_v1_nv0_30_2.cpp", line : 149, 
  %2 = bitcast i8* %1 to %class.DD*, !dbg !578	 ;;;;; filename : "./MicroBenchmark/virtual_v1_nv0/virtual_v1_nv0_30_2.cpp", line : 149, 
  tail call void @_ZN2DD13hh_v_00000009Ev(%class.DD* noundef nonnull align 8 dereferenceable(40) %2) #6, !dbg !578	 ;;;;; filename : "./MicroBenchmark/virtual_v1_nv0/virtual_v1_nv0_30_2.cpp", line : 149, 
  ret void, !dbg !578	 ;;;;; filename : "./MicroBenchmark/virtual_v1_nv0/virtual_v1_nv0_30_2.cpp", line : 149, 
}	 ;;;;; filename : "./MicroBenchmark/virtual_v1_nv0/virtual_v1_nv0_30_2.cpp", line : 149, 

; Function Attrs: noinline uwtable
define linkonce_odr dso_local void @_ZThn16_N2DD13hh_v_00000010Ev(%class.DD* noundef %this) unnamed_addr #5 comdat align 2 !dbg !579 {	 ;;; filename : "./MicroBenchmark/virtual_v1_nv0/virtual_v1_nv0_30_2.cpp", line : 150, 
entry:	 ;;;;; filename : "./MicroBenchmark/virtual_v1_nv0/virtual_v1_nv0_30_2.cpp", line : 150, 
  %0 = bitcast %class.DD* %this to i8*, !dbg !580	 ;;;;; filename : "./MicroBenchmark/virtual_v1_nv0/virtual_v1_nv0_30_2.cpp", line : 150, 
  %1 = getelementptr inbounds i8, i8* %0, i64 -16, !dbg !580	 ;;;;; filename : "./MicroBenchmark/virtual_v1_nv0/virtual_v1_nv0_30_2.cpp", line : 150, 
  %2 = bitcast i8* %1 to %class.DD*, !dbg !580	 ;;;;; filename : "./MicroBenchmark/virtual_v1_nv0/virtual_v1_nv0_30_2.cpp", line : 150, 
  tail call void @_ZN2DD13hh_v_00000010Ev(%class.DD* noundef nonnull align 8 dereferenceable(40) %2) #6, !dbg !580	 ;;;;; filename : "./MicroBenchmark/virtual_v1_nv0/virtual_v1_nv0_30_2.cpp", line : 150, 
  ret void, !dbg !580	 ;;;;; filename : "./MicroBenchmark/virtual_v1_nv0/virtual_v1_nv0_30_2.cpp", line : 150, 
}	 ;;;;; filename : "./MicroBenchmark/virtual_v1_nv0/virtual_v1_nv0_30_2.cpp", line : 150, 

; Function Attrs: mustprogress noinline nounwind uwtable
define linkonce_odr dso_local void @_ZN2CC13hh_v_00000011Ev(%class.CC* noundef nonnull align 8 dereferenceable(16) %this) unnamed_addr #4 comdat align 2 !dbg !581 {	 ;;; filename : "./MicroBenchmark/virtual_v1_nv0/virtual_v1_nv0_30_2.cpp", line : 91, 
entry:	 ;;;;; filename : "./MicroBenchmark/virtual_v1_nv0/virtual_v1_nv0_30_2.cpp", line : 91, 
  call void @llvm.dbg.value(metadata %class.CC* %this, metadata !582, metadata !DIExpression()), !dbg !583	 ;;;;; filename : "./MicroBenchmark/virtual_v1_nv0/virtual_v1_nv0_30_2.cpp", line : 91, 
  ret void, !dbg !584	 ;;; line : 91, column : 35, filename : "./MicroBenchmark/virtual_v1_nv0/virtual_v1_nv0_30_2.cpp", 
}	 ;;;;; line : 91, column : 35, filename : "./MicroBenchmark/virtual_v1_nv0/virtual_v1_nv0_30_2.cpp", 

; Function Attrs: mustprogress noinline nounwind uwtable
define linkonce_odr dso_local void @_ZN2CC13hh_v_00000012Ev(%class.CC* noundef nonnull align 8 dereferenceable(16) %this) unnamed_addr #4 comdat align 2 !dbg !585 {	 ;;; filename : "./MicroBenchmark/virtual_v1_nv0/virtual_v1_nv0_30_2.cpp", line : 92, 
entry:	 ;;;;; filename : "./MicroBenchmark/virtual_v1_nv0/virtual_v1_nv0_30_2.cpp", line : 92, 
  call void @llvm.dbg.value(metadata %class.CC* %this, metadata !586, metadata !DIExpression()), !dbg !587	 ;;;;; filename : "./MicroBenchmark/virtual_v1_nv0/virtual_v1_nv0_30_2.cpp", line : 92, 
  ret void, !dbg !588	 ;;; line : 92, column : 35, filename : "./MicroBenchmark/virtual_v1_nv0/virtual_v1_nv0_30_2.cpp", 
}	 ;;;;; line : 92, column : 35, filename : "./MicroBenchmark/virtual_v1_nv0/virtual_v1_nv0_30_2.cpp", 

; Function Attrs: mustprogress noinline nounwind uwtable
define linkonce_odr dso_local void @_ZN2CC13hh_v_00000013Ev(%class.CC* noundef nonnull align 8 dereferenceable(16) %this) unnamed_addr #4 comdat align 2 !dbg !589 {	 ;;; filename : "./MicroBenchmark/virtual_v1_nv0/virtual_v1_nv0_30_2.cpp", line : 93, 
entry:	 ;;;;; filename : "./MicroBenchmark/virtual_v1_nv0/virtual_v1_nv0_30_2.cpp", line : 93, 
  call void @llvm.dbg.value(metadata %class.CC* %this, metadata !590, metadata !DIExpression()), !dbg !591	 ;;;;; filename : "./MicroBenchmark/virtual_v1_nv0/virtual_v1_nv0_30_2.cpp", line : 93, 
  ret void, !dbg !592	 ;;; line : 93, column : 35, filename : "./MicroBenchmark/virtual_v1_nv0/virtual_v1_nv0_30_2.cpp", 
}	 ;;;;; line : 93, column : 35, filename : "./MicroBenchmark/virtual_v1_nv0/virtual_v1_nv0_30_2.cpp", 

; Function Attrs: mustprogress noinline nounwind uwtable
define linkonce_odr dso_local void @_ZN2CC13hh_v_00000014Ev(%class.CC* noundef nonnull align 8 dereferenceable(16) %this) unnamed_addr #4 comdat align 2 !dbg !593 {	 ;;; filename : "./MicroBenchmark/virtual_v1_nv0/virtual_v1_nv0_30_2.cpp", line : 94, 
entry:	 ;;;;; filename : "./MicroBenchmark/virtual_v1_nv0/virtual_v1_nv0_30_2.cpp", line : 94, 
  call void @llvm.dbg.value(metadata %class.CC* %this, metadata !594, metadata !DIExpression()), !dbg !595	 ;;;;; filename : "./MicroBenchmark/virtual_v1_nv0/virtual_v1_nv0_30_2.cpp", line : 94, 
  ret void, !dbg !596	 ;;; line : 94, column : 35, filename : "./MicroBenchmark/virtual_v1_nv0/virtual_v1_nv0_30_2.cpp", 
}	 ;;;;; line : 94, column : 35, filename : "./MicroBenchmark/virtual_v1_nv0/virtual_v1_nv0_30_2.cpp", 

; Function Attrs: mustprogress noinline nounwind uwtable
define linkonce_odr dso_local void @_ZN2CC13hh_v_00000015Ev(%class.CC* noundef nonnull align 8 dereferenceable(16) %this) unnamed_addr #4 comdat align 2 !dbg !597 {	 ;;; filename : "./MicroBenchmark/virtual_v1_nv0/virtual_v1_nv0_30_2.cpp", line : 95, 
entry:	 ;;;;; filename : "./MicroBenchmark/virtual_v1_nv0/virtual_v1_nv0_30_2.cpp", line : 95, 
  call void @llvm.dbg.value(metadata %class.CC* %this, metadata !598, metadata !DIExpression()), !dbg !599	 ;;;;; filename : "./MicroBenchmark/virtual_v1_nv0/virtual_v1_nv0_30_2.cpp", line : 95, 
  ret void, !dbg !600	 ;;; line : 95, column : 35, filename : "./MicroBenchmark/virtual_v1_nv0/virtual_v1_nv0_30_2.cpp", 
}	 ;;;;; line : 95, column : 35, filename : "./MicroBenchmark/virtual_v1_nv0/virtual_v1_nv0_30_2.cpp", 

; Function Attrs: mustprogress noinline nounwind uwtable
define linkonce_odr dso_local void @_ZN2CC13hh_v_00000016Ev(%class.CC* noundef nonnull align 8 dereferenceable(16) %this) unnamed_addr #4 comdat align 2 !dbg !601 {	 ;;; filename : "./MicroBenchmark/virtual_v1_nv0/virtual_v1_nv0_30_2.cpp", line : 96, 
entry:	 ;;;;; filename : "./MicroBenchmark/virtual_v1_nv0/virtual_v1_nv0_30_2.cpp", line : 96, 
  call void @llvm.dbg.value(metadata %class.CC* %this, metadata !602, metadata !DIExpression()), !dbg !603	 ;;;;; filename : "./MicroBenchmark/virtual_v1_nv0/virtual_v1_nv0_30_2.cpp", line : 96, 
  ret void, !dbg !604	 ;;; line : 96, column : 35, filename : "./MicroBenchmark/virtual_v1_nv0/virtual_v1_nv0_30_2.cpp", 
}	 ;;;;; line : 96, column : 35, filename : "./MicroBenchmark/virtual_v1_nv0/virtual_v1_nv0_30_2.cpp", 

; Function Attrs: mustprogress noinline nounwind uwtable
define linkonce_odr dso_local void @_ZN2CC13hh_v_00000017Ev(%class.CC* noundef nonnull align 8 dereferenceable(16) %this) unnamed_addr #4 comdat align 2 !dbg !605 {	 ;;; filename : "./MicroBenchmark/virtual_v1_nv0/virtual_v1_nv0_30_2.cpp", line : 97, 
entry:	 ;;;;; filename : "./MicroBenchmark/virtual_v1_nv0/virtual_v1_nv0_30_2.cpp", line : 97, 
  call void @llvm.dbg.value(metadata %class.CC* %this, metadata !606, metadata !DIExpression()), !dbg !607	 ;;;;; filename : "./MicroBenchmark/virtual_v1_nv0/virtual_v1_nv0_30_2.cpp", line : 97, 
  ret void, !dbg !608	 ;;; line : 97, column : 35, filename : "./MicroBenchmark/virtual_v1_nv0/virtual_v1_nv0_30_2.cpp", 
}	 ;;;;; line : 97, column : 35, filename : "./MicroBenchmark/virtual_v1_nv0/virtual_v1_nv0_30_2.cpp", 

; Function Attrs: mustprogress noinline nounwind uwtable
define linkonce_odr dso_local void @_ZN2CC13hh_v_00000018Ev(%class.CC* noundef nonnull align 8 dereferenceable(16) %this) unnamed_addr #4 comdat align 2 !dbg !609 {	 ;;; filename : "./MicroBenchmark/virtual_v1_nv0/virtual_v1_nv0_30_2.cpp", line : 98, 
entry:	 ;;;;; filename : "./MicroBenchmark/virtual_v1_nv0/virtual_v1_nv0_30_2.cpp", line : 98, 
  call void @llvm.dbg.value(metadata %class.CC* %this, metadata !610, metadata !DIExpression()), !dbg !611	 ;;;;; filename : "./MicroBenchmark/virtual_v1_nv0/virtual_v1_nv0_30_2.cpp", line : 98, 
  ret void, !dbg !612	 ;;; line : 98, column : 35, filename : "./MicroBenchmark/virtual_v1_nv0/virtual_v1_nv0_30_2.cpp", 
}	 ;;;;; line : 98, column : 35, filename : "./MicroBenchmark/virtual_v1_nv0/virtual_v1_nv0_30_2.cpp", 

; Function Attrs: mustprogress noinline nounwind uwtable
define linkonce_odr dso_local void @_ZN2CC13hh_v_00000019Ev(%class.CC* noundef nonnull align 8 dereferenceable(16) %this) unnamed_addr #4 comdat align 2 !dbg !613 {	 ;;; filename : "./MicroBenchmark/virtual_v1_nv0/virtual_v1_nv0_30_2.cpp", line : 99, 
entry:	 ;;;;; filename : "./MicroBenchmark/virtual_v1_nv0/virtual_v1_nv0_30_2.cpp", line : 99, 
  call void @llvm.dbg.value(metadata %class.CC* %this, metadata !614, metadata !DIExpression()), !dbg !615	 ;;;;; filename : "./MicroBenchmark/virtual_v1_nv0/virtual_v1_nv0_30_2.cpp", line : 99, 
  ret void, !dbg !616	 ;;; line : 99, column : 35, filename : "./MicroBenchmark/virtual_v1_nv0/virtual_v1_nv0_30_2.cpp", 
}	 ;;;;; line : 99, column : 35, filename : "./MicroBenchmark/virtual_v1_nv0/virtual_v1_nv0_30_2.cpp", 

; Function Attrs: mustprogress noinline nounwind uwtable
define linkonce_odr dso_local void @_ZN2CC13hh_v_00000020Ev(%class.CC* noundef nonnull align 8 dereferenceable(16) %this) unnamed_addr #4 comdat align 2 !dbg !617 {	 ;;; filename : "./MicroBenchmark/virtual_v1_nv0/virtual_v1_nv0_30_2.cpp", line : 100, 
entry:	 ;;;;; filename : "./MicroBenchmark/virtual_v1_nv0/virtual_v1_nv0_30_2.cpp", line : 100, 
  call void @llvm.dbg.value(metadata %class.CC* %this, metadata !618, metadata !DIExpression()), !dbg !619	 ;;;;; filename : "./MicroBenchmark/virtual_v1_nv0/virtual_v1_nv0_30_2.cpp", line : 100, 
  ret void, !dbg !620	 ;;; line : 100, column : 35, filename : "./MicroBenchmark/virtual_v1_nv0/virtual_v1_nv0_30_2.cpp", 
}	 ;;;;; line : 100, column : 35, filename : "./MicroBenchmark/virtual_v1_nv0/virtual_v1_nv0_30_2.cpp", 

; Function Attrs: mustprogress noinline nounwind uwtable
define linkonce_odr dso_local void @_ZN2CC13hh_v_00000021Ev(%class.CC* noundef nonnull align 8 dereferenceable(16) %this) unnamed_addr #4 comdat align 2 !dbg !621 {	 ;;; filename : "./MicroBenchmark/virtual_v1_nv0/virtual_v1_nv0_30_2.cpp", line : 101, 
entry:	 ;;;;; filename : "./MicroBenchmark/virtual_v1_nv0/virtual_v1_nv0_30_2.cpp", line : 101, 
  call void @llvm.dbg.value(metadata %class.CC* %this, metadata !622, metadata !DIExpression()), !dbg !623	 ;;;;; filename : "./MicroBenchmark/virtual_v1_nv0/virtual_v1_nv0_30_2.cpp", line : 101, 
  ret void, !dbg !624	 ;;; line : 101, column : 35, filename : "./MicroBenchmark/virtual_v1_nv0/virtual_v1_nv0_30_2.cpp", 
}	 ;;;;; line : 101, column : 35, filename : "./MicroBenchmark/virtual_v1_nv0/virtual_v1_nv0_30_2.cpp", 

; Function Attrs: mustprogress noinline nounwind uwtable
define linkonce_odr dso_local void @_ZN2CC13hh_v_00000022Ev(%class.CC* noundef nonnull align 8 dereferenceable(16) %this) unnamed_addr #4 comdat align 2 !dbg !625 {	 ;;; filename : "./MicroBenchmark/virtual_v1_nv0/virtual_v1_nv0_30_2.cpp", line : 102, 
entry:	 ;;;;; filename : "./MicroBenchmark/virtual_v1_nv0/virtual_v1_nv0_30_2.cpp", line : 102, 
  call void @llvm.dbg.value(metadata %class.CC* %this, metadata !626, metadata !DIExpression()), !dbg !627	 ;;;;; filename : "./MicroBenchmark/virtual_v1_nv0/virtual_v1_nv0_30_2.cpp", line : 102, 
  ret void, !dbg !628	 ;;; line : 102, column : 35, filename : "./MicroBenchmark/virtual_v1_nv0/virtual_v1_nv0_30_2.cpp", 
}	 ;;;;; line : 102, column : 35, filename : "./MicroBenchmark/virtual_v1_nv0/virtual_v1_nv0_30_2.cpp", 

; Function Attrs: mustprogress noinline nounwind uwtable
define linkonce_odr dso_local void @_ZN2CC13hh_v_00000023Ev(%class.CC* noundef nonnull align 8 dereferenceable(16) %this) unnamed_addr #4 comdat align 2 !dbg !629 {	 ;;; filename : "./MicroBenchmark/virtual_v1_nv0/virtual_v1_nv0_30_2.cpp", line : 103, 
entry:	 ;;;;; filename : "./MicroBenchmark/virtual_v1_nv0/virtual_v1_nv0_30_2.cpp", line : 103, 
  call void @llvm.dbg.value(metadata %class.CC* %this, metadata !630, metadata !DIExpression()), !dbg !631	 ;;;;; filename : "./MicroBenchmark/virtual_v1_nv0/virtual_v1_nv0_30_2.cpp", line : 103, 
  ret void, !dbg !632	 ;;; line : 103, column : 35, filename : "./MicroBenchmark/virtual_v1_nv0/virtual_v1_nv0_30_2.cpp", 
}	 ;;;;; line : 103, column : 35, filename : "./MicroBenchmark/virtual_v1_nv0/virtual_v1_nv0_30_2.cpp", 

; Function Attrs: mustprogress noinline nounwind uwtable
define linkonce_odr dso_local void @_ZN2CC13hh_v_00000024Ev(%class.CC* noundef nonnull align 8 dereferenceable(16) %this) unnamed_addr #4 comdat align 2 !dbg !633 {	 ;;; filename : "./MicroBenchmark/virtual_v1_nv0/virtual_v1_nv0_30_2.cpp", line : 104, 
entry:	 ;;;;; filename : "./MicroBenchmark/virtual_v1_nv0/virtual_v1_nv0_30_2.cpp", line : 104, 
  call void @llvm.dbg.value(metadata %class.CC* %this, metadata !634, metadata !DIExpression()), !dbg !635	 ;;;;; filename : "./MicroBenchmark/virtual_v1_nv0/virtual_v1_nv0_30_2.cpp", line : 104, 
  ret void, !dbg !636	 ;;; line : 104, column : 35, filename : "./MicroBenchmark/virtual_v1_nv0/virtual_v1_nv0_30_2.cpp", 
}	 ;;;;; line : 104, column : 35, filename : "./MicroBenchmark/virtual_v1_nv0/virtual_v1_nv0_30_2.cpp", 

; Function Attrs: mustprogress noinline nounwind uwtable
define linkonce_odr dso_local void @_ZN2CC13hh_v_00000025Ev(%class.CC* noundef nonnull align 8 dereferenceable(16) %this) unnamed_addr #4 comdat align 2 !dbg !637 {	 ;;; filename : "./MicroBenchmark/virtual_v1_nv0/virtual_v1_nv0_30_2.cpp", line : 105, 
entry:	 ;;;;; filename : "./MicroBenchmark/virtual_v1_nv0/virtual_v1_nv0_30_2.cpp", line : 105, 
  call void @llvm.dbg.value(metadata %class.CC* %this, metadata !638, metadata !DIExpression()), !dbg !639	 ;;;;; filename : "./MicroBenchmark/virtual_v1_nv0/virtual_v1_nv0_30_2.cpp", line : 105, 
  ret void, !dbg !640	 ;;; line : 105, column : 35, filename : "./MicroBenchmark/virtual_v1_nv0/virtual_v1_nv0_30_2.cpp", 
}	 ;;;;; line : 105, column : 35, filename : "./MicroBenchmark/virtual_v1_nv0/virtual_v1_nv0_30_2.cpp", 

; Function Attrs: mustprogress noinline nounwind uwtable
define linkonce_odr dso_local void @_ZN2CC13hh_v_00000026Ev(%class.CC* noundef nonnull align 8 dereferenceable(16) %this) unnamed_addr #4 comdat align 2 !dbg !641 {	 ;;; filename : "./MicroBenchmark/virtual_v1_nv0/virtual_v1_nv0_30_2.cpp", line : 106, 
entry:	 ;;;;; filename : "./MicroBenchmark/virtual_v1_nv0/virtual_v1_nv0_30_2.cpp", line : 106, 
  call void @llvm.dbg.value(metadata %class.CC* %this, metadata !642, metadata !DIExpression()), !dbg !643	 ;;;;; filename : "./MicroBenchmark/virtual_v1_nv0/virtual_v1_nv0_30_2.cpp", line : 106, 
  ret void, !dbg !644	 ;;; line : 106, column : 35, filename : "./MicroBenchmark/virtual_v1_nv0/virtual_v1_nv0_30_2.cpp", 
}	 ;;;;; line : 106, column : 35, filename : "./MicroBenchmark/virtual_v1_nv0/virtual_v1_nv0_30_2.cpp", 

; Function Attrs: mustprogress noinline nounwind uwtable
define linkonce_odr dso_local void @_ZN2CC13hh_v_00000027Ev(%class.CC* noundef nonnull align 8 dereferenceable(16) %this) unnamed_addr #4 comdat align 2 !dbg !645 {	 ;;; filename : "./MicroBenchmark/virtual_v1_nv0/virtual_v1_nv0_30_2.cpp", line : 107, 
entry:	 ;;;;; filename : "./MicroBenchmark/virtual_v1_nv0/virtual_v1_nv0_30_2.cpp", line : 107, 
  call void @llvm.dbg.value(metadata %class.CC* %this, metadata !646, metadata !DIExpression()), !dbg !647	 ;;;;; filename : "./MicroBenchmark/virtual_v1_nv0/virtual_v1_nv0_30_2.cpp", line : 107, 
  ret void, !dbg !648	 ;;; line : 107, column : 35, filename : "./MicroBenchmark/virtual_v1_nv0/virtual_v1_nv0_30_2.cpp", 
}	 ;;;;; line : 107, column : 35, filename : "./MicroBenchmark/virtual_v1_nv0/virtual_v1_nv0_30_2.cpp", 

; Function Attrs: mustprogress noinline nounwind uwtable
define linkonce_odr dso_local void @_ZN2CC13hh_v_00000028Ev(%class.CC* noundef nonnull align 8 dereferenceable(16) %this) unnamed_addr #4 comdat align 2 !dbg !649 {	 ;;; filename : "./MicroBenchmark/virtual_v1_nv0/virtual_v1_nv0_30_2.cpp", line : 108, 
entry:	 ;;;;; filename : "./MicroBenchmark/virtual_v1_nv0/virtual_v1_nv0_30_2.cpp", line : 108, 
  call void @llvm.dbg.value(metadata %class.CC* %this, metadata !650, metadata !DIExpression()), !dbg !651	 ;;;;; filename : "./MicroBenchmark/virtual_v1_nv0/virtual_v1_nv0_30_2.cpp", line : 108, 
  ret void, !dbg !652	 ;;; line : 108, column : 35, filename : "./MicroBenchmark/virtual_v1_nv0/virtual_v1_nv0_30_2.cpp", 
}	 ;;;;; line : 108, column : 35, filename : "./MicroBenchmark/virtual_v1_nv0/virtual_v1_nv0_30_2.cpp", 

; Function Attrs: mustprogress noinline nounwind uwtable
define linkonce_odr dso_local void @_ZN2CC13hh_v_00000029Ev(%class.CC* noundef nonnull align 8 dereferenceable(16) %this) unnamed_addr #4 comdat align 2 !dbg !653 {	 ;;; filename : "./MicroBenchmark/virtual_v1_nv0/virtual_v1_nv0_30_2.cpp", line : 109, 
entry:	 ;;;;; filename : "./MicroBenchmark/virtual_v1_nv0/virtual_v1_nv0_30_2.cpp", line : 109, 
  call void @llvm.dbg.value(metadata %class.CC* %this, metadata !654, metadata !DIExpression()), !dbg !655	 ;;;;; filename : "./MicroBenchmark/virtual_v1_nv0/virtual_v1_nv0_30_2.cpp", line : 109, 
  ret void, !dbg !656	 ;;; line : 109, column : 35, filename : "./MicroBenchmark/virtual_v1_nv0/virtual_v1_nv0_30_2.cpp", 
}	 ;;;;; line : 109, column : 35, filename : "./MicroBenchmark/virtual_v1_nv0/virtual_v1_nv0_30_2.cpp", 

; Function Attrs: noinline uwtable
define linkonce_odr dso_local void @_ZTv0_n24_N2DD13kk_v_00000000Ev(%class.DD* noundef %this) unnamed_addr #5 comdat align 2 !dbg !657 {	 ;;; filename : "./MicroBenchmark/virtual_v1_nv0/virtual_v1_nv0_30_2.cpp", line : 117, 
entry:	 ;;;;; filename : "./MicroBenchmark/virtual_v1_nv0/virtual_v1_nv0_30_2.cpp", line : 117, 
  %0 = bitcast %class.DD* %this to i8*, !dbg !658	 ;;;;; filename : "./MicroBenchmark/virtual_v1_nv0/virtual_v1_nv0_30_2.cpp", line : 117, 
  %1 = bitcast i8* %0 to i8**, !dbg !658	 ;;;;; filename : "./MicroBenchmark/virtual_v1_nv0/virtual_v1_nv0_30_2.cpp", line : 117, 
  %2 = load i8*, i8** %1, align 8, !dbg !658	 ;;;;; filename : "./MicroBenchmark/virtual_v1_nv0/virtual_v1_nv0_30_2.cpp", line : 117, 
  %3 = getelementptr inbounds i8, i8* %2, i64 -24, !dbg !658	 ;;;;; filename : "./MicroBenchmark/virtual_v1_nv0/virtual_v1_nv0_30_2.cpp", line : 117, 
  %4 = bitcast i8* %3 to i64*, !dbg !658	 ;;;;; filename : "./MicroBenchmark/virtual_v1_nv0/virtual_v1_nv0_30_2.cpp", line : 117, 
  %5 = load i64, i64* %4, align 8, !dbg !658	 ;;;;; filename : "./MicroBenchmark/virtual_v1_nv0/virtual_v1_nv0_30_2.cpp", line : 117, 
  %6 = getelementptr inbounds i8, i8* %0, i64 %5, !dbg !658	 ;;;;; filename : "./MicroBenchmark/virtual_v1_nv0/virtual_v1_nv0_30_2.cpp", line : 117, 
  %7 = bitcast i8* %6 to %class.DD*, !dbg !658	 ;;;;; filename : "./MicroBenchmark/virtual_v1_nv0/virtual_v1_nv0_30_2.cpp", line : 117, 
  tail call void @_ZN2DD13kk_v_00000000Ev(%class.DD* noundef nonnull align 8 dereferenceable(40) %7) #6, !dbg !658	 ;;;;; filename : "./MicroBenchmark/virtual_v1_nv0/virtual_v1_nv0_30_2.cpp", line : 117, 
  ret void, !dbg !658	 ;;;;; filename : "./MicroBenchmark/virtual_v1_nv0/virtual_v1_nv0_30_2.cpp", line : 117, 
}	 ;;;;; filename : "./MicroBenchmark/virtual_v1_nv0/virtual_v1_nv0_30_2.cpp", line : 117, 

; Function Attrs: noinline uwtable
define linkonce_odr dso_local void @_ZTv0_n32_N2DD13kk_v_00000001Ev(%class.DD* noundef %this) unnamed_addr #5 comdat align 2 !dbg !659 {	 ;;; filename : "./MicroBenchmark/virtual_v1_nv0/virtual_v1_nv0_30_2.cpp", line : 118, 
entry:	 ;;;;; filename : "./MicroBenchmark/virtual_v1_nv0/virtual_v1_nv0_30_2.cpp", line : 118, 
  %0 = bitcast %class.DD* %this to i8*, !dbg !660	 ;;;;; filename : "./MicroBenchmark/virtual_v1_nv0/virtual_v1_nv0_30_2.cpp", line : 118, 
  %1 = bitcast i8* %0 to i8**, !dbg !660	 ;;;;; filename : "./MicroBenchmark/virtual_v1_nv0/virtual_v1_nv0_30_2.cpp", line : 118, 
  %2 = load i8*, i8** %1, align 8, !dbg !660	 ;;;;; filename : "./MicroBenchmark/virtual_v1_nv0/virtual_v1_nv0_30_2.cpp", line : 118, 
  %3 = getelementptr inbounds i8, i8* %2, i64 -32, !dbg !660	 ;;;;; filename : "./MicroBenchmark/virtual_v1_nv0/virtual_v1_nv0_30_2.cpp", line : 118, 
  %4 = bitcast i8* %3 to i64*, !dbg !660	 ;;;;; filename : "./MicroBenchmark/virtual_v1_nv0/virtual_v1_nv0_30_2.cpp", line : 118, 
  %5 = load i64, i64* %4, align 8, !dbg !660	 ;;;;; filename : "./MicroBenchmark/virtual_v1_nv0/virtual_v1_nv0_30_2.cpp", line : 118, 
  %6 = getelementptr inbounds i8, i8* %0, i64 %5, !dbg !660	 ;;;;; filename : "./MicroBenchmark/virtual_v1_nv0/virtual_v1_nv0_30_2.cpp", line : 118, 
  %7 = bitcast i8* %6 to %class.DD*, !dbg !660	 ;;;;; filename : "./MicroBenchmark/virtual_v1_nv0/virtual_v1_nv0_30_2.cpp", line : 118, 
  tail call void @_ZN2DD13kk_v_00000001Ev(%class.DD* noundef nonnull align 8 dereferenceable(40) %7) #6, !dbg !660	 ;;;;; filename : "./MicroBenchmark/virtual_v1_nv0/virtual_v1_nv0_30_2.cpp", line : 118, 
  ret void, !dbg !660	 ;;;;; filename : "./MicroBenchmark/virtual_v1_nv0/virtual_v1_nv0_30_2.cpp", line : 118, 
}	 ;;;;; filename : "./MicroBenchmark/virtual_v1_nv0/virtual_v1_nv0_30_2.cpp", line : 118, 

; Function Attrs: noinline uwtable
define linkonce_odr dso_local void @_ZTv0_n40_N2DD13kk_v_00000002Ev(%class.DD* noundef %this) unnamed_addr #5 comdat align 2 !dbg !661 {	 ;;; filename : "./MicroBenchmark/virtual_v1_nv0/virtual_v1_nv0_30_2.cpp", line : 119, 
entry:	 ;;;;; filename : "./MicroBenchmark/virtual_v1_nv0/virtual_v1_nv0_30_2.cpp", line : 119, 
  %0 = bitcast %class.DD* %this to i8*, !dbg !662	 ;;;;; filename : "./MicroBenchmark/virtual_v1_nv0/virtual_v1_nv0_30_2.cpp", line : 119, 
  %1 = bitcast i8* %0 to i8**, !dbg !662	 ;;;;; filename : "./MicroBenchmark/virtual_v1_nv0/virtual_v1_nv0_30_2.cpp", line : 119, 
  %2 = load i8*, i8** %1, align 8, !dbg !662	 ;;;;; filename : "./MicroBenchmark/virtual_v1_nv0/virtual_v1_nv0_30_2.cpp", line : 119, 
  %3 = getelementptr inbounds i8, i8* %2, i64 -40, !dbg !662	 ;;;;; filename : "./MicroBenchmark/virtual_v1_nv0/virtual_v1_nv0_30_2.cpp", line : 119, 
  %4 = bitcast i8* %3 to i64*, !dbg !662	 ;;;;; filename : "./MicroBenchmark/virtual_v1_nv0/virtual_v1_nv0_30_2.cpp", line : 119, 
  %5 = load i64, i64* %4, align 8, !dbg !662	 ;;;;; filename : "./MicroBenchmark/virtual_v1_nv0/virtual_v1_nv0_30_2.cpp", line : 119, 
  %6 = getelementptr inbounds i8, i8* %0, i64 %5, !dbg !662	 ;;;;; filename : "./MicroBenchmark/virtual_v1_nv0/virtual_v1_nv0_30_2.cpp", line : 119, 
  %7 = bitcast i8* %6 to %class.DD*, !dbg !662	 ;;;;; filename : "./MicroBenchmark/virtual_v1_nv0/virtual_v1_nv0_30_2.cpp", line : 119, 
  tail call void @_ZN2DD13kk_v_00000002Ev(%class.DD* noundef nonnull align 8 dereferenceable(40) %7) #6, !dbg !662	 ;;;;; filename : "./MicroBenchmark/virtual_v1_nv0/virtual_v1_nv0_30_2.cpp", line : 119, 
  ret void, !dbg !662	 ;;;;; filename : "./MicroBenchmark/virtual_v1_nv0/virtual_v1_nv0_30_2.cpp", line : 119, 
}	 ;;;;; filename : "./MicroBenchmark/virtual_v1_nv0/virtual_v1_nv0_30_2.cpp", line : 119, 

; Function Attrs: noinline uwtable
define linkonce_odr dso_local void @_ZTv0_n48_N2DD13kk_v_00000003Ev(%class.DD* noundef %this) unnamed_addr #5 comdat align 2 !dbg !663 {	 ;;; filename : "./MicroBenchmark/virtual_v1_nv0/virtual_v1_nv0_30_2.cpp", line : 120, 
entry:	 ;;;;; filename : "./MicroBenchmark/virtual_v1_nv0/virtual_v1_nv0_30_2.cpp", line : 120, 
  %0 = bitcast %class.DD* %this to i8*, !dbg !664	 ;;;;; filename : "./MicroBenchmark/virtual_v1_nv0/virtual_v1_nv0_30_2.cpp", line : 120, 
  %1 = bitcast i8* %0 to i8**, !dbg !664	 ;;;;; filename : "./MicroBenchmark/virtual_v1_nv0/virtual_v1_nv0_30_2.cpp", line : 120, 
  %2 = load i8*, i8** %1, align 8, !dbg !664	 ;;;;; filename : "./MicroBenchmark/virtual_v1_nv0/virtual_v1_nv0_30_2.cpp", line : 120, 
  %3 = getelementptr inbounds i8, i8* %2, i64 -48, !dbg !664	 ;;;;; filename : "./MicroBenchmark/virtual_v1_nv0/virtual_v1_nv0_30_2.cpp", line : 120, 
  %4 = bitcast i8* %3 to i64*, !dbg !664	 ;;;;; filename : "./MicroBenchmark/virtual_v1_nv0/virtual_v1_nv0_30_2.cpp", line : 120, 
  %5 = load i64, i64* %4, align 8, !dbg !664	 ;;;;; filename : "./MicroBenchmark/virtual_v1_nv0/virtual_v1_nv0_30_2.cpp", line : 120, 
  %6 = getelementptr inbounds i8, i8* %0, i64 %5, !dbg !664	 ;;;;; filename : "./MicroBenchmark/virtual_v1_nv0/virtual_v1_nv0_30_2.cpp", line : 120, 
  %7 = bitcast i8* %6 to %class.DD*, !dbg !664	 ;;;;; filename : "./MicroBenchmark/virtual_v1_nv0/virtual_v1_nv0_30_2.cpp", line : 120, 
  tail call void @_ZN2DD13kk_v_00000003Ev(%class.DD* noundef nonnull align 8 dereferenceable(40) %7) #6, !dbg !664	 ;;;;; filename : "./MicroBenchmark/virtual_v1_nv0/virtual_v1_nv0_30_2.cpp", line : 120, 
  ret void, !dbg !664	 ;;;;; filename : "./MicroBenchmark/virtual_v1_nv0/virtual_v1_nv0_30_2.cpp", line : 120, 
}	 ;;;;; filename : "./MicroBenchmark/virtual_v1_nv0/virtual_v1_nv0_30_2.cpp", line : 120, 

; Function Attrs: noinline uwtable
define linkonce_odr dso_local void @_ZTv0_n56_N2DD13kk_v_00000004Ev(%class.DD* noundef %this) unnamed_addr #5 comdat align 2 !dbg !665 {	 ;;; filename : "./MicroBenchmark/virtual_v1_nv0/virtual_v1_nv0_30_2.cpp", line : 121, 
entry:	 ;;;;; filename : "./MicroBenchmark/virtual_v1_nv0/virtual_v1_nv0_30_2.cpp", line : 121, 
  %0 = bitcast %class.DD* %this to i8*, !dbg !666	 ;;;;; filename : "./MicroBenchmark/virtual_v1_nv0/virtual_v1_nv0_30_2.cpp", line : 121, 
  %1 = bitcast i8* %0 to i8**, !dbg !666	 ;;;;; filename : "./MicroBenchmark/virtual_v1_nv0/virtual_v1_nv0_30_2.cpp", line : 121, 
  %2 = load i8*, i8** %1, align 8, !dbg !666	 ;;;;; filename : "./MicroBenchmark/virtual_v1_nv0/virtual_v1_nv0_30_2.cpp", line : 121, 
  %3 = getelementptr inbounds i8, i8* %2, i64 -56, !dbg !666	 ;;;;; filename : "./MicroBenchmark/virtual_v1_nv0/virtual_v1_nv0_30_2.cpp", line : 121, 
  %4 = bitcast i8* %3 to i64*, !dbg !666	 ;;;;; filename : "./MicroBenchmark/virtual_v1_nv0/virtual_v1_nv0_30_2.cpp", line : 121, 
  %5 = load i64, i64* %4, align 8, !dbg !666	 ;;;;; filename : "./MicroBenchmark/virtual_v1_nv0/virtual_v1_nv0_30_2.cpp", line : 121, 
  %6 = getelementptr inbounds i8, i8* %0, i64 %5, !dbg !666	 ;;;;; filename : "./MicroBenchmark/virtual_v1_nv0/virtual_v1_nv0_30_2.cpp", line : 121, 
  %7 = bitcast i8* %6 to %class.DD*, !dbg !666	 ;;;;; filename : "./MicroBenchmark/virtual_v1_nv0/virtual_v1_nv0_30_2.cpp", line : 121, 
  tail call void @_ZN2DD13kk_v_00000004Ev(%class.DD* noundef nonnull align 8 dereferenceable(40) %7) #6, !dbg !666	 ;;;;; filename : "./MicroBenchmark/virtual_v1_nv0/virtual_v1_nv0_30_2.cpp", line : 121, 
  ret void, !dbg !666	 ;;;;; filename : "./MicroBenchmark/virtual_v1_nv0/virtual_v1_nv0_30_2.cpp", line : 121, 
}	 ;;;;; filename : "./MicroBenchmark/virtual_v1_nv0/virtual_v1_nv0_30_2.cpp", line : 121, 

; Function Attrs: noinline uwtable
define linkonce_odr dso_local void @_ZTv0_n64_N2DD13kk_v_00000005Ev(%class.DD* noundef %this) unnamed_addr #5 comdat align 2 !dbg !667 {	 ;;; filename : "./MicroBenchmark/virtual_v1_nv0/virtual_v1_nv0_30_2.cpp", line : 122, 
entry:	 ;;;;; filename : "./MicroBenchmark/virtual_v1_nv0/virtual_v1_nv0_30_2.cpp", line : 122, 
  %0 = bitcast %class.DD* %this to i8*, !dbg !668	 ;;;;; filename : "./MicroBenchmark/virtual_v1_nv0/virtual_v1_nv0_30_2.cpp", line : 122, 
  %1 = bitcast i8* %0 to i8**, !dbg !668	 ;;;;; filename : "./MicroBenchmark/virtual_v1_nv0/virtual_v1_nv0_30_2.cpp", line : 122, 
  %2 = load i8*, i8** %1, align 8, !dbg !668	 ;;;;; filename : "./MicroBenchmark/virtual_v1_nv0/virtual_v1_nv0_30_2.cpp", line : 122, 
  %3 = getelementptr inbounds i8, i8* %2, i64 -64, !dbg !668	 ;;;;; filename : "./MicroBenchmark/virtual_v1_nv0/virtual_v1_nv0_30_2.cpp", line : 122, 
  %4 = bitcast i8* %3 to i64*, !dbg !668	 ;;;;; filename : "./MicroBenchmark/virtual_v1_nv0/virtual_v1_nv0_30_2.cpp", line : 122, 
  %5 = load i64, i64* %4, align 8, !dbg !668	 ;;;;; filename : "./MicroBenchmark/virtual_v1_nv0/virtual_v1_nv0_30_2.cpp", line : 122, 
  %6 = getelementptr inbounds i8, i8* %0, i64 %5, !dbg !668	 ;;;;; filename : "./MicroBenchmark/virtual_v1_nv0/virtual_v1_nv0_30_2.cpp", line : 122, 
  %7 = bitcast i8* %6 to %class.DD*, !dbg !668	 ;;;;; filename : "./MicroBenchmark/virtual_v1_nv0/virtual_v1_nv0_30_2.cpp", line : 122, 
  tail call void @_ZN2DD13kk_v_00000005Ev(%class.DD* noundef nonnull align 8 dereferenceable(40) %7) #6, !dbg !668	 ;;;;; filename : "./MicroBenchmark/virtual_v1_nv0/virtual_v1_nv0_30_2.cpp", line : 122, 
  ret void, !dbg !668	 ;;;;; filename : "./MicroBenchmark/virtual_v1_nv0/virtual_v1_nv0_30_2.cpp", line : 122, 
}	 ;;;;; filename : "./MicroBenchmark/virtual_v1_nv0/virtual_v1_nv0_30_2.cpp", line : 122, 

; Function Attrs: mustprogress noinline nounwind uwtable
define linkonce_odr dso_local void @_ZN2AA13kk_v_00000006Ev(%class.AA* noundef nonnull align 8 dereferenceable(16) %this) unnamed_addr #4 comdat align 2 !dbg !669 {	 ;;; filename : "./MicroBenchmark/virtual_v1_nv0/virtual_v1_nv0_30_2.cpp", line : 12, 
entry:	 ;;;;; filename : "./MicroBenchmark/virtual_v1_nv0/virtual_v1_nv0_30_2.cpp", line : 12, 
  call void @llvm.dbg.value(metadata %class.AA* %this, metadata !670, metadata !DIExpression()), !dbg !671	 ;;;;; filename : "./MicroBenchmark/virtual_v1_nv0/virtual_v1_nv0_30_2.cpp", line : 12, 
  ret void, !dbg !672	 ;;; line : 12, column : 35, filename : "./MicroBenchmark/virtual_v1_nv0/virtual_v1_nv0_30_2.cpp", 
}	 ;;;;; line : 12, column : 35, filename : "./MicroBenchmark/virtual_v1_nv0/virtual_v1_nv0_30_2.cpp", 

; Function Attrs: mustprogress noinline nounwind uwtable
define linkonce_odr dso_local void @_ZN2AA13kk_v_00000007Ev(%class.AA* noundef nonnull align 8 dereferenceable(16) %this) unnamed_addr #4 comdat align 2 !dbg !673 {	 ;;; filename : "./MicroBenchmark/virtual_v1_nv0/virtual_v1_nv0_30_2.cpp", line : 13, 
entry:	 ;;;;; filename : "./MicroBenchmark/virtual_v1_nv0/virtual_v1_nv0_30_2.cpp", line : 13, 
  call void @llvm.dbg.value(metadata %class.AA* %this, metadata !674, metadata !DIExpression()), !dbg !675	 ;;;;; filename : "./MicroBenchmark/virtual_v1_nv0/virtual_v1_nv0_30_2.cpp", line : 13, 
  ret void, !dbg !676	 ;;; line : 13, column : 35, filename : "./MicroBenchmark/virtual_v1_nv0/virtual_v1_nv0_30_2.cpp", 
}	 ;;;;; line : 13, column : 35, filename : "./MicroBenchmark/virtual_v1_nv0/virtual_v1_nv0_30_2.cpp", 

; Function Attrs: mustprogress noinline nounwind uwtable
define linkonce_odr dso_local void @_ZN2AA13kk_v_00000008Ev(%class.AA* noundef nonnull align 8 dereferenceable(16) %this) unnamed_addr #4 comdat align 2 !dbg !677 {	 ;;; filename : "./MicroBenchmark/virtual_v1_nv0/virtual_v1_nv0_30_2.cpp", line : 14, 
entry:	 ;;;;; filename : "./MicroBenchmark/virtual_v1_nv0/virtual_v1_nv0_30_2.cpp", line : 14, 
  call void @llvm.dbg.value(metadata %class.AA* %this, metadata !678, metadata !DIExpression()), !dbg !679	 ;;;;; filename : "./MicroBenchmark/virtual_v1_nv0/virtual_v1_nv0_30_2.cpp", line : 14, 
  ret void, !dbg !680	 ;;; line : 14, column : 35, filename : "./MicroBenchmark/virtual_v1_nv0/virtual_v1_nv0_30_2.cpp", 
}	 ;;;;; line : 14, column : 35, filename : "./MicroBenchmark/virtual_v1_nv0/virtual_v1_nv0_30_2.cpp", 

; Function Attrs: mustprogress noinline nounwind uwtable
define linkonce_odr dso_local void @_ZN2AA13kk_v_00000009Ev(%class.AA* noundef nonnull align 8 dereferenceable(16) %this) unnamed_addr #4 comdat align 2 !dbg !681 {	 ;;; filename : "./MicroBenchmark/virtual_v1_nv0/virtual_v1_nv0_30_2.cpp", line : 15, 
entry:	 ;;;;; filename : "./MicroBenchmark/virtual_v1_nv0/virtual_v1_nv0_30_2.cpp", line : 15, 
  call void @llvm.dbg.value(metadata %class.AA* %this, metadata !682, metadata !DIExpression()), !dbg !683	 ;;;;; filename : "./MicroBenchmark/virtual_v1_nv0/virtual_v1_nv0_30_2.cpp", line : 15, 
  ret void, !dbg !684	 ;;; line : 15, column : 35, filename : "./MicroBenchmark/virtual_v1_nv0/virtual_v1_nv0_30_2.cpp", 
}	 ;;;;; line : 15, column : 35, filename : "./MicroBenchmark/virtual_v1_nv0/virtual_v1_nv0_30_2.cpp", 

; Function Attrs: mustprogress noinline nounwind uwtable
define linkonce_odr dso_local void @_ZN2AA13kk_v_00000010Ev(%class.AA* noundef nonnull align 8 dereferenceable(16) %this) unnamed_addr #4 comdat align 2 !dbg !685 {	 ;;; filename : "./MicroBenchmark/virtual_v1_nv0/virtual_v1_nv0_30_2.cpp", line : 16, 
entry:	 ;;;;; filename : "./MicroBenchmark/virtual_v1_nv0/virtual_v1_nv0_30_2.cpp", line : 16, 
  call void @llvm.dbg.value(metadata %class.AA* %this, metadata !686, metadata !DIExpression()), !dbg !687	 ;;;;; filename : "./MicroBenchmark/virtual_v1_nv0/virtual_v1_nv0_30_2.cpp", line : 16, 
  ret void, !dbg !688	 ;;; line : 16, column : 35, filename : "./MicroBenchmark/virtual_v1_nv0/virtual_v1_nv0_30_2.cpp", 
}	 ;;;;; line : 16, column : 35, filename : "./MicroBenchmark/virtual_v1_nv0/virtual_v1_nv0_30_2.cpp", 

; Function Attrs: mustprogress noinline nounwind uwtable
define linkonce_odr dso_local void @_ZN2AA13kk_v_00000011Ev(%class.AA* noundef nonnull align 8 dereferenceable(16) %this) unnamed_addr #4 comdat align 2 !dbg !689 {	 ;;; filename : "./MicroBenchmark/virtual_v1_nv0/virtual_v1_nv0_30_2.cpp", line : 17, 
entry:	 ;;;;; filename : "./MicroBenchmark/virtual_v1_nv0/virtual_v1_nv0_30_2.cpp", line : 17, 
  call void @llvm.dbg.value(metadata %class.AA* %this, metadata !690, metadata !DIExpression()), !dbg !691	 ;;;;; filename : "./MicroBenchmark/virtual_v1_nv0/virtual_v1_nv0_30_2.cpp", line : 17, 
  ret void, !dbg !692	 ;;; line : 17, column : 35, filename : "./MicroBenchmark/virtual_v1_nv0/virtual_v1_nv0_30_2.cpp", 
}	 ;;;;; line : 17, column : 35, filename : "./MicroBenchmark/virtual_v1_nv0/virtual_v1_nv0_30_2.cpp", 

; Function Attrs: mustprogress noinline nounwind uwtable
define linkonce_odr dso_local void @_ZN2AA13kk_v_00000012Ev(%class.AA* noundef nonnull align 8 dereferenceable(16) %this) unnamed_addr #4 comdat align 2 !dbg !693 {	 ;;; filename : "./MicroBenchmark/virtual_v1_nv0/virtual_v1_nv0_30_2.cpp", line : 18, 
entry:	 ;;;;; filename : "./MicroBenchmark/virtual_v1_nv0/virtual_v1_nv0_30_2.cpp", line : 18, 
  call void @llvm.dbg.value(metadata %class.AA* %this, metadata !694, metadata !DIExpression()), !dbg !695	 ;;;;; filename : "./MicroBenchmark/virtual_v1_nv0/virtual_v1_nv0_30_2.cpp", line : 18, 
  ret void, !dbg !696	 ;;; line : 18, column : 35, filename : "./MicroBenchmark/virtual_v1_nv0/virtual_v1_nv0_30_2.cpp", 
}	 ;;;;; line : 18, column : 35, filename : "./MicroBenchmark/virtual_v1_nv0/virtual_v1_nv0_30_2.cpp", 

; Function Attrs: mustprogress noinline nounwind uwtable
define linkonce_odr dso_local void @_ZN2AA13kk_v_00000013Ev(%class.AA* noundef nonnull align 8 dereferenceable(16) %this) unnamed_addr #4 comdat align 2 !dbg !697 {	 ;;; filename : "./MicroBenchmark/virtual_v1_nv0/virtual_v1_nv0_30_2.cpp", line : 19, 
entry:	 ;;;;; filename : "./MicroBenchmark/virtual_v1_nv0/virtual_v1_nv0_30_2.cpp", line : 19, 
  call void @llvm.dbg.value(metadata %class.AA* %this, metadata !698, metadata !DIExpression()), !dbg !699	 ;;;;; filename : "./MicroBenchmark/virtual_v1_nv0/virtual_v1_nv0_30_2.cpp", line : 19, 
  ret void, !dbg !700	 ;;; line : 19, column : 35, filename : "./MicroBenchmark/virtual_v1_nv0/virtual_v1_nv0_30_2.cpp", 
}	 ;;;;; line : 19, column : 35, filename : "./MicroBenchmark/virtual_v1_nv0/virtual_v1_nv0_30_2.cpp", 

; Function Attrs: mustprogress noinline nounwind uwtable
define linkonce_odr dso_local void @_ZN2AA13kk_v_00000014Ev(%class.AA* noundef nonnull align 8 dereferenceable(16) %this) unnamed_addr #4 comdat align 2 !dbg !701 {	 ;;; filename : "./MicroBenchmark/virtual_v1_nv0/virtual_v1_nv0_30_2.cpp", line : 20, 
entry:	 ;;;;; filename : "./MicroBenchmark/virtual_v1_nv0/virtual_v1_nv0_30_2.cpp", line : 20, 
  call void @llvm.dbg.value(metadata %class.AA* %this, metadata !702, metadata !DIExpression()), !dbg !703	 ;;;;; filename : "./MicroBenchmark/virtual_v1_nv0/virtual_v1_nv0_30_2.cpp", line : 20, 
  ret void, !dbg !704	 ;;; line : 20, column : 35, filename : "./MicroBenchmark/virtual_v1_nv0/virtual_v1_nv0_30_2.cpp", 
}	 ;;;;; line : 20, column : 35, filename : "./MicroBenchmark/virtual_v1_nv0/virtual_v1_nv0_30_2.cpp", 

; Function Attrs: mustprogress noinline nounwind uwtable
define linkonce_odr dso_local void @_ZN2AA13kk_v_00000015Ev(%class.AA* noundef nonnull align 8 dereferenceable(16) %this) unnamed_addr #4 comdat align 2 !dbg !705 {	 ;;; filename : "./MicroBenchmark/virtual_v1_nv0/virtual_v1_nv0_30_2.cpp", line : 21, 
entry:	 ;;;;; filename : "./MicroBenchmark/virtual_v1_nv0/virtual_v1_nv0_30_2.cpp", line : 21, 
  call void @llvm.dbg.value(metadata %class.AA* %this, metadata !706, metadata !DIExpression()), !dbg !707	 ;;;;; filename : "./MicroBenchmark/virtual_v1_nv0/virtual_v1_nv0_30_2.cpp", line : 21, 
  ret void, !dbg !708	 ;;; line : 21, column : 35, filename : "./MicroBenchmark/virtual_v1_nv0/virtual_v1_nv0_30_2.cpp", 
}	 ;;;;; line : 21, column : 35, filename : "./MicroBenchmark/virtual_v1_nv0/virtual_v1_nv0_30_2.cpp", 

; Function Attrs: mustprogress noinline nounwind uwtable
define linkonce_odr dso_local void @_ZN2AA13kk_v_00000016Ev(%class.AA* noundef nonnull align 8 dereferenceable(16) %this) unnamed_addr #4 comdat align 2 !dbg !709 {	 ;;; filename : "./MicroBenchmark/virtual_v1_nv0/virtual_v1_nv0_30_2.cpp", line : 22, 
entry:	 ;;;;; filename : "./MicroBenchmark/virtual_v1_nv0/virtual_v1_nv0_30_2.cpp", line : 22, 
  call void @llvm.dbg.value(metadata %class.AA* %this, metadata !710, metadata !DIExpression()), !dbg !711	 ;;;;; filename : "./MicroBenchmark/virtual_v1_nv0/virtual_v1_nv0_30_2.cpp", line : 22, 
  ret void, !dbg !712	 ;;; line : 22, column : 35, filename : "./MicroBenchmark/virtual_v1_nv0/virtual_v1_nv0_30_2.cpp", 
}	 ;;;;; line : 22, column : 35, filename : "./MicroBenchmark/virtual_v1_nv0/virtual_v1_nv0_30_2.cpp", 

; Function Attrs: mustprogress noinline nounwind uwtable
define linkonce_odr dso_local void @_ZN2AA13kk_v_00000017Ev(%class.AA* noundef nonnull align 8 dereferenceable(16) %this) unnamed_addr #4 comdat align 2 !dbg !713 {	 ;;; filename : "./MicroBenchmark/virtual_v1_nv0/virtual_v1_nv0_30_2.cpp", line : 23, 
entry:	 ;;;;; filename : "./MicroBenchmark/virtual_v1_nv0/virtual_v1_nv0_30_2.cpp", line : 23, 
  call void @llvm.dbg.value(metadata %class.AA* %this, metadata !714, metadata !DIExpression()), !dbg !715	 ;;;;; filename : "./MicroBenchmark/virtual_v1_nv0/virtual_v1_nv0_30_2.cpp", line : 23, 
  ret void, !dbg !716	 ;;; line : 23, column : 35, filename : "./MicroBenchmark/virtual_v1_nv0/virtual_v1_nv0_30_2.cpp", 
}	 ;;;;; line : 23, column : 35, filename : "./MicroBenchmark/virtual_v1_nv0/virtual_v1_nv0_30_2.cpp", 

; Function Attrs: mustprogress noinline nounwind uwtable
define linkonce_odr dso_local void @_ZN2AA13kk_v_00000018Ev(%class.AA* noundef nonnull align 8 dereferenceable(16) %this) unnamed_addr #4 comdat align 2 !dbg !717 {	 ;;; filename : "./MicroBenchmark/virtual_v1_nv0/virtual_v1_nv0_30_2.cpp", line : 24, 
entry:	 ;;;;; filename : "./MicroBenchmark/virtual_v1_nv0/virtual_v1_nv0_30_2.cpp", line : 24, 
  call void @llvm.dbg.value(metadata %class.AA* %this, metadata !718, metadata !DIExpression()), !dbg !719	 ;;;;; filename : "./MicroBenchmark/virtual_v1_nv0/virtual_v1_nv0_30_2.cpp", line : 24, 
  ret void, !dbg !720	 ;;; line : 24, column : 35, filename : "./MicroBenchmark/virtual_v1_nv0/virtual_v1_nv0_30_2.cpp", 
}	 ;;;;; line : 24, column : 35, filename : "./MicroBenchmark/virtual_v1_nv0/virtual_v1_nv0_30_2.cpp", 

; Function Attrs: mustprogress noinline nounwind uwtable
define linkonce_odr dso_local void @_ZN2AA13kk_v_00000019Ev(%class.AA* noundef nonnull align 8 dereferenceable(16) %this) unnamed_addr #4 comdat align 2 !dbg !721 {	 ;;; filename : "./MicroBenchmark/virtual_v1_nv0/virtual_v1_nv0_30_2.cpp", line : 25, 
entry:	 ;;;;; filename : "./MicroBenchmark/virtual_v1_nv0/virtual_v1_nv0_30_2.cpp", line : 25, 
  call void @llvm.dbg.value(metadata %class.AA* %this, metadata !722, metadata !DIExpression()), !dbg !723	 ;;;;; filename : "./MicroBenchmark/virtual_v1_nv0/virtual_v1_nv0_30_2.cpp", line : 25, 
  ret void, !dbg !724	 ;;; line : 25, column : 35, filename : "./MicroBenchmark/virtual_v1_nv0/virtual_v1_nv0_30_2.cpp", 
}	 ;;;;; line : 25, column : 35, filename : "./MicroBenchmark/virtual_v1_nv0/virtual_v1_nv0_30_2.cpp", 

; Function Attrs: mustprogress noinline nounwind uwtable
define linkonce_odr dso_local void @_ZN2AA13kk_v_00000020Ev(%class.AA* noundef nonnull align 8 dereferenceable(16) %this) unnamed_addr #4 comdat align 2 !dbg !725 {	 ;;; filename : "./MicroBenchmark/virtual_v1_nv0/virtual_v1_nv0_30_2.cpp", line : 26, 
entry:	 ;;;;; filename : "./MicroBenchmark/virtual_v1_nv0/virtual_v1_nv0_30_2.cpp", line : 26, 
  call void @llvm.dbg.value(metadata %class.AA* %this, metadata !726, metadata !DIExpression()), !dbg !727	 ;;;;; filename : "./MicroBenchmark/virtual_v1_nv0/virtual_v1_nv0_30_2.cpp", line : 26, 
  ret void, !dbg !728	 ;;; line : 26, column : 35, filename : "./MicroBenchmark/virtual_v1_nv0/virtual_v1_nv0_30_2.cpp", 
}	 ;;;;; line : 26, column : 35, filename : "./MicroBenchmark/virtual_v1_nv0/virtual_v1_nv0_30_2.cpp", 

; Function Attrs: mustprogress noinline nounwind uwtable
define linkonce_odr dso_local void @_ZN2AA13kk_v_00000021Ev(%class.AA* noundef nonnull align 8 dereferenceable(16) %this) unnamed_addr #4 comdat align 2 !dbg !729 {	 ;;; filename : "./MicroBenchmark/virtual_v1_nv0/virtual_v1_nv0_30_2.cpp", line : 27, 
entry:	 ;;;;; filename : "./MicroBenchmark/virtual_v1_nv0/virtual_v1_nv0_30_2.cpp", line : 27, 
  call void @llvm.dbg.value(metadata %class.AA* %this, metadata !730, metadata !DIExpression()), !dbg !731	 ;;;;; filename : "./MicroBenchmark/virtual_v1_nv0/virtual_v1_nv0_30_2.cpp", line : 27, 
  ret void, !dbg !732	 ;;; line : 27, column : 35, filename : "./MicroBenchmark/virtual_v1_nv0/virtual_v1_nv0_30_2.cpp", 
}	 ;;;;; line : 27, column : 35, filename : "./MicroBenchmark/virtual_v1_nv0/virtual_v1_nv0_30_2.cpp", 

; Function Attrs: mustprogress noinline nounwind uwtable
define linkonce_odr dso_local void @_ZN2AA13kk_v_00000022Ev(%class.AA* noundef nonnull align 8 dereferenceable(16) %this) unnamed_addr #4 comdat align 2 !dbg !733 {	 ;;; filename : "./MicroBenchmark/virtual_v1_nv0/virtual_v1_nv0_30_2.cpp", line : 28, 
entry:	 ;;;;; filename : "./MicroBenchmark/virtual_v1_nv0/virtual_v1_nv0_30_2.cpp", line : 28, 
  call void @llvm.dbg.value(metadata %class.AA* %this, metadata !734, metadata !DIExpression()), !dbg !735	 ;;;;; filename : "./MicroBenchmark/virtual_v1_nv0/virtual_v1_nv0_30_2.cpp", line : 28, 
  ret void, !dbg !736	 ;;; line : 28, column : 35, filename : "./MicroBenchmark/virtual_v1_nv0/virtual_v1_nv0_30_2.cpp", 
}	 ;;;;; line : 28, column : 35, filename : "./MicroBenchmark/virtual_v1_nv0/virtual_v1_nv0_30_2.cpp", 

; Function Attrs: mustprogress noinline nounwind uwtable
define linkonce_odr dso_local void @_ZN2AA13kk_v_00000023Ev(%class.AA* noundef nonnull align 8 dereferenceable(16) %this) unnamed_addr #4 comdat align 2 !dbg !737 {	 ;;; filename : "./MicroBenchmark/virtual_v1_nv0/virtual_v1_nv0_30_2.cpp", line : 29, 
entry:	 ;;;;; filename : "./MicroBenchmark/virtual_v1_nv0/virtual_v1_nv0_30_2.cpp", line : 29, 
  call void @llvm.dbg.value(metadata %class.AA* %this, metadata !738, metadata !DIExpression()), !dbg !739	 ;;;;; filename : "./MicroBenchmark/virtual_v1_nv0/virtual_v1_nv0_30_2.cpp", line : 29, 
  ret void, !dbg !740	 ;;; line : 29, column : 35, filename : "./MicroBenchmark/virtual_v1_nv0/virtual_v1_nv0_30_2.cpp", 
}	 ;;;;; line : 29, column : 35, filename : "./MicroBenchmark/virtual_v1_nv0/virtual_v1_nv0_30_2.cpp", 

; Function Attrs: mustprogress noinline nounwind uwtable
define linkonce_odr dso_local void @_ZN2AA13kk_v_00000024Ev(%class.AA* noundef nonnull align 8 dereferenceable(16) %this) unnamed_addr #4 comdat align 2 !dbg !741 {	 ;;; filename : "./MicroBenchmark/virtual_v1_nv0/virtual_v1_nv0_30_2.cpp", line : 30, 
entry:	 ;;;;; filename : "./MicroBenchmark/virtual_v1_nv0/virtual_v1_nv0_30_2.cpp", line : 30, 
  call void @llvm.dbg.value(metadata %class.AA* %this, metadata !742, metadata !DIExpression()), !dbg !743	 ;;;;; filename : "./MicroBenchmark/virtual_v1_nv0/virtual_v1_nv0_30_2.cpp", line : 30, 
  ret void, !dbg !744	 ;;; line : 30, column : 35, filename : "./MicroBenchmark/virtual_v1_nv0/virtual_v1_nv0_30_2.cpp", 
}	 ;;;;; line : 30, column : 35, filename : "./MicroBenchmark/virtual_v1_nv0/virtual_v1_nv0_30_2.cpp", 

; Function Attrs: mustprogress noinline nounwind uwtable
define linkonce_odr dso_local void @_ZN2AA13kk_v_00000025Ev(%class.AA* noundef nonnull align 8 dereferenceable(16) %this) unnamed_addr #4 comdat align 2 !dbg !745 {	 ;;; filename : "./MicroBenchmark/virtual_v1_nv0/virtual_v1_nv0_30_2.cpp", line : 31, 
entry:	 ;;;;; filename : "./MicroBenchmark/virtual_v1_nv0/virtual_v1_nv0_30_2.cpp", line : 31, 
  call void @llvm.dbg.value(metadata %class.AA* %this, metadata !746, metadata !DIExpression()), !dbg !747	 ;;;;; filename : "./MicroBenchmark/virtual_v1_nv0/virtual_v1_nv0_30_2.cpp", line : 31, 
  ret void, !dbg !748	 ;;; line : 31, column : 35, filename : "./MicroBenchmark/virtual_v1_nv0/virtual_v1_nv0_30_2.cpp", 
}	 ;;;;; line : 31, column : 35, filename : "./MicroBenchmark/virtual_v1_nv0/virtual_v1_nv0_30_2.cpp", 

; Function Attrs: mustprogress noinline nounwind uwtable
define linkonce_odr dso_local void @_ZN2AA13kk_v_00000026Ev(%class.AA* noundef nonnull align 8 dereferenceable(16) %this) unnamed_addr #4 comdat align 2 !dbg !749 {	 ;;; filename : "./MicroBenchmark/virtual_v1_nv0/virtual_v1_nv0_30_2.cpp", line : 32, 
entry:	 ;;;;; filename : "./MicroBenchmark/virtual_v1_nv0/virtual_v1_nv0_30_2.cpp", line : 32, 
  call void @llvm.dbg.value(metadata %class.AA* %this, metadata !750, metadata !DIExpression()), !dbg !751	 ;;;;; filename : "./MicroBenchmark/virtual_v1_nv0/virtual_v1_nv0_30_2.cpp", line : 32, 
  ret void, !dbg !752	 ;;; line : 32, column : 35, filename : "./MicroBenchmark/virtual_v1_nv0/virtual_v1_nv0_30_2.cpp", 
}	 ;;;;; line : 32, column : 35, filename : "./MicroBenchmark/virtual_v1_nv0/virtual_v1_nv0_30_2.cpp", 

; Function Attrs: mustprogress noinline nounwind uwtable
define linkonce_odr dso_local void @_ZN2AA13kk_v_00000027Ev(%class.AA* noundef nonnull align 8 dereferenceable(16) %this) unnamed_addr #4 comdat align 2 !dbg !753 {	 ;;; filename : "./MicroBenchmark/virtual_v1_nv0/virtual_v1_nv0_30_2.cpp", line : 33, 
entry:	 ;;;;; filename : "./MicroBenchmark/virtual_v1_nv0/virtual_v1_nv0_30_2.cpp", line : 33, 
  call void @llvm.dbg.value(metadata %class.AA* %this, metadata !754, metadata !DIExpression()), !dbg !755	 ;;;;; filename : "./MicroBenchmark/virtual_v1_nv0/virtual_v1_nv0_30_2.cpp", line : 33, 
  ret void, !dbg !756	 ;;; line : 33, column : 35, filename : "./MicroBenchmark/virtual_v1_nv0/virtual_v1_nv0_30_2.cpp", 
}	 ;;;;; line : 33, column : 35, filename : "./MicroBenchmark/virtual_v1_nv0/virtual_v1_nv0_30_2.cpp", 

; Function Attrs: mustprogress noinline nounwind uwtable
define linkonce_odr dso_local void @_ZN2AA13kk_v_00000028Ev(%class.AA* noundef nonnull align 8 dereferenceable(16) %this) unnamed_addr #4 comdat align 2 !dbg !757 {	 ;;; filename : "./MicroBenchmark/virtual_v1_nv0/virtual_v1_nv0_30_2.cpp", line : 34, 
entry:	 ;;;;; filename : "./MicroBenchmark/virtual_v1_nv0/virtual_v1_nv0_30_2.cpp", line : 34, 
  call void @llvm.dbg.value(metadata %class.AA* %this, metadata !758, metadata !DIExpression()), !dbg !759	 ;;;;; filename : "./MicroBenchmark/virtual_v1_nv0/virtual_v1_nv0_30_2.cpp", line : 34, 
  ret void, !dbg !760	 ;;; line : 34, column : 35, filename : "./MicroBenchmark/virtual_v1_nv0/virtual_v1_nv0_30_2.cpp", 
}	 ;;;;; line : 34, column : 35, filename : "./MicroBenchmark/virtual_v1_nv0/virtual_v1_nv0_30_2.cpp", 

; Function Attrs: mustprogress noinline nounwind uwtable
define linkonce_odr dso_local void @_ZN2AA13kk_v_00000029Ev(%class.AA* noundef nonnull align 8 dereferenceable(16) %this) unnamed_addr #4 comdat align 2 !dbg !761 {	 ;;; filename : "./MicroBenchmark/virtual_v1_nv0/virtual_v1_nv0_30_2.cpp", line : 35, 
entry:	 ;;;;; filename : "./MicroBenchmark/virtual_v1_nv0/virtual_v1_nv0_30_2.cpp", line : 35, 
  call void @llvm.dbg.value(metadata %class.AA* %this, metadata !762, metadata !DIExpression()), !dbg !763	 ;;;;; filename : "./MicroBenchmark/virtual_v1_nv0/virtual_v1_nv0_30_2.cpp", line : 35, 
  ret void, !dbg !764	 ;;; line : 35, column : 35, filename : "./MicroBenchmark/virtual_v1_nv0/virtual_v1_nv0_30_2.cpp", 
}	 ;;;;; line : 35, column : 35, filename : "./MicroBenchmark/virtual_v1_nv0/virtual_v1_nv0_30_2.cpp", 

; Function Attrs: mustprogress noinline nounwind uwtable
define linkonce_odr dso_local void @_ZN2CC13hh_v_00000000Ev(%class.CC* noundef nonnull align 8 dereferenceable(16) %this) unnamed_addr #4 comdat align 2 !dbg !765 {	 ;;; filename : "./MicroBenchmark/virtual_v1_nv0/virtual_v1_nv0_30_2.cpp", line : 80, 
entry:	 ;;;;; filename : "./MicroBenchmark/virtual_v1_nv0/virtual_v1_nv0_30_2.cpp", line : 80, 
  call void @llvm.dbg.value(metadata %class.CC* %this, metadata !766, metadata !DIExpression()), !dbg !767	 ;;;;; filename : "./MicroBenchmark/virtual_v1_nv0/virtual_v1_nv0_30_2.cpp", line : 80, 
  ret void, !dbg !768	 ;;; line : 80, column : 35, filename : "./MicroBenchmark/virtual_v1_nv0/virtual_v1_nv0_30_2.cpp", 
}	 ;;;;; line : 80, column : 35, filename : "./MicroBenchmark/virtual_v1_nv0/virtual_v1_nv0_30_2.cpp", 

; Function Attrs: mustprogress noinline nounwind uwtable
define linkonce_odr dso_local void @_ZN2CC13hh_v_00000001Ev(%class.CC* noundef nonnull align 8 dereferenceable(16) %this) unnamed_addr #4 comdat align 2 !dbg !769 {	 ;;; filename : "./MicroBenchmark/virtual_v1_nv0/virtual_v1_nv0_30_2.cpp", line : 81, 
entry:	 ;;;;; filename : "./MicroBenchmark/virtual_v1_nv0/virtual_v1_nv0_30_2.cpp", line : 81, 
  call void @llvm.dbg.value(metadata %class.CC* %this, metadata !770, metadata !DIExpression()), !dbg !771	 ;;;;; filename : "./MicroBenchmark/virtual_v1_nv0/virtual_v1_nv0_30_2.cpp", line : 81, 
  ret void, !dbg !772	 ;;; line : 81, column : 35, filename : "./MicroBenchmark/virtual_v1_nv0/virtual_v1_nv0_30_2.cpp", 
}	 ;;;;; line : 81, column : 35, filename : "./MicroBenchmark/virtual_v1_nv0/virtual_v1_nv0_30_2.cpp", 

; Function Attrs: mustprogress noinline nounwind uwtable
define linkonce_odr dso_local void @_ZN2CC13hh_v_00000002Ev(%class.CC* noundef nonnull align 8 dereferenceable(16) %this) unnamed_addr #4 comdat align 2 !dbg !773 {	 ;;; filename : "./MicroBenchmark/virtual_v1_nv0/virtual_v1_nv0_30_2.cpp", line : 82, 
entry:	 ;;;;; filename : "./MicroBenchmark/virtual_v1_nv0/virtual_v1_nv0_30_2.cpp", line : 82, 
  call void @llvm.dbg.value(metadata %class.CC* %this, metadata !774, metadata !DIExpression()), !dbg !775	 ;;;;; filename : "./MicroBenchmark/virtual_v1_nv0/virtual_v1_nv0_30_2.cpp", line : 82, 
  ret void, !dbg !776	 ;;; line : 82, column : 35, filename : "./MicroBenchmark/virtual_v1_nv0/virtual_v1_nv0_30_2.cpp", 
}	 ;;;;; line : 82, column : 35, filename : "./MicroBenchmark/virtual_v1_nv0/virtual_v1_nv0_30_2.cpp", 

; Function Attrs: mustprogress noinline nounwind uwtable
define linkonce_odr dso_local void @_ZN2CC13hh_v_00000003Ev(%class.CC* noundef nonnull align 8 dereferenceable(16) %this) unnamed_addr #4 comdat align 2 !dbg !777 {	 ;;; filename : "./MicroBenchmark/virtual_v1_nv0/virtual_v1_nv0_30_2.cpp", line : 83, 
entry:	 ;;;;; filename : "./MicroBenchmark/virtual_v1_nv0/virtual_v1_nv0_30_2.cpp", line : 83, 
  call void @llvm.dbg.value(metadata %class.CC* %this, metadata !778, metadata !DIExpression()), !dbg !779	 ;;;;; filename : "./MicroBenchmark/virtual_v1_nv0/virtual_v1_nv0_30_2.cpp", line : 83, 
  ret void, !dbg !780	 ;;; line : 83, column : 35, filename : "./MicroBenchmark/virtual_v1_nv0/virtual_v1_nv0_30_2.cpp", 
}	 ;;;;; line : 83, column : 35, filename : "./MicroBenchmark/virtual_v1_nv0/virtual_v1_nv0_30_2.cpp", 

; Function Attrs: mustprogress noinline nounwind uwtable
define linkonce_odr dso_local void @_ZN2CC13hh_v_00000004Ev(%class.CC* noundef nonnull align 8 dereferenceable(16) %this) unnamed_addr #4 comdat align 2 !dbg !781 {	 ;;; filename : "./MicroBenchmark/virtual_v1_nv0/virtual_v1_nv0_30_2.cpp", line : 84, 
entry:	 ;;;;; filename : "./MicroBenchmark/virtual_v1_nv0/virtual_v1_nv0_30_2.cpp", line : 84, 
  call void @llvm.dbg.value(metadata %class.CC* %this, metadata !782, metadata !DIExpression()), !dbg !783	 ;;;;; filename : "./MicroBenchmark/virtual_v1_nv0/virtual_v1_nv0_30_2.cpp", line : 84, 
  ret void, !dbg !784	 ;;; line : 84, column : 35, filename : "./MicroBenchmark/virtual_v1_nv0/virtual_v1_nv0_30_2.cpp", 
}	 ;;;;; line : 84, column : 35, filename : "./MicroBenchmark/virtual_v1_nv0/virtual_v1_nv0_30_2.cpp", 

; Function Attrs: mustprogress noinline nounwind uwtable
define linkonce_odr dso_local void @_ZN2CC13hh_v_00000005Ev(%class.CC* noundef nonnull align 8 dereferenceable(16) %this) unnamed_addr #4 comdat align 2 !dbg !785 {	 ;;; filename : "./MicroBenchmark/virtual_v1_nv0/virtual_v1_nv0_30_2.cpp", line : 85, 
entry:	 ;;;;; filename : "./MicroBenchmark/virtual_v1_nv0/virtual_v1_nv0_30_2.cpp", line : 85, 
  call void @llvm.dbg.value(metadata %class.CC* %this, metadata !786, metadata !DIExpression()), !dbg !787	 ;;;;; filename : "./MicroBenchmark/virtual_v1_nv0/virtual_v1_nv0_30_2.cpp", line : 85, 
  ret void, !dbg !788	 ;;; line : 85, column : 35, filename : "./MicroBenchmark/virtual_v1_nv0/virtual_v1_nv0_30_2.cpp", 
}	 ;;;;; line : 85, column : 35, filename : "./MicroBenchmark/virtual_v1_nv0/virtual_v1_nv0_30_2.cpp", 

; Function Attrs: mustprogress noinline nounwind uwtable
define linkonce_odr dso_local void @_ZN2CC13hh_v_00000006Ev(%class.CC* noundef nonnull align 8 dereferenceable(16) %this) unnamed_addr #4 comdat align 2 !dbg !789 {	 ;;; filename : "./MicroBenchmark/virtual_v1_nv0/virtual_v1_nv0_30_2.cpp", line : 86, 
entry:	 ;;;;; filename : "./MicroBenchmark/virtual_v1_nv0/virtual_v1_nv0_30_2.cpp", line : 86, 
  call void @llvm.dbg.value(metadata %class.CC* %this, metadata !790, metadata !DIExpression()), !dbg !791	 ;;;;; filename : "./MicroBenchmark/virtual_v1_nv0/virtual_v1_nv0_30_2.cpp", line : 86, 
  ret void, !dbg !792	 ;;; line : 86, column : 35, filename : "./MicroBenchmark/virtual_v1_nv0/virtual_v1_nv0_30_2.cpp", 
}	 ;;;;; line : 86, column : 35, filename : "./MicroBenchmark/virtual_v1_nv0/virtual_v1_nv0_30_2.cpp", 

; Function Attrs: mustprogress noinline nounwind uwtable
define linkonce_odr dso_local void @_ZN2CC13hh_v_00000007Ev(%class.CC* noundef nonnull align 8 dereferenceable(16) %this) unnamed_addr #4 comdat align 2 !dbg !793 {	 ;;; filename : "./MicroBenchmark/virtual_v1_nv0/virtual_v1_nv0_30_2.cpp", line : 87, 
entry:	 ;;;;; filename : "./MicroBenchmark/virtual_v1_nv0/virtual_v1_nv0_30_2.cpp", line : 87, 
  call void @llvm.dbg.value(metadata %class.CC* %this, metadata !794, metadata !DIExpression()), !dbg !795	 ;;;;; filename : "./MicroBenchmark/virtual_v1_nv0/virtual_v1_nv0_30_2.cpp", line : 87, 
  ret void, !dbg !796	 ;;; line : 87, column : 35, filename : "./MicroBenchmark/virtual_v1_nv0/virtual_v1_nv0_30_2.cpp", 
}	 ;;;;; line : 87, column : 35, filename : "./MicroBenchmark/virtual_v1_nv0/virtual_v1_nv0_30_2.cpp", 

; Function Attrs: mustprogress noinline nounwind uwtable
define linkonce_odr dso_local void @_ZN2CC13hh_v_00000008Ev(%class.CC* noundef nonnull align 8 dereferenceable(16) %this) unnamed_addr #4 comdat align 2 !dbg !797 {	 ;;; filename : "./MicroBenchmark/virtual_v1_nv0/virtual_v1_nv0_30_2.cpp", line : 88, 
entry:	 ;;;;; filename : "./MicroBenchmark/virtual_v1_nv0/virtual_v1_nv0_30_2.cpp", line : 88, 
  call void @llvm.dbg.value(metadata %class.CC* %this, metadata !798, metadata !DIExpression()), !dbg !799	 ;;;;; filename : "./MicroBenchmark/virtual_v1_nv0/virtual_v1_nv0_30_2.cpp", line : 88, 
  ret void, !dbg !800	 ;;; line : 88, column : 35, filename : "./MicroBenchmark/virtual_v1_nv0/virtual_v1_nv0_30_2.cpp", 
}	 ;;;;; line : 88, column : 35, filename : "./MicroBenchmark/virtual_v1_nv0/virtual_v1_nv0_30_2.cpp", 

; Function Attrs: mustprogress noinline nounwind uwtable
define linkonce_odr dso_local void @_ZN2CC13hh_v_00000009Ev(%class.CC* noundef nonnull align 8 dereferenceable(16) %this) unnamed_addr #4 comdat align 2 !dbg !801 {	 ;;; filename : "./MicroBenchmark/virtual_v1_nv0/virtual_v1_nv0_30_2.cpp", line : 89, 
entry:	 ;;;;; filename : "./MicroBenchmark/virtual_v1_nv0/virtual_v1_nv0_30_2.cpp", line : 89, 
  call void @llvm.dbg.value(metadata %class.CC* %this, metadata !802, metadata !DIExpression()), !dbg !803	 ;;;;; filename : "./MicroBenchmark/virtual_v1_nv0/virtual_v1_nv0_30_2.cpp", line : 89, 
  ret void, !dbg !804	 ;;; line : 89, column : 35, filename : "./MicroBenchmark/virtual_v1_nv0/virtual_v1_nv0_30_2.cpp", 
}	 ;;;;; line : 89, column : 35, filename : "./MicroBenchmark/virtual_v1_nv0/virtual_v1_nv0_30_2.cpp", 

; Function Attrs: mustprogress noinline nounwind uwtable
define linkonce_odr dso_local void @_ZN2CC13hh_v_00000010Ev(%class.CC* noundef nonnull align 8 dereferenceable(16) %this) unnamed_addr #4 comdat align 2 !dbg !805 {	 ;;; filename : "./MicroBenchmark/virtual_v1_nv0/virtual_v1_nv0_30_2.cpp", line : 90, 
entry:	 ;;;;; filename : "./MicroBenchmark/virtual_v1_nv0/virtual_v1_nv0_30_2.cpp", line : 90, 
  call void @llvm.dbg.value(metadata %class.CC* %this, metadata !806, metadata !DIExpression()), !dbg !807	 ;;;;; filename : "./MicroBenchmark/virtual_v1_nv0/virtual_v1_nv0_30_2.cpp", line : 90, 
  ret void, !dbg !808	 ;;; line : 90, column : 35, filename : "./MicroBenchmark/virtual_v1_nv0/virtual_v1_nv0_30_2.cpp", 
}	 ;;;;; line : 90, column : 35, filename : "./MicroBenchmark/virtual_v1_nv0/virtual_v1_nv0_30_2.cpp", 

; Function Attrs: mustprogress noinline nounwind uwtable
define linkonce_odr dso_local void @_ZN2AA13kk_v_00000000Ev(%class.AA* noundef nonnull align 8 dereferenceable(16) %this) unnamed_addr #4 comdat align 2 !dbg !809 {	 ;;; filename : "./MicroBenchmark/virtual_v1_nv0/virtual_v1_nv0_30_2.cpp", line : 6, 
entry:	 ;;;;; filename : "./MicroBenchmark/virtual_v1_nv0/virtual_v1_nv0_30_2.cpp", line : 6, 
  call void @llvm.dbg.value(metadata %class.AA* %this, metadata !810, metadata !DIExpression()), !dbg !811	 ;;;;; filename : "./MicroBenchmark/virtual_v1_nv0/virtual_v1_nv0_30_2.cpp", line : 6, 
  ret void, !dbg !812	 ;;; line : 6, column : 35, filename : "./MicroBenchmark/virtual_v1_nv0/virtual_v1_nv0_30_2.cpp", 
}	 ;;;;; line : 6, column : 35, filename : "./MicroBenchmark/virtual_v1_nv0/virtual_v1_nv0_30_2.cpp", 

; Function Attrs: mustprogress noinline nounwind uwtable
define linkonce_odr dso_local void @_ZN2AA13kk_v_00000001Ev(%class.AA* noundef nonnull align 8 dereferenceable(16) %this) unnamed_addr #4 comdat align 2 !dbg !813 {	 ;;; filename : "./MicroBenchmark/virtual_v1_nv0/virtual_v1_nv0_30_2.cpp", line : 7, 
entry:	 ;;;;; filename : "./MicroBenchmark/virtual_v1_nv0/virtual_v1_nv0_30_2.cpp", line : 7, 
  call void @llvm.dbg.value(metadata %class.AA* %this, metadata !814, metadata !DIExpression()), !dbg !815	 ;;;;; filename : "./MicroBenchmark/virtual_v1_nv0/virtual_v1_nv0_30_2.cpp", line : 7, 
  ret void, !dbg !816	 ;;; line : 7, column : 35, filename : "./MicroBenchmark/virtual_v1_nv0/virtual_v1_nv0_30_2.cpp", 
}	 ;;;;; line : 7, column : 35, filename : "./MicroBenchmark/virtual_v1_nv0/virtual_v1_nv0_30_2.cpp", 

; Function Attrs: mustprogress noinline nounwind uwtable
define linkonce_odr dso_local void @_ZN2AA13kk_v_00000002Ev(%class.AA* noundef nonnull align 8 dereferenceable(16) %this) unnamed_addr #4 comdat align 2 !dbg !817 {	 ;;; filename : "./MicroBenchmark/virtual_v1_nv0/virtual_v1_nv0_30_2.cpp", line : 8, 
entry:	 ;;;;; filename : "./MicroBenchmark/virtual_v1_nv0/virtual_v1_nv0_30_2.cpp", line : 8, 
  call void @llvm.dbg.value(metadata %class.AA* %this, metadata !818, metadata !DIExpression()), !dbg !819	 ;;;;; filename : "./MicroBenchmark/virtual_v1_nv0/virtual_v1_nv0_30_2.cpp", line : 8, 
  ret void, !dbg !820	 ;;; line : 8, column : 35, filename : "./MicroBenchmark/virtual_v1_nv0/virtual_v1_nv0_30_2.cpp", 
}	 ;;;;; line : 8, column : 35, filename : "./MicroBenchmark/virtual_v1_nv0/virtual_v1_nv0_30_2.cpp", 

; Function Attrs: mustprogress noinline nounwind uwtable
define linkonce_odr dso_local void @_ZN2AA13kk_v_00000003Ev(%class.AA* noundef nonnull align 8 dereferenceable(16) %this) unnamed_addr #4 comdat align 2 !dbg !821 {	 ;;; filename : "./MicroBenchmark/virtual_v1_nv0/virtual_v1_nv0_30_2.cpp", line : 9, 
entry:	 ;;;;; filename : "./MicroBenchmark/virtual_v1_nv0/virtual_v1_nv0_30_2.cpp", line : 9, 
  call void @llvm.dbg.value(metadata %class.AA* %this, metadata !822, metadata !DIExpression()), !dbg !823	 ;;;;; filename : "./MicroBenchmark/virtual_v1_nv0/virtual_v1_nv0_30_2.cpp", line : 9, 
  ret void, !dbg !824	 ;;; line : 9, column : 35, filename : "./MicroBenchmark/virtual_v1_nv0/virtual_v1_nv0_30_2.cpp", 
}	 ;;;;; line : 9, column : 35, filename : "./MicroBenchmark/virtual_v1_nv0/virtual_v1_nv0_30_2.cpp", 

; Function Attrs: mustprogress noinline nounwind uwtable
define linkonce_odr dso_local void @_ZN2AA13kk_v_00000004Ev(%class.AA* noundef nonnull align 8 dereferenceable(16) %this) unnamed_addr #4 comdat align 2 !dbg !825 {	 ;;; filename : "./MicroBenchmark/virtual_v1_nv0/virtual_v1_nv0_30_2.cpp", line : 10, 
entry:	 ;;;;; filename : "./MicroBenchmark/virtual_v1_nv0/virtual_v1_nv0_30_2.cpp", line : 10, 
  call void @llvm.dbg.value(metadata %class.AA* %this, metadata !826, metadata !DIExpression()), !dbg !827	 ;;;;; filename : "./MicroBenchmark/virtual_v1_nv0/virtual_v1_nv0_30_2.cpp", line : 10, 
  ret void, !dbg !828	 ;;; line : 10, column : 35, filename : "./MicroBenchmark/virtual_v1_nv0/virtual_v1_nv0_30_2.cpp", 
}	 ;;;;; line : 10, column : 35, filename : "./MicroBenchmark/virtual_v1_nv0/virtual_v1_nv0_30_2.cpp", 

; Function Attrs: mustprogress noinline nounwind uwtable
define linkonce_odr dso_local void @_ZN2AA13kk_v_00000005Ev(%class.AA* noundef nonnull align 8 dereferenceable(16) %this) unnamed_addr #4 comdat align 2 !dbg !829 {	 ;;; filename : "./MicroBenchmark/virtual_v1_nv0/virtual_v1_nv0_30_2.cpp", line : 11, 
entry:	 ;;;;; filename : "./MicroBenchmark/virtual_v1_nv0/virtual_v1_nv0_30_2.cpp", line : 11, 
  call void @llvm.dbg.value(metadata %class.AA* %this, metadata !830, metadata !DIExpression()), !dbg !831	 ;;;;; filename : "./MicroBenchmark/virtual_v1_nv0/virtual_v1_nv0_30_2.cpp", line : 11, 
  ret void, !dbg !832	 ;;; line : 11, column : 35, filename : "./MicroBenchmark/virtual_v1_nv0/virtual_v1_nv0_30_2.cpp", 
}	 ;;;;; line : 11, column : 35, filename : "./MicroBenchmark/virtual_v1_nv0/virtual_v1_nv0_30_2.cpp", 

; Function Attrs: mustprogress noinline nounwind uwtable
define linkonce_odr dso_local void @_ZN2BB13gg_v_00000000Ev(%class.BB* noundef nonnull align 8 dereferenceable(16) %this) unnamed_addr #4 comdat align 2 !dbg !833 {	 ;;; filename : "./MicroBenchmark/virtual_v1_nv0/virtual_v1_nv0_30_2.cpp", line : 43, 
entry:	 ;;;;; filename : "./MicroBenchmark/virtual_v1_nv0/virtual_v1_nv0_30_2.cpp", line : 43, 
  call void @llvm.dbg.value(metadata %class.BB* %this, metadata !834, metadata !DIExpression()), !dbg !835	 ;;;;; filename : "./MicroBenchmark/virtual_v1_nv0/virtual_v1_nv0_30_2.cpp", line : 43, 
  ret void, !dbg !836	 ;;; line : 43, column : 35, filename : "./MicroBenchmark/virtual_v1_nv0/virtual_v1_nv0_30_2.cpp", 
}	 ;;;;; line : 43, column : 35, filename : "./MicroBenchmark/virtual_v1_nv0/virtual_v1_nv0_30_2.cpp", 

; Function Attrs: mustprogress noinline nounwind uwtable
define linkonce_odr dso_local void @_ZN2BB13gg_v_00000001Ev(%class.BB* noundef nonnull align 8 dereferenceable(16) %this) unnamed_addr #4 comdat align 2 !dbg !837 {	 ;;; filename : "./MicroBenchmark/virtual_v1_nv0/virtual_v1_nv0_30_2.cpp", line : 44, 
entry:	 ;;;;; filename : "./MicroBenchmark/virtual_v1_nv0/virtual_v1_nv0_30_2.cpp", line : 44, 
  call void @llvm.dbg.value(metadata %class.BB* %this, metadata !838, metadata !DIExpression()), !dbg !839	 ;;;;; filename : "./MicroBenchmark/virtual_v1_nv0/virtual_v1_nv0_30_2.cpp", line : 44, 
  ret void, !dbg !840	 ;;; line : 44, column : 35, filename : "./MicroBenchmark/virtual_v1_nv0/virtual_v1_nv0_30_2.cpp", 
}	 ;;;;; line : 44, column : 35, filename : "./MicroBenchmark/virtual_v1_nv0/virtual_v1_nv0_30_2.cpp", 

; Function Attrs: mustprogress noinline nounwind uwtable
define linkonce_odr dso_local void @_ZN2BB13gg_v_00000002Ev(%class.BB* noundef nonnull align 8 dereferenceable(16) %this) unnamed_addr #4 comdat align 2 !dbg !841 {	 ;;; filename : "./MicroBenchmark/virtual_v1_nv0/virtual_v1_nv0_30_2.cpp", line : 45, 
entry:	 ;;;;; filename : "./MicroBenchmark/virtual_v1_nv0/virtual_v1_nv0_30_2.cpp", line : 45, 
  call void @llvm.dbg.value(metadata %class.BB* %this, metadata !842, metadata !DIExpression()), !dbg !843	 ;;;;; filename : "./MicroBenchmark/virtual_v1_nv0/virtual_v1_nv0_30_2.cpp", line : 45, 
  ret void, !dbg !844	 ;;; line : 45, column : 35, filename : "./MicroBenchmark/virtual_v1_nv0/virtual_v1_nv0_30_2.cpp", 
}	 ;;;;; line : 45, column : 35, filename : "./MicroBenchmark/virtual_v1_nv0/virtual_v1_nv0_30_2.cpp", 

; Function Attrs: mustprogress noinline nounwind uwtable
define linkonce_odr dso_local void @_ZN2BB13gg_v_00000003Ev(%class.BB* noundef nonnull align 8 dereferenceable(16) %this) unnamed_addr #4 comdat align 2 !dbg !845 {	 ;;; filename : "./MicroBenchmark/virtual_v1_nv0/virtual_v1_nv0_30_2.cpp", line : 46, 
entry:	 ;;;;; filename : "./MicroBenchmark/virtual_v1_nv0/virtual_v1_nv0_30_2.cpp", line : 46, 
  call void @llvm.dbg.value(metadata %class.BB* %this, metadata !846, metadata !DIExpression()), !dbg !847	 ;;;;; filename : "./MicroBenchmark/virtual_v1_nv0/virtual_v1_nv0_30_2.cpp", line : 46, 
  ret void, !dbg !848	 ;;; line : 46, column : 35, filename : "./MicroBenchmark/virtual_v1_nv0/virtual_v1_nv0_30_2.cpp", 
}	 ;;;;; line : 46, column : 35, filename : "./MicroBenchmark/virtual_v1_nv0/virtual_v1_nv0_30_2.cpp", 

; Function Attrs: mustprogress noinline nounwind uwtable
define linkonce_odr dso_local void @_ZN2BB13gg_v_00000004Ev(%class.BB* noundef nonnull align 8 dereferenceable(16) %this) unnamed_addr #4 comdat align 2 !dbg !849 {	 ;;; filename : "./MicroBenchmark/virtual_v1_nv0/virtual_v1_nv0_30_2.cpp", line : 47, 
entry:	 ;;;;; filename : "./MicroBenchmark/virtual_v1_nv0/virtual_v1_nv0_30_2.cpp", line : 47, 
  call void @llvm.dbg.value(metadata %class.BB* %this, metadata !850, metadata !DIExpression()), !dbg !851	 ;;;;; filename : "./MicroBenchmark/virtual_v1_nv0/virtual_v1_nv0_30_2.cpp", line : 47, 
  ret void, !dbg !852	 ;;; line : 47, column : 35, filename : "./MicroBenchmark/virtual_v1_nv0/virtual_v1_nv0_30_2.cpp", 
}	 ;;;;; line : 47, column : 35, filename : "./MicroBenchmark/virtual_v1_nv0/virtual_v1_nv0_30_2.cpp", 

; Function Attrs: mustprogress noinline nounwind uwtable
define linkonce_odr dso_local void @_ZN2BB13gg_v_00000005Ev(%class.BB* noundef nonnull align 8 dereferenceable(16) %this) unnamed_addr #4 comdat align 2 !dbg !853 {	 ;;; filename : "./MicroBenchmark/virtual_v1_nv0/virtual_v1_nv0_30_2.cpp", line : 48, 
entry:	 ;;;;; filename : "./MicroBenchmark/virtual_v1_nv0/virtual_v1_nv0_30_2.cpp", line : 48, 
  call void @llvm.dbg.value(metadata %class.BB* %this, metadata !854, metadata !DIExpression()), !dbg !855	 ;;;;; filename : "./MicroBenchmark/virtual_v1_nv0/virtual_v1_nv0_30_2.cpp", line : 48, 
  ret void, !dbg !856	 ;;; line : 48, column : 35, filename : "./MicroBenchmark/virtual_v1_nv0/virtual_v1_nv0_30_2.cpp", 
}	 ;;;;; line : 48, column : 35, filename : "./MicroBenchmark/virtual_v1_nv0/virtual_v1_nv0_30_2.cpp", 

; Function Attrs: mustprogress noinline nounwind uwtable
define linkonce_odr dso_local void @_ZN2BB13gg_v_00000006Ev(%class.BB* noundef nonnull align 8 dereferenceable(16) %this) unnamed_addr #4 comdat align 2 !dbg !857 {	 ;;; filename : "./MicroBenchmark/virtual_v1_nv0/virtual_v1_nv0_30_2.cpp", line : 49, 
entry:	 ;;;;; filename : "./MicroBenchmark/virtual_v1_nv0/virtual_v1_nv0_30_2.cpp", line : 49, 
  call void @llvm.dbg.value(metadata %class.BB* %this, metadata !858, metadata !DIExpression()), !dbg !859	 ;;;;; filename : "./MicroBenchmark/virtual_v1_nv0/virtual_v1_nv0_30_2.cpp", line : 49, 
  ret void, !dbg !860	 ;;; line : 49, column : 35, filename : "./MicroBenchmark/virtual_v1_nv0/virtual_v1_nv0_30_2.cpp", 
}	 ;;;;; line : 49, column : 35, filename : "./MicroBenchmark/virtual_v1_nv0/virtual_v1_nv0_30_2.cpp", 

; Function Attrs: mustprogress noinline nounwind uwtable
define linkonce_odr dso_local void @_ZN2BB13gg_v_00000007Ev(%class.BB* noundef nonnull align 8 dereferenceable(16) %this) unnamed_addr #4 comdat align 2 !dbg !861 {	 ;;; filename : "./MicroBenchmark/virtual_v1_nv0/virtual_v1_nv0_30_2.cpp", line : 50, 
entry:	 ;;;;; filename : "./MicroBenchmark/virtual_v1_nv0/virtual_v1_nv0_30_2.cpp", line : 50, 
  call void @llvm.dbg.value(metadata %class.BB* %this, metadata !862, metadata !DIExpression()), !dbg !863	 ;;;;; filename : "./MicroBenchmark/virtual_v1_nv0/virtual_v1_nv0_30_2.cpp", line : 50, 
  ret void, !dbg !864	 ;;; line : 50, column : 35, filename : "./MicroBenchmark/virtual_v1_nv0/virtual_v1_nv0_30_2.cpp", 
}	 ;;;;; line : 50, column : 35, filename : "./MicroBenchmark/virtual_v1_nv0/virtual_v1_nv0_30_2.cpp", 

; Function Attrs: mustprogress noinline nounwind uwtable
define linkonce_odr dso_local void @_ZN2BB13gg_v_00000008Ev(%class.BB* noundef nonnull align 8 dereferenceable(16) %this) unnamed_addr #4 comdat align 2 !dbg !865 {	 ;;; filename : "./MicroBenchmark/virtual_v1_nv0/virtual_v1_nv0_30_2.cpp", line : 51, 
entry:	 ;;;;; filename : "./MicroBenchmark/virtual_v1_nv0/virtual_v1_nv0_30_2.cpp", line : 51, 
  call void @llvm.dbg.value(metadata %class.BB* %this, metadata !866, metadata !DIExpression()), !dbg !867	 ;;;;; filename : "./MicroBenchmark/virtual_v1_nv0/virtual_v1_nv0_30_2.cpp", line : 51, 
  ret void, !dbg !868	 ;;; line : 51, column : 35, filename : "./MicroBenchmark/virtual_v1_nv0/virtual_v1_nv0_30_2.cpp", 
}	 ;;;;; line : 51, column : 35, filename : "./MicroBenchmark/virtual_v1_nv0/virtual_v1_nv0_30_2.cpp", 

; Function Attrs: mustprogress noinline nounwind uwtable
define linkonce_odr dso_local void @_ZN2BB13gg_v_00000009Ev(%class.BB* noundef nonnull align 8 dereferenceable(16) %this) unnamed_addr #4 comdat align 2 !dbg !869 {	 ;;; filename : "./MicroBenchmark/virtual_v1_nv0/virtual_v1_nv0_30_2.cpp", line : 52, 
entry:	 ;;;;; filename : "./MicroBenchmark/virtual_v1_nv0/virtual_v1_nv0_30_2.cpp", line : 52, 
  call void @llvm.dbg.value(metadata %class.BB* %this, metadata !870, metadata !DIExpression()), !dbg !871	 ;;;;; filename : "./MicroBenchmark/virtual_v1_nv0/virtual_v1_nv0_30_2.cpp", line : 52, 
  ret void, !dbg !872	 ;;; line : 52, column : 35, filename : "./MicroBenchmark/virtual_v1_nv0/virtual_v1_nv0_30_2.cpp", 
}	 ;;;;; line : 52, column : 35, filename : "./MicroBenchmark/virtual_v1_nv0/virtual_v1_nv0_30_2.cpp", 

; Function Attrs: mustprogress noinline nounwind uwtable
define linkonce_odr dso_local void @_ZN2BB13gg_v_00000010Ev(%class.BB* noundef nonnull align 8 dereferenceable(16) %this) unnamed_addr #4 comdat align 2 !dbg !873 {	 ;;; filename : "./MicroBenchmark/virtual_v1_nv0/virtual_v1_nv0_30_2.cpp", line : 53, 
entry:	 ;;;;; filename : "./MicroBenchmark/virtual_v1_nv0/virtual_v1_nv0_30_2.cpp", line : 53, 
  call void @llvm.dbg.value(metadata %class.BB* %this, metadata !874, metadata !DIExpression()), !dbg !875	 ;;;;; filename : "./MicroBenchmark/virtual_v1_nv0/virtual_v1_nv0_30_2.cpp", line : 53, 
  ret void, !dbg !876	 ;;; line : 53, column : 35, filename : "./MicroBenchmark/virtual_v1_nv0/virtual_v1_nv0_30_2.cpp", 
}	 ;;;;; line : 53, column : 35, filename : "./MicroBenchmark/virtual_v1_nv0/virtual_v1_nv0_30_2.cpp", 

; Function Attrs: mustprogress noinline nounwind uwtable
define linkonce_odr dso_local void @_ZN2BB13gg_v_00000011Ev(%class.BB* noundef nonnull align 8 dereferenceable(16) %this) unnamed_addr #4 comdat align 2 !dbg !877 {	 ;;; filename : "./MicroBenchmark/virtual_v1_nv0/virtual_v1_nv0_30_2.cpp", line : 54, 
entry:	 ;;;;; filename : "./MicroBenchmark/virtual_v1_nv0/virtual_v1_nv0_30_2.cpp", line : 54, 
  call void @llvm.dbg.value(metadata %class.BB* %this, metadata !878, metadata !DIExpression()), !dbg !879	 ;;;;; filename : "./MicroBenchmark/virtual_v1_nv0/virtual_v1_nv0_30_2.cpp", line : 54, 
  ret void, !dbg !880	 ;;; line : 54, column : 35, filename : "./MicroBenchmark/virtual_v1_nv0/virtual_v1_nv0_30_2.cpp", 
}	 ;;;;; line : 54, column : 35, filename : "./MicroBenchmark/virtual_v1_nv0/virtual_v1_nv0_30_2.cpp", 

; Function Attrs: mustprogress noinline nounwind uwtable
define linkonce_odr dso_local void @_ZN2BB13gg_v_00000012Ev(%class.BB* noundef nonnull align 8 dereferenceable(16) %this) unnamed_addr #4 comdat align 2 !dbg !881 {	 ;;; filename : "./MicroBenchmark/virtual_v1_nv0/virtual_v1_nv0_30_2.cpp", line : 55, 
entry:	 ;;;;; filename : "./MicroBenchmark/virtual_v1_nv0/virtual_v1_nv0_30_2.cpp", line : 55, 
  call void @llvm.dbg.value(metadata %class.BB* %this, metadata !882, metadata !DIExpression()), !dbg !883	 ;;;;; filename : "./MicroBenchmark/virtual_v1_nv0/virtual_v1_nv0_30_2.cpp", line : 55, 
  ret void, !dbg !884	 ;;; line : 55, column : 35, filename : "./MicroBenchmark/virtual_v1_nv0/virtual_v1_nv0_30_2.cpp", 
}	 ;;;;; line : 55, column : 35, filename : "./MicroBenchmark/virtual_v1_nv0/virtual_v1_nv0_30_2.cpp", 

; Function Attrs: mustprogress noinline nounwind uwtable
define linkonce_odr dso_local void @_ZN2BB13gg_v_00000013Ev(%class.BB* noundef nonnull align 8 dereferenceable(16) %this) unnamed_addr #4 comdat align 2 !dbg !885 {	 ;;; filename : "./MicroBenchmark/virtual_v1_nv0/virtual_v1_nv0_30_2.cpp", line : 56, 
entry:	 ;;;;; filename : "./MicroBenchmark/virtual_v1_nv0/virtual_v1_nv0_30_2.cpp", line : 56, 
  call void @llvm.dbg.value(metadata %class.BB* %this, metadata !886, metadata !DIExpression()), !dbg !887	 ;;;;; filename : "./MicroBenchmark/virtual_v1_nv0/virtual_v1_nv0_30_2.cpp", line : 56, 
  ret void, !dbg !888	 ;;; line : 56, column : 35, filename : "./MicroBenchmark/virtual_v1_nv0/virtual_v1_nv0_30_2.cpp", 
}	 ;;;;; line : 56, column : 35, filename : "./MicroBenchmark/virtual_v1_nv0/virtual_v1_nv0_30_2.cpp", 

; Function Attrs: mustprogress noinline nounwind uwtable
define linkonce_odr dso_local void @_ZN2BB13gg_v_00000014Ev(%class.BB* noundef nonnull align 8 dereferenceable(16) %this) unnamed_addr #4 comdat align 2 !dbg !889 {	 ;;; filename : "./MicroBenchmark/virtual_v1_nv0/virtual_v1_nv0_30_2.cpp", line : 57, 
entry:	 ;;;;; filename : "./MicroBenchmark/virtual_v1_nv0/virtual_v1_nv0_30_2.cpp", line : 57, 
  call void @llvm.dbg.value(metadata %class.BB* %this, metadata !890, metadata !DIExpression()), !dbg !891	 ;;;;; filename : "./MicroBenchmark/virtual_v1_nv0/virtual_v1_nv0_30_2.cpp", line : 57, 
  ret void, !dbg !892	 ;;; line : 57, column : 35, filename : "./MicroBenchmark/virtual_v1_nv0/virtual_v1_nv0_30_2.cpp", 
}	 ;;;;; line : 57, column : 35, filename : "./MicroBenchmark/virtual_v1_nv0/virtual_v1_nv0_30_2.cpp", 

; Function Attrs: nofree nosync nounwind readnone speculatable willreturn
declare void @llvm.dbg.value(metadata, metadata, metadata) #1	 ;;;;; line : 57, column : 35, filename : "./MicroBenchmark/virtual_v1_nv0/virtual_v1_nv0_30_2.cpp", 

attributes #0 = { mustprogress noinline uwtable "frame-pointer"="all" "min-legal-vector-width"="0" "no-builtins" "no-trapping-math"="true" "stack-protector-buffer-size"="8" "target-cpu"="x86-64" "target-features"="+cx8,+fxsr,+mmx,+sse,+sse2,+x87" "tune-cpu"="generic" }	 ;;;;; line : 57, column : 35, filename : "./MicroBenchmark/virtual_v1_nv0/virtual_v1_nv0_30_2.cpp", 
attributes #1 = { nofree nosync nounwind readnone speculatable willreturn }	 ;;;;; line : 57, column : 35, filename : "./MicroBenchmark/virtual_v1_nv0/virtual_v1_nv0_30_2.cpp", 
attributes #2 = { mustprogress noinline norecurse uwtable "frame-pointer"="all" "min-legal-vector-width"="0" "no-builtins" "no-trapping-math"="true" "stack-protector-buffer-size"="8" "target-cpu"="x86-64" "target-features"="+cx8,+fxsr,+mmx,+sse,+sse2,+x87" "tune-cpu"="generic" }	 ;;;;; line : 57, column : 35, filename : "./MicroBenchmark/virtual_v1_nv0/virtual_v1_nv0_30_2.cpp", 
attributes #3 = { noinline nounwind uwtable "frame-pointer"="all" "min-legal-vector-width"="0" "no-builtins" "no-trapping-math"="true" "stack-protector-buffer-size"="8" "target-cpu"="x86-64" "target-features"="+cx8,+fxsr,+mmx,+sse,+sse2,+x87" "tune-cpu"="generic" }	 ;;;;; line : 57, column : 35, filename : "./MicroBenchmark/virtual_v1_nv0/virtual_v1_nv0_30_2.cpp", 
attributes #4 = { mustprogress noinline nounwind uwtable "frame-pointer"="all" "min-legal-vector-width"="0" "no-builtins" "no-trapping-math"="true" "stack-protector-buffer-size"="8" "target-cpu"="x86-64" "target-features"="+cx8,+fxsr,+mmx,+sse,+sse2,+x87" "tune-cpu"="generic" }	 ;;;;; line : 57, column : 35, filename : "./MicroBenchmark/virtual_v1_nv0/virtual_v1_nv0_30_2.cpp", 
attributes #5 = { noinline uwtable "frame-pointer"="all" "min-legal-vector-width"="0" "no-builtins" "no-trapping-math"="true" "stack-protector-buffer-size"="8" "target-cpu"="x86-64" "target-features"="+cx8,+fxsr,+mmx,+sse,+sse2,+x87" "tune-cpu"="generic" }	 ;;;;; line : 57, column : 35, filename : "./MicroBenchmark/virtual_v1_nv0/virtual_v1_nv0_30_2.cpp", 
attributes #6 = { nobuiltin "no-builtins" }	 ;;;;; line : 57, column : 35, filename : "./MicroBenchmark/virtual_v1_nv0/virtual_v1_nv0_30_2.cpp", 
attributes #7 = { nobuiltin nounwind "no-builtins" }	 ;;;;; line : 57, column : 35, filename : "./MicroBenchmark/virtual_v1_nv0/virtual_v1_nv0_30_2.cpp", 

!llvm.dbg.cu = !{!0}
!llvm.ident = !{!199}
!llvm.module.flags = !{!200, !201, !202, !203, !204}

!0 = distinct !DICompileUnit(language: DW_LANG_C_plus_plus_14, file: !1, producer: "clang version 14.0.0", isOptimized: false, runtimeVersion: 0, emissionKind: FullDebug, retainedTypes: !2, splitDebugInlining: false, nameTableKind: None)
!1 = !DIFile(filename: "MicroBenchmark/virtual_v1_nv0/virtual_v1_nv0_30_2.cpp", directory: "/home/iron/Downloads/PrivateTIPS/Benchmarks", checksumkind: CSK_MD5, checksum: "f721a93317f56e859a57ebc55a02d9fb")
!2 = !{!3, !10, !7, !92}
!3 = distinct !DICompositeType(tag: DW_TAG_class_type, name: "DD", file: !4, line: 113, size: 448, flags: DIFlagTypePassByReference | DIFlagNonTrivial, elements: !5, vtableHolder: !7, identifier: "_ZTS2DD")
!4 = !DIFile(filename: "./MicroBenchmark/virtual_v1_nv0/virtual_v1_nv0_30_2.cpp", directory: "/home/iron/Downloads/PrivateTIPS/Benchmarks", checksumkind: CSK_MD5, checksum: "f721a93317f56e859a57ebc55a02d9fb")
!5 = !{!6, !91, !133, !134, !138, !139, !140, !141, !142, !143, !144, !145, !146, !147, !148, !149, !150, !151, !152, !153, !154, !155, !156, !157, !158, !159, !160, !161, !162, !163, !164, !165, !166, !167, !168, !169, !170, !171, !172, !173, !174, !175, !176, !177, !178, !179, !180, !181, !182, !183, !184, !185, !186, !187, !188, !189, !190, !191, !192, !193, !194, !195, !196, !197, !198}
!6 = !DIDerivedType(tag: DW_TAG_inheritance, scope: !3, baseType: !7, flags: DIFlagPublic, extraData: i32 0)
!7 = distinct !DICompositeType(tag: DW_TAG_class_type, name: "BB", file: !4, line: 39, size: 256, flags: DIFlagTypePassByReference | DIFlagNonTrivial, elements: !8, vtableHolder: !7, identifier: "_ZTS2BB")
!8 = !{!9, !54, !55, !58, !62, !63, !64, !65, !66, !67, !68, !69, !70, !71, !72, !73, !74, !75, !76, !77, !78, !79, !80, !81, !82, !83, !84, !85, !86, !87, !88, !89, !90}
!9 = !DIDerivedType(tag: DW_TAG_inheritance, scope: !7, baseType: !10, offset: 24, flags: DIFlagPublic | DIFlagVirtual, extraData: i32 0)
!10 = distinct !DICompositeType(tag: DW_TAG_class_type, name: "AA", file: !4, line: 2, size: 128, flags: DIFlagTypePassByReference | DIFlagNonTrivial, elements: !11, vtableHolder: !10, identifier: "_ZTS2AA")
!11 = !{!12, !18, !21, !25, !26, !27, !28, !29, !30, !31, !32, !33, !34, !35, !36, !37, !38, !39, !40, !41, !42, !43, !44, !45, !46, !47, !48, !49, !50, !51, !52, !53}
!12 = !DIDerivedType(tag: DW_TAG_member, name: "_vptr$AA", scope: !4, file: !4, baseType: !13, size: 64, flags: DIFlagArtificial)
!13 = !DIDerivedType(tag: DW_TAG_pointer_type, baseType: !14, size: 64)
!14 = !DIDerivedType(tag: DW_TAG_pointer_type, name: "__vtbl_ptr_type", baseType: !15, size: 64)
!15 = !DISubroutineType(types: !16)
!16 = !{!17}
!17 = !DIBasicType(name: "int", size: 32, encoding: DW_ATE_signed)
!18 = !DIDerivedType(tag: DW_TAG_member, name: "aa", scope: !10, file: !4, line: 4, baseType: !19, size: 64, offset: 64, flags: DIFlagPublic)
!19 = !DIDerivedType(tag: DW_TAG_pointer_type, baseType: !20, size: 64)
!20 = !DIBasicType(name: "char", size: 8, encoding: DW_ATE_signed_char)
!21 = !DISubprogram(name: "kk_v_00000000", linkageName: "_ZN2AA13kk_v_00000000Ev", scope: !10, file: !4, line: 6, type: !22, scopeLine: 6, containingType: !10, virtualIndex: 0, flags: DIFlagPublic | DIFlagPrototyped, spFlags: DISPFlagVirtual)
!22 = !DISubroutineType(types: !23)
!23 = !{null, !24}
!24 = !DIDerivedType(tag: DW_TAG_pointer_type, baseType: !10, size: 64, flags: DIFlagArtificial | DIFlagObjectPointer)
!25 = !DISubprogram(name: "kk_v_00000001", linkageName: "_ZN2AA13kk_v_00000001Ev", scope: !10, file: !4, line: 7, type: !22, scopeLine: 7, containingType: !10, virtualIndex: 1, flags: DIFlagPublic | DIFlagPrototyped, spFlags: DISPFlagVirtual)
!26 = !DISubprogram(name: "kk_v_00000002", linkageName: "_ZN2AA13kk_v_00000002Ev", scope: !10, file: !4, line: 8, type: !22, scopeLine: 8, containingType: !10, virtualIndex: 2, flags: DIFlagPublic | DIFlagPrototyped, spFlags: DISPFlagVirtual)
!27 = !DISubprogram(name: "kk_v_00000003", linkageName: "_ZN2AA13kk_v_00000003Ev", scope: !10, file: !4, line: 9, type: !22, scopeLine: 9, containingType: !10, virtualIndex: 3, flags: DIFlagPublic | DIFlagPrototyped, spFlags: DISPFlagVirtual)
!28 = !DISubprogram(name: "kk_v_00000004", linkageName: "_ZN2AA13kk_v_00000004Ev", scope: !10, file: !4, line: 10, type: !22, scopeLine: 10, containingType: !10, virtualIndex: 4, flags: DIFlagPublic | DIFlagPrototyped, spFlags: DISPFlagVirtual)
!29 = !DISubprogram(name: "kk_v_00000005", linkageName: "_ZN2AA13kk_v_00000005Ev", scope: !10, file: !4, line: 11, type: !22, scopeLine: 11, containingType: !10, virtualIndex: 5, flags: DIFlagPublic | DIFlagPrototyped, spFlags: DISPFlagVirtual)
!30 = !DISubprogram(name: "kk_v_00000006", linkageName: "_ZN2AA13kk_v_00000006Ev", scope: !10, file: !4, line: 12, type: !22, scopeLine: 12, containingType: !10, virtualIndex: 6, flags: DIFlagPublic | DIFlagPrototyped, spFlags: DISPFlagVirtual)
!31 = !DISubprogram(name: "kk_v_00000007", linkageName: "_ZN2AA13kk_v_00000007Ev", scope: !10, file: !4, line: 13, type: !22, scopeLine: 13, containingType: !10, virtualIndex: 7, flags: DIFlagPublic | DIFlagPrototyped, spFlags: DISPFlagVirtual)
!32 = !DISubprogram(name: "kk_v_00000008", linkageName: "_ZN2AA13kk_v_00000008Ev", scope: !10, file: !4, line: 14, type: !22, scopeLine: 14, containingType: !10, virtualIndex: 8, flags: DIFlagPublic | DIFlagPrototyped, spFlags: DISPFlagVirtual)
!33 = !DISubprogram(name: "kk_v_00000009", linkageName: "_ZN2AA13kk_v_00000009Ev", scope: !10, file: !4, line: 15, type: !22, scopeLine: 15, containingType: !10, virtualIndex: 9, flags: DIFlagPublic | DIFlagPrototyped, spFlags: DISPFlagVirtual)
!34 = !DISubprogram(name: "kk_v_00000010", linkageName: "_ZN2AA13kk_v_00000010Ev", scope: !10, file: !4, line: 16, type: !22, scopeLine: 16, containingType: !10, virtualIndex: 10, flags: DIFlagPublic | DIFlagPrototyped, spFlags: DISPFlagVirtual)
!35 = !DISubprogram(name: "kk_v_00000011", linkageName: "_ZN2AA13kk_v_00000011Ev", scope: !10, file: !4, line: 17, type: !22, scopeLine: 17, containingType: !10, virtualIndex: 11, flags: DIFlagPublic | DIFlagPrototyped, spFlags: DISPFlagVirtual)
!36 = !DISubprogram(name: "kk_v_00000012", linkageName: "_ZN2AA13kk_v_00000012Ev", scope: !10, file: !4, line: 18, type: !22, scopeLine: 18, containingType: !10, virtualIndex: 12, flags: DIFlagPublic | DIFlagPrototyped, spFlags: DISPFlagVirtual)
!37 = !DISubprogram(name: "kk_v_00000013", linkageName: "_ZN2AA13kk_v_00000013Ev", scope: !10, file: !4, line: 19, type: !22, scopeLine: 19, containingType: !10, virtualIndex: 13, flags: DIFlagPublic | DIFlagPrototyped, spFlags: DISPFlagVirtual)
!38 = !DISubprogram(name: "kk_v_00000014", linkageName: "_ZN2AA13kk_v_00000014Ev", scope: !10, file: !4, line: 20, type: !22, scopeLine: 20, containingType: !10, virtualIndex: 14, flags: DIFlagPublic | DIFlagPrototyped, spFlags: DISPFlagVirtual)
!39 = !DISubprogram(name: "kk_v_00000015", linkageName: "_ZN2AA13kk_v_00000015Ev", scope: !10, file: !4, line: 21, type: !22, scopeLine: 21, containingType: !10, virtualIndex: 15, flags: DIFlagPublic | DIFlagPrototyped, spFlags: DISPFlagVirtual)
!40 = !DISubprogram(name: "kk_v_00000016", linkageName: "_ZN2AA13kk_v_00000016Ev", scope: !10, file: !4, line: 22, type: !22, scopeLine: 22, containingType: !10, virtualIndex: 16, flags: DIFlagPublic | DIFlagPrototyped, spFlags: DISPFlagVirtual)
!41 = !DISubprogram(name: "kk_v_00000017", linkageName: "_ZN2AA13kk_v_00000017Ev", scope: !10, file: !4, line: 23, type: !22, scopeLine: 23, containingType: !10, virtualIndex: 17, flags: DIFlagPublic | DIFlagPrototyped, spFlags: DISPFlagVirtual)
!42 = !DISubprogram(name: "kk_v_00000018", linkageName: "_ZN2AA13kk_v_00000018Ev", scope: !10, file: !4, line: 24, type: !22, scopeLine: 24, containingType: !10, virtualIndex: 18, flags: DIFlagPublic | DIFlagPrototyped, spFlags: DISPFlagVirtual)
!43 = !DISubprogram(name: "kk_v_00000019", linkageName: "_ZN2AA13kk_v_00000019Ev", scope: !10, file: !4, line: 25, type: !22, scopeLine: 25, containingType: !10, virtualIndex: 19, flags: DIFlagPublic | DIFlagPrototyped, spFlags: DISPFlagVirtual)
!44 = !DISubprogram(name: "kk_v_00000020", linkageName: "_ZN2AA13kk_v_00000020Ev", scope: !10, file: !4, line: 26, type: !22, scopeLine: 26, containingType: !10, virtualIndex: 20, flags: DIFlagPublic | DIFlagPrototyped, spFlags: DISPFlagVirtual)
!45 = !DISubprogram(name: "kk_v_00000021", linkageName: "_ZN2AA13kk_v_00000021Ev", scope: !10, file: !4, line: 27, type: !22, scopeLine: 27, containingType: !10, virtualIndex: 21, flags: DIFlagPublic | DIFlagPrototyped, spFlags: DISPFlagVirtual)
!46 = !DISubprogram(name: "kk_v_00000022", linkageName: "_ZN2AA13kk_v_00000022Ev", scope: !10, file: !4, line: 28, type: !22, scopeLine: 28, containingType: !10, virtualIndex: 22, flags: DIFlagPublic | DIFlagPrototyped, spFlags: DISPFlagVirtual)
!47 = !DISubprogram(name: "kk_v_00000023", linkageName: "_ZN2AA13kk_v_00000023Ev", scope: !10, file: !4, line: 29, type: !22, scopeLine: 29, containingType: !10, virtualIndex: 23, flags: DIFlagPublic | DIFlagPrototyped, spFlags: DISPFlagVirtual)
!48 = !DISubprogram(name: "kk_v_00000024", linkageName: "_ZN2AA13kk_v_00000024Ev", scope: !10, file: !4, line: 30, type: !22, scopeLine: 30, containingType: !10, virtualIndex: 24, flags: DIFlagPublic | DIFlagPrototyped, spFlags: DISPFlagVirtual)
!49 = !DISubprogram(name: "kk_v_00000025", linkageName: "_ZN2AA13kk_v_00000025Ev", scope: !10, file: !4, line: 31, type: !22, scopeLine: 31, containingType: !10, virtualIndex: 25, flags: DIFlagPublic | DIFlagPrototyped, spFlags: DISPFlagVirtual)
!50 = !DISubprogram(name: "kk_v_00000026", linkageName: "_ZN2AA13kk_v_00000026Ev", scope: !10, file: !4, line: 32, type: !22, scopeLine: 32, containingType: !10, virtualIndex: 26, flags: DIFlagPublic | DIFlagPrototyped, spFlags: DISPFlagVirtual)
!51 = !DISubprogram(name: "kk_v_00000027", linkageName: "_ZN2AA13kk_v_00000027Ev", scope: !10, file: !4, line: 33, type: !22, scopeLine: 33, containingType: !10, virtualIndex: 27, flags: DIFlagPublic | DIFlagPrototyped, spFlags: DISPFlagVirtual)
!52 = !DISubprogram(name: "kk_v_00000028", linkageName: "_ZN2AA13kk_v_00000028Ev", scope: !10, file: !4, line: 34, type: !22, scopeLine: 34, containingType: !10, virtualIndex: 28, flags: DIFlagPublic | DIFlagPrototyped, spFlags: DISPFlagVirtual)
!53 = !DISubprogram(name: "kk_v_00000029", linkageName: "_ZN2AA13kk_v_00000029Ev", scope: !10, file: !4, line: 35, type: !22, scopeLine: 35, containingType: !10, virtualIndex: 29, flags: DIFlagPublic | DIFlagPrototyped, spFlags: DISPFlagVirtual)
!54 = !DIDerivedType(tag: DW_TAG_member, name: "_vptr$BB", scope: !4, file: !4, baseType: !13, size: 64, flags: DIFlagArtificial)
!55 = !DIDerivedType(tag: DW_TAG_member, name: "bb", scope: !7, file: !4, line: 41, baseType: !56, size: 64, offset: 64, flags: DIFlagPublic)
!56 = !DIDerivedType(tag: DW_TAG_pointer_type, baseType: !57, size: 64)
!57 = !DIBasicType(name: "long", size: 64, encoding: DW_ATE_signed)
!58 = !DISubprogram(name: "gg_v_00000000", linkageName: "_ZN2BB13gg_v_00000000Ev", scope: !7, file: !4, line: 43, type: !59, scopeLine: 43, containingType: !7, virtualIndex: 0, flags: DIFlagPublic | DIFlagPrototyped, spFlags: DISPFlagVirtual)
!59 = !DISubroutineType(types: !60)
!60 = !{null, !61}
!61 = !DIDerivedType(tag: DW_TAG_pointer_type, baseType: !7, size: 64, flags: DIFlagArtificial | DIFlagObjectPointer)
!62 = !DISubprogram(name: "gg_v_00000001", linkageName: "_ZN2BB13gg_v_00000001Ev", scope: !7, file: !4, line: 44, type: !59, scopeLine: 44, containingType: !7, virtualIndex: 1, flags: DIFlagPublic | DIFlagPrototyped, spFlags: DISPFlagVirtual)
!63 = !DISubprogram(name: "gg_v_00000002", linkageName: "_ZN2BB13gg_v_00000002Ev", scope: !7, file: !4, line: 45, type: !59, scopeLine: 45, containingType: !7, virtualIndex: 2, flags: DIFlagPublic | DIFlagPrototyped, spFlags: DISPFlagVirtual)
!64 = !DISubprogram(name: "gg_v_00000003", linkageName: "_ZN2BB13gg_v_00000003Ev", scope: !7, file: !4, line: 46, type: !59, scopeLine: 46, containingType: !7, virtualIndex: 3, flags: DIFlagPublic | DIFlagPrototyped, spFlags: DISPFlagVirtual)
!65 = !DISubprogram(name: "gg_v_00000004", linkageName: "_ZN2BB13gg_v_00000004Ev", scope: !7, file: !4, line: 47, type: !59, scopeLine: 47, containingType: !7, virtualIndex: 4, flags: DIFlagPublic | DIFlagPrototyped, spFlags: DISPFlagVirtual)
!66 = !DISubprogram(name: "gg_v_00000005", linkageName: "_ZN2BB13gg_v_00000005Ev", scope: !7, file: !4, line: 48, type: !59, scopeLine: 48, containingType: !7, virtualIndex: 5, flags: DIFlagPublic | DIFlagPrototyped, spFlags: DISPFlagVirtual)
!67 = !DISubprogram(name: "gg_v_00000006", linkageName: "_ZN2BB13gg_v_00000006Ev", scope: !7, file: !4, line: 49, type: !59, scopeLine: 49, containingType: !7, virtualIndex: 6, flags: DIFlagPublic | DIFlagPrototyped, spFlags: DISPFlagVirtual)
!68 = !DISubprogram(name: "gg_v_00000007", linkageName: "_ZN2BB13gg_v_00000007Ev", scope: !7, file: !4, line: 50, type: !59, scopeLine: 50, containingType: !7, virtualIndex: 7, flags: DIFlagPublic | DIFlagPrototyped, spFlags: DISPFlagVirtual)
!69 = !DISubprogram(name: "gg_v_00000008", linkageName: "_ZN2BB13gg_v_00000008Ev", scope: !7, file: !4, line: 51, type: !59, scopeLine: 51, containingType: !7, virtualIndex: 8, flags: DIFlagPublic | DIFlagPrototyped, spFlags: DISPFlagVirtual)
!70 = !DISubprogram(name: "gg_v_00000009", linkageName: "_ZN2BB13gg_v_00000009Ev", scope: !7, file: !4, line: 52, type: !59, scopeLine: 52, containingType: !7, virtualIndex: 9, flags: DIFlagPublic | DIFlagPrototyped, spFlags: DISPFlagVirtual)
!71 = !DISubprogram(name: "gg_v_00000010", linkageName: "_ZN2BB13gg_v_00000010Ev", scope: !7, file: !4, line: 53, type: !59, scopeLine: 53, containingType: !7, virtualIndex: 10, flags: DIFlagPublic | DIFlagPrototyped, spFlags: DISPFlagVirtual)
!72 = !DISubprogram(name: "gg_v_00000011", linkageName: "_ZN2BB13gg_v_00000011Ev", scope: !7, file: !4, line: 54, type: !59, scopeLine: 54, containingType: !7, virtualIndex: 11, flags: DIFlagPublic | DIFlagPrototyped, spFlags: DISPFlagVirtual)
!73 = !DISubprogram(name: "gg_v_00000012", linkageName: "_ZN2BB13gg_v_00000012Ev", scope: !7, file: !4, line: 55, type: !59, scopeLine: 55, containingType: !7, virtualIndex: 12, flags: DIFlagPublic | DIFlagPrototyped, spFlags: DISPFlagVirtual)
!74 = !DISubprogram(name: "gg_v_00000013", linkageName: "_ZN2BB13gg_v_00000013Ev", scope: !7, file: !4, line: 56, type: !59, scopeLine: 56, containingType: !7, virtualIndex: 13, flags: DIFlagPublic | DIFlagPrototyped, spFlags: DISPFlagVirtual)
!75 = !DISubprogram(name: "gg_v_00000014", linkageName: "_ZN2BB13gg_v_00000014Ev", scope: !7, file: !4, line: 57, type: !59, scopeLine: 57, containingType: !7, virtualIndex: 14, flags: DIFlagPublic | DIFlagPrototyped, spFlags: DISPFlagVirtual)
!76 = !DISubprogram(name: "gg_v_00000015", linkageName: "_ZN2BB13gg_v_00000015Ev", scope: !7, file: !4, line: 58, type: !59, scopeLine: 58, containingType: !7, virtualIndex: 15, flags: DIFlagPublic | DIFlagPrototyped, spFlags: DISPFlagVirtual)
!77 = !DISubprogram(name: "gg_v_00000016", linkageName: "_ZN2BB13gg_v_00000016Ev", scope: !7, file: !4, line: 59, type: !59, scopeLine: 59, containingType: !7, virtualIndex: 16, flags: DIFlagPublic | DIFlagPrototyped, spFlags: DISPFlagVirtual)
!78 = !DISubprogram(name: "gg_v_00000017", linkageName: "_ZN2BB13gg_v_00000017Ev", scope: !7, file: !4, line: 60, type: !59, scopeLine: 60, containingType: !7, virtualIndex: 17, flags: DIFlagPublic | DIFlagPrototyped, spFlags: DISPFlagVirtual)
!79 = !DISubprogram(name: "gg_v_00000018", linkageName: "_ZN2BB13gg_v_00000018Ev", scope: !7, file: !4, line: 61, type: !59, scopeLine: 61, containingType: !7, virtualIndex: 18, flags: DIFlagPublic | DIFlagPrototyped, spFlags: DISPFlagVirtual)
!80 = !DISubprogram(name: "gg_v_00000019", linkageName: "_ZN2BB13gg_v_00000019Ev", scope: !7, file: !4, line: 62, type: !59, scopeLine: 62, containingType: !7, virtualIndex: 19, flags: DIFlagPublic | DIFlagPrototyped, spFlags: DISPFlagVirtual)
!81 = !DISubprogram(name: "gg_v_00000020", linkageName: "_ZN2BB13gg_v_00000020Ev", scope: !7, file: !4, line: 63, type: !59, scopeLine: 63, containingType: !7, virtualIndex: 20, flags: DIFlagPublic | DIFlagPrototyped, spFlags: DISPFlagVirtual)
!82 = !DISubprogram(name: "gg_v_00000021", linkageName: "_ZN2BB13gg_v_00000021Ev", scope: !7, file: !4, line: 64, type: !59, scopeLine: 64, containingType: !7, virtualIndex: 21, flags: DIFlagPublic | DIFlagPrototyped, spFlags: DISPFlagVirtual)
!83 = !DISubprogram(name: "gg_v_00000022", linkageName: "_ZN2BB13gg_v_00000022Ev", scope: !7, file: !4, line: 65, type: !59, scopeLine: 65, containingType: !7, virtualIndex: 22, flags: DIFlagPublic | DIFlagPrototyped, spFlags: DISPFlagVirtual)
!84 = !DISubprogram(name: "gg_v_00000023", linkageName: "_ZN2BB13gg_v_00000023Ev", scope: !7, file: !4, line: 66, type: !59, scopeLine: 66, containingType: !7, virtualIndex: 23, flags: DIFlagPublic | DIFlagPrototyped, spFlags: DISPFlagVirtual)
!85 = !DISubprogram(name: "gg_v_00000024", linkageName: "_ZN2BB13gg_v_00000024Ev", scope: !7, file: !4, line: 67, type: !59, scopeLine: 67, containingType: !7, virtualIndex: 24, flags: DIFlagPublic | DIFlagPrototyped, spFlags: DISPFlagVirtual)
!86 = !DISubprogram(name: "gg_v_00000025", linkageName: "_ZN2BB13gg_v_00000025Ev", scope: !7, file: !4, line: 68, type: !59, scopeLine: 68, containingType: !7, virtualIndex: 25, flags: DIFlagPublic | DIFlagPrototyped, spFlags: DISPFlagVirtual)
!87 = !DISubprogram(name: "gg_v_00000026", linkageName: "_ZN2BB13gg_v_00000026Ev", scope: !7, file: !4, line: 69, type: !59, scopeLine: 69, containingType: !7, virtualIndex: 26, flags: DIFlagPublic | DIFlagPrototyped, spFlags: DISPFlagVirtual)
!88 = !DISubprogram(name: "gg_v_00000027", linkageName: "_ZN2BB13gg_v_00000027Ev", scope: !7, file: !4, line: 70, type: !59, scopeLine: 70, containingType: !7, virtualIndex: 27, flags: DIFlagPublic | DIFlagPrototyped, spFlags: DISPFlagVirtual)
!89 = !DISubprogram(name: "gg_v_00000028", linkageName: "_ZN2BB13gg_v_00000028Ev", scope: !7, file: !4, line: 71, type: !59, scopeLine: 71, containingType: !7, virtualIndex: 28, flags: DIFlagPublic | DIFlagPrototyped, spFlags: DISPFlagVirtual)
!90 = !DISubprogram(name: "gg_v_00000029", linkageName: "_ZN2BB13gg_v_00000029Ev", scope: !7, file: !4, line: 72, type: !59, scopeLine: 72, containingType: !7, virtualIndex: 29, flags: DIFlagPublic | DIFlagPrototyped, spFlags: DISPFlagVirtual)
!91 = !DIDerivedType(tag: DW_TAG_inheritance, scope: !3, baseType: !92, offset: 128, flags: DIFlagPublic, extraData: i32 0)
!92 = distinct !DICompositeType(tag: DW_TAG_class_type, name: "CC", file: !4, line: 76, size: 256, flags: DIFlagTypePassByReference | DIFlagNonTrivial, elements: !93, vtableHolder: !92, identifier: "_ZTS2CC")
!93 = !{!94, !95, !96, !100, !104, !105, !106, !107, !108, !109, !110, !111, !112, !113, !114, !115, !116, !117, !118, !119, !120, !121, !122, !123, !124, !125, !126, !127, !128, !129, !130, !131, !132}
!94 = !DIDerivedType(tag: DW_TAG_inheritance, scope: !92, baseType: !10, offset: 24, flags: DIFlagPublic | DIFlagVirtual, extraData: i32 0)
!95 = !DIDerivedType(tag: DW_TAG_member, name: "_vptr$CC", scope: !4, file: !4, baseType: !13, size: 64, flags: DIFlagArtificial)
!96 = !DIDerivedType(tag: DW_TAG_member, name: "cc", scope: !92, file: !4, line: 78, baseType: !97, size: 64, offset: 64, flags: DIFlagPublic)
!97 = !DICompositeType(tag: DW_TAG_array_type, baseType: !17, size: 64, elements: !98)
!98 = !{!99}
!99 = !DISubrange(count: 2)
!100 = !DISubprogram(name: "hh_v_00000000", linkageName: "_ZN2CC13hh_v_00000000Ev", scope: !92, file: !4, line: 80, type: !101, scopeLine: 80, containingType: !92, virtualIndex: 0, flags: DIFlagPublic | DIFlagPrototyped, spFlags: DISPFlagVirtual)
!101 = !DISubroutineType(types: !102)
!102 = !{null, !103}
!103 = !DIDerivedType(tag: DW_TAG_pointer_type, baseType: !92, size: 64, flags: DIFlagArtificial | DIFlagObjectPointer)
!104 = !DISubprogram(name: "hh_v_00000001", linkageName: "_ZN2CC13hh_v_00000001Ev", scope: !92, file: !4, line: 81, type: !101, scopeLine: 81, containingType: !92, virtualIndex: 1, flags: DIFlagPublic | DIFlagPrototyped, spFlags: DISPFlagVirtual)
!105 = !DISubprogram(name: "hh_v_00000002", linkageName: "_ZN2CC13hh_v_00000002Ev", scope: !92, file: !4, line: 82, type: !101, scopeLine: 82, containingType: !92, virtualIndex: 2, flags: DIFlagPublic | DIFlagPrototyped, spFlags: DISPFlagVirtual)
!106 = !DISubprogram(name: "hh_v_00000003", linkageName: "_ZN2CC13hh_v_00000003Ev", scope: !92, file: !4, line: 83, type: !101, scopeLine: 83, containingType: !92, virtualIndex: 3, flags: DIFlagPublic | DIFlagPrototyped, spFlags: DISPFlagVirtual)
!107 = !DISubprogram(name: "hh_v_00000004", linkageName: "_ZN2CC13hh_v_00000004Ev", scope: !92, file: !4, line: 84, type: !101, scopeLine: 84, containingType: !92, virtualIndex: 4, flags: DIFlagPublic | DIFlagPrototyped, spFlags: DISPFlagVirtual)
!108 = !DISubprogram(name: "hh_v_00000005", linkageName: "_ZN2CC13hh_v_00000005Ev", scope: !92, file: !4, line: 85, type: !101, scopeLine: 85, containingType: !92, virtualIndex: 5, flags: DIFlagPublic | DIFlagPrototyped, spFlags: DISPFlagVirtual)
!109 = !DISubprogram(name: "hh_v_00000006", linkageName: "_ZN2CC13hh_v_00000006Ev", scope: !92, file: !4, line: 86, type: !101, scopeLine: 86, containingType: !92, virtualIndex: 6, flags: DIFlagPublic | DIFlagPrototyped, spFlags: DISPFlagVirtual)
!110 = !DISubprogram(name: "hh_v_00000007", linkageName: "_ZN2CC13hh_v_00000007Ev", scope: !92, file: !4, line: 87, type: !101, scopeLine: 87, containingType: !92, virtualIndex: 7, flags: DIFlagPublic | DIFlagPrototyped, spFlags: DISPFlagVirtual)
!111 = !DISubprogram(name: "hh_v_00000008", linkageName: "_ZN2CC13hh_v_00000008Ev", scope: !92, file: !4, line: 88, type: !101, scopeLine: 88, containingType: !92, virtualIndex: 8, flags: DIFlagPublic | DIFlagPrototyped, spFlags: DISPFlagVirtual)
!112 = !DISubprogram(name: "hh_v_00000009", linkageName: "_ZN2CC13hh_v_00000009Ev", scope: !92, file: !4, line: 89, type: !101, scopeLine: 89, containingType: !92, virtualIndex: 9, flags: DIFlagPublic | DIFlagPrototyped, spFlags: DISPFlagVirtual)
!113 = !DISubprogram(name: "hh_v_00000010", linkageName: "_ZN2CC13hh_v_00000010Ev", scope: !92, file: !4, line: 90, type: !101, scopeLine: 90, containingType: !92, virtualIndex: 10, flags: DIFlagPublic | DIFlagPrototyped, spFlags: DISPFlagVirtual)
!114 = !DISubprogram(name: "hh_v_00000011", linkageName: "_ZN2CC13hh_v_00000011Ev", scope: !92, file: !4, line: 91, type: !101, scopeLine: 91, containingType: !92, virtualIndex: 11, flags: DIFlagPublic | DIFlagPrototyped, spFlags: DISPFlagVirtual)
!115 = !DISubprogram(name: "hh_v_00000012", linkageName: "_ZN2CC13hh_v_00000012Ev", scope: !92, file: !4, line: 92, type: !101, scopeLine: 92, containingType: !92, virtualIndex: 12, flags: DIFlagPublic | DIFlagPrototyped, spFlags: DISPFlagVirtual)
!116 = !DISubprogram(name: "hh_v_00000013", linkageName: "_ZN2CC13hh_v_00000013Ev", scope: !92, file: !4, line: 93, type: !101, scopeLine: 93, containingType: !92, virtualIndex: 13, flags: DIFlagPublic | DIFlagPrototyped, spFlags: DISPFlagVirtual)
!117 = !DISubprogram(name: "hh_v_00000014", linkageName: "_ZN2CC13hh_v_00000014Ev", scope: !92, file: !4, line: 94, type: !101, scopeLine: 94, containingType: !92, virtualIndex: 14, flags: DIFlagPublic | DIFlagPrototyped, spFlags: DISPFlagVirtual)
!118 = !DISubprogram(name: "hh_v_00000015", linkageName: "_ZN2CC13hh_v_00000015Ev", scope: !92, file: !4, line: 95, type: !101, scopeLine: 95, containingType: !92, virtualIndex: 15, flags: DIFlagPublic | DIFlagPrototyped, spFlags: DISPFlagVirtual)
!119 = !DISubprogram(name: "hh_v_00000016", linkageName: "_ZN2CC13hh_v_00000016Ev", scope: !92, file: !4, line: 96, type: !101, scopeLine: 96, containingType: !92, virtualIndex: 16, flags: DIFlagPublic | DIFlagPrototyped, spFlags: DISPFlagVirtual)
!120 = !DISubprogram(name: "hh_v_00000017", linkageName: "_ZN2CC13hh_v_00000017Ev", scope: !92, file: !4, line: 97, type: !101, scopeLine: 97, containingType: !92, virtualIndex: 17, flags: DIFlagPublic | DIFlagPrototyped, spFlags: DISPFlagVirtual)
!121 = !DISubprogram(name: "hh_v_00000018", linkageName: "_ZN2CC13hh_v_00000018Ev", scope: !92, file: !4, line: 98, type: !101, scopeLine: 98, containingType: !92, virtualIndex: 18, flags: DIFlagPublic | DIFlagPrototyped, spFlags: DISPFlagVirtual)
!122 = !DISubprogram(name: "hh_v_00000019", linkageName: "_ZN2CC13hh_v_00000019Ev", scope: !92, file: !4, line: 99, type: !101, scopeLine: 99, containingType: !92, virtualIndex: 19, flags: DIFlagPublic | DIFlagPrototyped, spFlags: DISPFlagVirtual)
!123 = !DISubprogram(name: "hh_v_00000020", linkageName: "_ZN2CC13hh_v_00000020Ev", scope: !92, file: !4, line: 100, type: !101, scopeLine: 100, containingType: !92, virtualIndex: 20, flags: DIFlagPublic | DIFlagPrototyped, spFlags: DISPFlagVirtual)
!124 = !DISubprogram(name: "hh_v_00000021", linkageName: "_ZN2CC13hh_v_00000021Ev", scope: !92, file: !4, line: 101, type: !101, scopeLine: 101, containingType: !92, virtualIndex: 21, flags: DIFlagPublic | DIFlagPrototyped, spFlags: DISPFlagVirtual)
!125 = !DISubprogram(name: "hh_v_00000022", linkageName: "_ZN2CC13hh_v_00000022Ev", scope: !92, file: !4, line: 102, type: !101, scopeLine: 102, containingType: !92, virtualIndex: 22, flags: DIFlagPublic | DIFlagPrototyped, spFlags: DISPFlagVirtual)
!126 = !DISubprogram(name: "hh_v_00000023", linkageName: "_ZN2CC13hh_v_00000023Ev", scope: !92, file: !4, line: 103, type: !101, scopeLine: 103, containingType: !92, virtualIndex: 23, flags: DIFlagPublic | DIFlagPrototyped, spFlags: DISPFlagVirtual)
!127 = !DISubprogram(name: "hh_v_00000024", linkageName: "_ZN2CC13hh_v_00000024Ev", scope: !92, file: !4, line: 104, type: !101, scopeLine: 104, containingType: !92, virtualIndex: 24, flags: DIFlagPublic | DIFlagPrototyped, spFlags: DISPFlagVirtual)
!128 = !DISubprogram(name: "hh_v_00000025", linkageName: "_ZN2CC13hh_v_00000025Ev", scope: !92, file: !4, line: 105, type: !101, scopeLine: 105, containingType: !92, virtualIndex: 25, flags: DIFlagPublic | DIFlagPrototyped, spFlags: DISPFlagVirtual)
!129 = !DISubprogram(name: "hh_v_00000026", linkageName: "_ZN2CC13hh_v_00000026Ev", scope: !92, file: !4, line: 106, type: !101, scopeLine: 106, containingType: !92, virtualIndex: 26, flags: DIFlagPublic | DIFlagPrototyped, spFlags: DISPFlagVirtual)
!130 = !DISubprogram(name: "hh_v_00000027", linkageName: "_ZN2CC13hh_v_00000027Ev", scope: !92, file: !4, line: 107, type: !101, scopeLine: 107, containingType: !92, virtualIndex: 27, flags: DIFlagPublic | DIFlagPrototyped, spFlags: DISPFlagVirtual)
!131 = !DISubprogram(name: "hh_v_00000028", linkageName: "_ZN2CC13hh_v_00000028Ev", scope: !92, file: !4, line: 108, type: !101, scopeLine: 108, containingType: !92, virtualIndex: 28, flags: DIFlagPublic | DIFlagPrototyped, spFlags: DISPFlagVirtual)
!132 = !DISubprogram(name: "hh_v_00000029", linkageName: "_ZN2CC13hh_v_00000029Ev", scope: !92, file: !4, line: 109, type: !101, scopeLine: 109, containingType: !92, virtualIndex: 29, flags: DIFlagPublic | DIFlagPrototyped, spFlags: DISPFlagVirtual)
!133 = !DIDerivedType(tag: DW_TAG_member, name: "dd", scope: !3, file: !4, line: 115, baseType: !57, size: 64, offset: 256, flags: DIFlagPublic)
!134 = !DISubprogram(name: "kk_v_00000000", linkageName: "_ZN2DD13kk_v_00000000Ev", scope: !3, file: !4, line: 117, type: !135, scopeLine: 117, containingType: !3, virtualIndex: 30, flags: DIFlagPublic | DIFlagPrototyped, spFlags: DISPFlagVirtual)
!135 = !DISubroutineType(types: !136)
!136 = !{null, !137}
!137 = !DIDerivedType(tag: DW_TAG_pointer_type, baseType: !3, size: 64, flags: DIFlagArtificial | DIFlagObjectPointer)
!138 = !DISubprogram(name: "kk_v_00000001", linkageName: "_ZN2DD13kk_v_00000001Ev", scope: !3, file: !4, line: 118, type: !135, scopeLine: 118, containingType: !3, virtualIndex: 31, flags: DIFlagPublic | DIFlagPrototyped, spFlags: DISPFlagVirtual)
!139 = !DISubprogram(name: "kk_v_00000002", linkageName: "_ZN2DD13kk_v_00000002Ev", scope: !3, file: !4, line: 119, type: !135, scopeLine: 119, containingType: !3, virtualIndex: 32, flags: DIFlagPublic | DIFlagPrototyped, spFlags: DISPFlagVirtual)
!140 = !DISubprogram(name: "kk_v_00000003", linkageName: "_ZN2DD13kk_v_00000003Ev", scope: !3, file: !4, line: 120, type: !135, scopeLine: 120, containingType: !3, virtualIndex: 33, flags: DIFlagPublic | DIFlagPrototyped, spFlags: DISPFlagVirtual)
!141 = !DISubprogram(name: "kk_v_00000004", linkageName: "_ZN2DD13kk_v_00000004Ev", scope: !3, file: !4, line: 121, type: !135, scopeLine: 121, containingType: !3, virtualIndex: 34, flags: DIFlagPublic | DIFlagPrototyped, spFlags: DISPFlagVirtual)
!142 = !DISubprogram(name: "kk_v_00000005", linkageName: "_ZN2DD13kk_v_00000005Ev", scope: !3, file: !4, line: 122, type: !135, scopeLine: 122, containingType: !3, virtualIndex: 35, flags: DIFlagPublic | DIFlagPrototyped, spFlags: DISPFlagVirtual)
!143 = !DISubprogram(name: "gg_v_00000000", linkageName: "_ZN2DD13gg_v_00000000Ev", scope: !3, file: !4, line: 124, type: !135, scopeLine: 124, containingType: !3, virtualIndex: 0, flags: DIFlagPublic | DIFlagPrototyped, spFlags: DISPFlagVirtual)
!144 = !DISubprogram(name: "gg_v_00000001", linkageName: "_ZN2DD13gg_v_00000001Ev", scope: !3, file: !4, line: 125, type: !135, scopeLine: 125, containingType: !3, virtualIndex: 1, flags: DIFlagPublic | DIFlagPrototyped, spFlags: DISPFlagVirtual)
!145 = !DISubprogram(name: "gg_v_00000002", linkageName: "_ZN2DD13gg_v_00000002Ev", scope: !3, file: !4, line: 126, type: !135, scopeLine: 126, containingType: !3, virtualIndex: 2, flags: DIFlagPublic | DIFlagPrototyped, spFlags: DISPFlagVirtual)
!146 = !DISubprogram(name: "gg_v_00000003", linkageName: "_ZN2DD13gg_v_00000003Ev", scope: !3, file: !4, line: 127, type: !135, scopeLine: 127, containingType: !3, virtualIndex: 3, flags: DIFlagPublic | DIFlagPrototyped, spFlags: DISPFlagVirtual)
!147 = !DISubprogram(name: "gg_v_00000004", linkageName: "_ZN2DD13gg_v_00000004Ev", scope: !3, file: !4, line: 128, type: !135, scopeLine: 128, containingType: !3, virtualIndex: 4, flags: DIFlagPublic | DIFlagPrototyped, spFlags: DISPFlagVirtual)
!148 = !DISubprogram(name: "gg_v_00000005", linkageName: "_ZN2DD13gg_v_00000005Ev", scope: !3, file: !4, line: 129, type: !135, scopeLine: 129, containingType: !3, virtualIndex: 5, flags: DIFlagPublic | DIFlagPrototyped, spFlags: DISPFlagVirtual)
!149 = !DISubprogram(name: "gg_v_00000006", linkageName: "_ZN2DD13gg_v_00000006Ev", scope: !3, file: !4, line: 130, type: !135, scopeLine: 130, containingType: !3, virtualIndex: 6, flags: DIFlagPublic | DIFlagPrototyped, spFlags: DISPFlagVirtual)
!150 = !DISubprogram(name: "gg_v_00000007", linkageName: "_ZN2DD13gg_v_00000007Ev", scope: !3, file: !4, line: 131, type: !135, scopeLine: 131, containingType: !3, virtualIndex: 7, flags: DIFlagPublic | DIFlagPrototyped, spFlags: DISPFlagVirtual)
!151 = !DISubprogram(name: "gg_v_00000008", linkageName: "_ZN2DD13gg_v_00000008Ev", scope: !3, file: !4, line: 132, type: !135, scopeLine: 132, containingType: !3, virtualIndex: 8, flags: DIFlagPublic | DIFlagPrototyped, spFlags: DISPFlagVirtual)
!152 = !DISubprogram(name: "gg_v_00000009", linkageName: "_ZN2DD13gg_v_00000009Ev", scope: !3, file: !4, line: 133, type: !135, scopeLine: 133, containingType: !3, virtualIndex: 9, flags: DIFlagPublic | DIFlagPrototyped, spFlags: DISPFlagVirtual)
!153 = !DISubprogram(name: "gg_v_00000010", linkageName: "_ZN2DD13gg_v_00000010Ev", scope: !3, file: !4, line: 134, type: !135, scopeLine: 134, containingType: !3, virtualIndex: 10, flags: DIFlagPublic | DIFlagPrototyped, spFlags: DISPFlagVirtual)
!154 = !DISubprogram(name: "gg_v_00000011", linkageName: "_ZN2DD13gg_v_00000011Ev", scope: !3, file: !4, line: 135, type: !135, scopeLine: 135, containingType: !3, virtualIndex: 11, flags: DIFlagPublic | DIFlagPrototyped, spFlags: DISPFlagVirtual)
!155 = !DISubprogram(name: "gg_v_00000012", linkageName: "_ZN2DD13gg_v_00000012Ev", scope: !3, file: !4, line: 136, type: !135, scopeLine: 136, containingType: !3, virtualIndex: 12, flags: DIFlagPublic | DIFlagPrototyped, spFlags: DISPFlagVirtual)
!156 = !DISubprogram(name: "gg_v_00000013", linkageName: "_ZN2DD13gg_v_00000013Ev", scope: !3, file: !4, line: 137, type: !135, scopeLine: 137, containingType: !3, virtualIndex: 13, flags: DIFlagPublic | DIFlagPrototyped, spFlags: DISPFlagVirtual)
!157 = !DISubprogram(name: "gg_v_00000014", linkageName: "_ZN2DD13gg_v_00000014Ev", scope: !3, file: !4, line: 138, type: !135, scopeLine: 138, containingType: !3, virtualIndex: 14, flags: DIFlagPublic | DIFlagPrototyped, spFlags: DISPFlagVirtual)
!158 = !DISubprogram(name: "hh_v_00000000", linkageName: "_ZN2DD13hh_v_00000000Ev", scope: !3, file: !4, line: 140, type: !135, scopeLine: 140, containingType: !3, virtualIndex: 36, flags: DIFlagPublic | DIFlagPrototyped, spFlags: DISPFlagVirtual)
!159 = !DISubprogram(name: "hh_v_00000001", linkageName: "_ZN2DD13hh_v_00000001Ev", scope: !3, file: !4, line: 141, type: !135, scopeLine: 141, containingType: !3, virtualIndex: 37, flags: DIFlagPublic | DIFlagPrototyped, spFlags: DISPFlagVirtual)
!160 = !DISubprogram(name: "hh_v_00000002", linkageName: "_ZN2DD13hh_v_00000002Ev", scope: !3, file: !4, line: 142, type: !135, scopeLine: 142, containingType: !3, virtualIndex: 38, flags: DIFlagPublic | DIFlagPrototyped, spFlags: DISPFlagVirtual)
!161 = !DISubprogram(name: "hh_v_00000003", linkageName: "_ZN2DD13hh_v_00000003Ev", scope: !3, file: !4, line: 143, type: !135, scopeLine: 143, containingType: !3, virtualIndex: 39, flags: DIFlagPublic | DIFlagPrototyped, spFlags: DISPFlagVirtual)
!162 = !DISubprogram(name: "hh_v_00000004", linkageName: "_ZN2DD13hh_v_00000004Ev", scope: !3, file: !4, line: 144, type: !135, scopeLine: 144, containingType: !3, virtualIndex: 40, flags: DIFlagPublic | DIFlagPrototyped, spFlags: DISPFlagVirtual)
!163 = !DISubprogram(name: "hh_v_00000005", linkageName: "_ZN2DD13hh_v_00000005Ev", scope: !3, file: !4, line: 145, type: !135, scopeLine: 145, containingType: !3, virtualIndex: 41, flags: DIFlagPublic | DIFlagPrototyped, spFlags: DISPFlagVirtual)
!164 = !DISubprogram(name: "hh_v_00000006", linkageName: "_ZN2DD13hh_v_00000006Ev", scope: !3, file: !4, line: 146, type: !135, scopeLine: 146, containingType: !3, virtualIndex: 42, flags: DIFlagPublic | DIFlagPrototyped, spFlags: DISPFlagVirtual)
!165 = !DISubprogram(name: "hh_v_00000007", linkageName: "_ZN2DD13hh_v_00000007Ev", scope: !3, file: !4, line: 147, type: !135, scopeLine: 147, containingType: !3, virtualIndex: 43, flags: DIFlagPublic | DIFlagPrototyped, spFlags: DISPFlagVirtual)
!166 = !DISubprogram(name: "hh_v_00000008", linkageName: "_ZN2DD13hh_v_00000008Ev", scope: !3, file: !4, line: 148, type: !135, scopeLine: 148, containingType: !3, virtualIndex: 44, flags: DIFlagPublic | DIFlagPrototyped, spFlags: DISPFlagVirtual)
!167 = !DISubprogram(name: "hh_v_00000009", linkageName: "_ZN2DD13hh_v_00000009Ev", scope: !3, file: !4, line: 149, type: !135, scopeLine: 149, containingType: !3, virtualIndex: 45, flags: DIFlagPublic | DIFlagPrototyped, spFlags: DISPFlagVirtual)
!168 = !DISubprogram(name: "hh_v_00000010", linkageName: "_ZN2DD13hh_v_00000010Ev", scope: !3, file: !4, line: 150, type: !135, scopeLine: 150, containingType: !3, virtualIndex: 46, flags: DIFlagPublic | DIFlagPrototyped, spFlags: DISPFlagVirtual)
!169 = !DISubprogram(name: "ff_v_00000000", linkageName: "_ZN2DD13ff_v_00000000Ev", scope: !3, file: !4, line: 152, type: !135, scopeLine: 152, containingType: !3, virtualIndex: 47, flags: DIFlagPublic | DIFlagPrototyped, spFlags: DISPFlagVirtual)
!170 = !DISubprogram(name: "ff_v_00000001", linkageName: "_ZN2DD13ff_v_00000001Ev", scope: !3, file: !4, line: 153, type: !135, scopeLine: 153, containingType: !3, virtualIndex: 48, flags: DIFlagPublic | DIFlagPrototyped, spFlags: DISPFlagVirtual)
!171 = !DISubprogram(name: "ff_v_00000002", linkageName: "_ZN2DD13ff_v_00000002Ev", scope: !3, file: !4, line: 154, type: !135, scopeLine: 154, containingType: !3, virtualIndex: 49, flags: DIFlagPublic | DIFlagPrototyped, spFlags: DISPFlagVirtual)
!172 = !DISubprogram(name: "ff_v_00000003", linkageName: "_ZN2DD13ff_v_00000003Ev", scope: !3, file: !4, line: 155, type: !135, scopeLine: 155, containingType: !3, virtualIndex: 50, flags: DIFlagPublic | DIFlagPrototyped, spFlags: DISPFlagVirtual)
!173 = !DISubprogram(name: "ff_v_00000004", linkageName: "_ZN2DD13ff_v_00000004Ev", scope: !3, file: !4, line: 156, type: !135, scopeLine: 156, containingType: !3, virtualIndex: 51, flags: DIFlagPublic | DIFlagPrototyped, spFlags: DISPFlagVirtual)
!174 = !DISubprogram(name: "ff_v_00000005", linkageName: "_ZN2DD13ff_v_00000005Ev", scope: !3, file: !4, line: 157, type: !135, scopeLine: 157, containingType: !3, virtualIndex: 52, flags: DIFlagPublic | DIFlagPrototyped, spFlags: DISPFlagVirtual)
!175 = !DISubprogram(name: "ff_v_00000006", linkageName: "_ZN2DD13ff_v_00000006Ev", scope: !3, file: !4, line: 158, type: !135, scopeLine: 158, containingType: !3, virtualIndex: 53, flags: DIFlagPublic | DIFlagPrototyped, spFlags: DISPFlagVirtual)
!176 = !DISubprogram(name: "ff_v_00000007", linkageName: "_ZN2DD13ff_v_00000007Ev", scope: !3, file: !4, line: 159, type: !135, scopeLine: 159, containingType: !3, virtualIndex: 54, flags: DIFlagPublic | DIFlagPrototyped, spFlags: DISPFlagVirtual)
!177 = !DISubprogram(name: "ff_v_00000008", linkageName: "_ZN2DD13ff_v_00000008Ev", scope: !3, file: !4, line: 160, type: !135, scopeLine: 160, containingType: !3, virtualIndex: 55, flags: DIFlagPublic | DIFlagPrototyped, spFlags: DISPFlagVirtual)
