; ModuleID = './MicroBenchmark/multiple_v1_nv0/pre_bc/multiple_v1_nv0_30_8.pre.bc'
source_filename = "llvm-link"
target datalayout = "e-m:e-p270:32:32-p271:32:32-p272:64:64-i64:64-f80:128-n8:16:32:64-S128"
target triple = "x86_64-unknown-linux-gnu"

%class.DD = type { %class.BB, %class.CC, i64 }
%class.BB = type { i32 (...)**, i64* }
%class.CC = type { i32 (...)**, [2 x i32] }

$_ZN2DDC2Ev = comdat any

$_ZN2BBC2Ev = comdat any

$_ZN2CCC2Ev = comdat any

$_ZN2DD13gg_v_00000000Ev = comdat any

$_ZN2DD13gg_v_00000001Ev = comdat any

$_ZN2DD13gg_v_00000002Ev = comdat any

$_ZN2DD13gg_v_00000003Ev = comdat any

$_ZN2DD13gg_v_00000004Ev = comdat any

$_ZN2BB13gg_v_00000005Ev = comdat any

$_ZN2BB13gg_v_00000006Ev = comdat any

$_ZN2BB13gg_v_00000007Ev = comdat any

$_ZN2BB13gg_v_00000008Ev = comdat any

$_ZN2BB13gg_v_00000009Ev = comdat any

$_ZN2BB13gg_v_00000010Ev = comdat any

$_ZN2BB13gg_v_00000011Ev = comdat any

$_ZN2BB13gg_v_00000012Ev = comdat any

$_ZN2BB13gg_v_00000013Ev = comdat any

$_ZN2BB13gg_v_00000014Ev = comdat any

$_ZN2BB13gg_v_00000015Ev = comdat any

$_ZN2BB13gg_v_00000016Ev = comdat any

$_ZN2BB13gg_v_00000017Ev = comdat any

$_ZN2BB13gg_v_00000018Ev = comdat any

$_ZN2BB13gg_v_00000019Ev = comdat any

$_ZN2BB13gg_v_00000020Ev = comdat any

$_ZN2BB13gg_v_00000021Ev = comdat any

$_ZN2BB13gg_v_00000022Ev = comdat any

$_ZN2BB13gg_v_00000023Ev = comdat any

$_ZN2BB13gg_v_00000024Ev = comdat any

$_ZN2BB13gg_v_00000025Ev = comdat any

$_ZN2BB13gg_v_00000026Ev = comdat any

$_ZN2BB13gg_v_00000027Ev = comdat any

$_ZN2BB13gg_v_00000028Ev = comdat any

$_ZN2BB13gg_v_00000029Ev = comdat any

$_ZN2DD13hh_v_00000000Ev = comdat any

$_ZN2DD13hh_v_00000001Ev = comdat any

$_ZN2DD13hh_v_00000002Ev = comdat any

$_ZN2DD13hh_v_00000003Ev = comdat any

$_ZN2DD13hh_v_00000004Ev = comdat any

$_ZN2DD13hh_v_00000005Ev = comdat any

$_ZN2DD13hh_v_00000006Ev = comdat any

$_ZN2DD13hh_v_00000007Ev = comdat any

$_ZN2DD13hh_v_00000008Ev = comdat any

$_ZN2DD13hh_v_00000009Ev = comdat any

$_ZN2DD13hh_v_00000010Ev = comdat any

$_ZN2DD13hh_v_00000011Ev = comdat any

$_ZN2DD13hh_v_00000012Ev = comdat any

$_ZN2DD13hh_v_00000013Ev = comdat any

$_ZN2DD13hh_v_00000014Ev = comdat any

$_ZN2DD13hh_v_00000015Ev = comdat any

$_ZN2DD13hh_v_00000016Ev = comdat any

$_ZN2DD13hh_v_00000017Ev = comdat any

$_ZN2DD13hh_v_00000018Ev = comdat any

$_ZN2DD13hh_v_00000019Ev = comdat any

$_ZN2DD13hh_v_00000020Ev = comdat any

$_ZN2DD13hh_v_00000021Ev = comdat any

$_ZN2DD13hh_v_00000022Ev = comdat any

$_ZN2DD13hh_v_00000023Ev = comdat any

$_ZN2DD13hh_v_00000024Ev = comdat any

$_ZN2DD13hh_v_00000025Ev = comdat any

$_ZN2DD13hh_v_00000026Ev = comdat any

$_ZN2DD13hh_v_00000027Ev = comdat any

$_ZN2DD13hh_v_00000028Ev = comdat any

$_ZN2DD13ff_v_00000000Ev = comdat any

$_ZN2DD13ff_v_00000001Ev = comdat any

$_ZN2DD13ff_v_00000002Ev = comdat any

$_ZN2DD13ff_v_00000003Ev = comdat any

$_ZN2DD13ff_v_00000004Ev = comdat any

$_ZN2DD13ff_v_00000005Ev = comdat any

$_ZN2DD13ff_v_00000006Ev = comdat any

$_ZN2DD13ff_v_00000007Ev = comdat any

$_ZN2DD13ff_v_00000008Ev = comdat any

$_ZN2DD13ff_v_00000009Ev = comdat any

$_ZN2DD13ff_v_00000010Ev = comdat any

$_ZN2DD13ff_v_00000011Ev = comdat any

$_ZN2DD13ff_v_00000012Ev = comdat any

$_ZN2DD13ff_v_00000013Ev = comdat any

$_ZN2DD13ff_v_00000014Ev = comdat any

$_ZN2DD13ff_v_00000015Ev = comdat any

$_ZN2DD13ff_v_00000016Ev = comdat any

$_ZN2DD13ff_v_00000017Ev = comdat any

$_ZN2DD13ff_v_00000018Ev = comdat any

$_ZN2DD13ff_v_00000019Ev = comdat any

$_ZN2DD13ff_v_00000020Ev = comdat any

$_ZN2DD13ff_v_00000021Ev = comdat any

$_ZN2DD13ff_v_00000022Ev = comdat any

$_ZN2DD13ff_v_00000023Ev = comdat any

$_ZN2DD13ff_v_00000024Ev = comdat any

$_ZN2DD13ff_v_00000025Ev = comdat any

$_ZN2DD13ff_v_00000026Ev = comdat any

$_ZN2DD13ff_v_00000027Ev = comdat any

$_ZN2DD13ff_v_00000028Ev = comdat any

$_ZN2DD13ff_v_00000029Ev = comdat any

$_ZThn16_N2DD13hh_v_00000000Ev = comdat any

$_ZThn16_N2DD13hh_v_00000001Ev = comdat any

$_ZThn16_N2DD13hh_v_00000002Ev = comdat any

$_ZThn16_N2DD13hh_v_00000003Ev = comdat any

$_ZThn16_N2DD13hh_v_00000004Ev = comdat any

$_ZThn16_N2DD13hh_v_00000005Ev = comdat any

$_ZThn16_N2DD13hh_v_00000006Ev = comdat any

$_ZThn16_N2DD13hh_v_00000007Ev = comdat any

$_ZThn16_N2DD13hh_v_00000008Ev = comdat any

$_ZThn16_N2DD13hh_v_00000009Ev = comdat any

$_ZThn16_N2DD13hh_v_00000010Ev = comdat any

$_ZThn16_N2DD13hh_v_00000011Ev = comdat any

$_ZThn16_N2DD13hh_v_00000012Ev = comdat any

$_ZThn16_N2DD13hh_v_00000013Ev = comdat any

$_ZThn16_N2DD13hh_v_00000014Ev = comdat any

$_ZThn16_N2DD13hh_v_00000015Ev = comdat any

$_ZThn16_N2DD13hh_v_00000016Ev = comdat any

$_ZThn16_N2DD13hh_v_00000017Ev = comdat any

$_ZThn16_N2DD13hh_v_00000018Ev = comdat any

$_ZThn16_N2DD13hh_v_00000019Ev = comdat any

$_ZThn16_N2DD13hh_v_00000020Ev = comdat any

$_ZThn16_N2DD13hh_v_00000021Ev = comdat any

$_ZThn16_N2DD13hh_v_00000022Ev = comdat any

$_ZThn16_N2DD13hh_v_00000023Ev = comdat any

$_ZThn16_N2DD13hh_v_00000024Ev = comdat any

$_ZThn16_N2DD13hh_v_00000025Ev = comdat any

$_ZThn16_N2DD13hh_v_00000026Ev = comdat any

$_ZThn16_N2DD13hh_v_00000027Ev = comdat any

$_ZThn16_N2DD13hh_v_00000028Ev = comdat any

$_ZN2CC13hh_v_00000029Ev = comdat any

$_ZN2CC13hh_v_00000000Ev = comdat any

$_ZN2CC13hh_v_00000001Ev = comdat any

$_ZN2CC13hh_v_00000002Ev = comdat any

$_ZN2CC13hh_v_00000003Ev = comdat any

$_ZN2CC13hh_v_00000004Ev = comdat any

$_ZN2CC13hh_v_00000005Ev = comdat any

$_ZN2CC13hh_v_00000006Ev = comdat any

$_ZN2CC13hh_v_00000007Ev = comdat any

$_ZN2CC13hh_v_00000008Ev = comdat any

$_ZN2CC13hh_v_00000009Ev = comdat any

$_ZN2CC13hh_v_00000010Ev = comdat any

$_ZN2CC13hh_v_00000011Ev = comdat any

$_ZN2CC13hh_v_00000012Ev = comdat any

$_ZN2CC13hh_v_00000013Ev = comdat any

$_ZN2CC13hh_v_00000014Ev = comdat any

$_ZN2CC13hh_v_00000015Ev = comdat any

$_ZN2CC13hh_v_00000016Ev = comdat any

$_ZN2CC13hh_v_00000017Ev = comdat any

$_ZN2CC13hh_v_00000018Ev = comdat any

$_ZN2CC13hh_v_00000019Ev = comdat any

$_ZN2CC13hh_v_00000020Ev = comdat any

$_ZN2CC13hh_v_00000021Ev = comdat any

$_ZN2CC13hh_v_00000022Ev = comdat any

$_ZN2CC13hh_v_00000023Ev = comdat any

$_ZN2CC13hh_v_00000024Ev = comdat any

$_ZN2CC13hh_v_00000025Ev = comdat any

$_ZN2CC13hh_v_00000026Ev = comdat any

$_ZN2CC13hh_v_00000027Ev = comdat any

$_ZN2CC13hh_v_00000028Ev = comdat any

$_ZN2BB13gg_v_00000000Ev = comdat any

$_ZN2BB13gg_v_00000001Ev = comdat any

$_ZN2BB13gg_v_00000002Ev = comdat any

$_ZN2BB13gg_v_00000003Ev = comdat any

$_ZN2BB13gg_v_00000004Ev = comdat any

$_ZTV2DD = comdat any

$_ZTS2DD = comdat any

$_ZTS2BB = comdat any

$_ZTI2BB = comdat any

$_ZTS2CC = comdat any

$_ZTI2CC = comdat any

$_ZTI2DD = comdat any

$_ZTV2BB = comdat any

$_ZTV2CC = comdat any

@_ZTV2DD = linkonce_odr dso_local unnamed_addr constant { [91 x i8*], [32 x i8*] } { [91 x i8*] [i8* null, i8* bitcast ({ i8*, i8*, i32, i32, i8*, i64, i8*, i64 }* @_ZTI2DD to i8*), i8* bitcast (void (%class.DD*)* @_ZN2DD13gg_v_00000000Ev to i8*), i8* bitcast (void (%class.DD*)* @_ZN2DD13gg_v_00000001Ev to i8*), i8* bitcast (void (%class.DD*)* @_ZN2DD13gg_v_00000002Ev to i8*), i8* bitcast (void (%class.DD*)* @_ZN2DD13gg_v_00000003Ev to i8*), i8* bitcast (void (%class.DD*)* @_ZN2DD13gg_v_00000004Ev to i8*), i8* bitcast (void (%class.BB*)* @_ZN2BB13gg_v_00000005Ev to i8*), i8* bitcast (void (%class.BB*)* @_ZN2BB13gg_v_00000006Ev to i8*), i8* bitcast (void (%class.BB*)* @_ZN2BB13gg_v_00000007Ev to i8*), i8* bitcast (void (%class.BB*)* @_ZN2BB13gg_v_00000008Ev to i8*), i8* bitcast (void (%class.BB*)* @_ZN2BB13gg_v_00000009Ev to i8*), i8* bitcast (void (%class.BB*)* @_ZN2BB13gg_v_00000010Ev to i8*), i8* bitcast (void (%class.BB*)* @_ZN2BB13gg_v_00000011Ev to i8*), i8* bitcast (void (%class.BB*)* @_ZN2BB13gg_v_00000012Ev to i8*), i8* bitcast (void (%class.BB*)* @_ZN2BB13gg_v_00000013Ev to i8*), i8* bitcast (void (%class.BB*)* @_ZN2BB13gg_v_00000014Ev to i8*), i8* bitcast (void (%class.BB*)* @_ZN2BB13gg_v_00000015Ev to i8*), i8* bitcast (void (%class.BB*)* @_ZN2BB13gg_v_00000016Ev to i8*), i8* bitcast (void (%class.BB*)* @_ZN2BB13gg_v_00000017Ev to i8*), i8* bitcast (void (%class.BB*)* @_ZN2BB13gg_v_00000018Ev to i8*), i8* bitcast (void (%class.BB*)* @_ZN2BB13gg_v_00000019Ev to i8*), i8* bitcast (void (%class.BB*)* @_ZN2BB13gg_v_00000020Ev to i8*), i8* bitcast (void (%class.BB*)* @_ZN2BB13gg_v_00000021Ev to i8*), i8* bitcast (void (%class.BB*)* @_ZN2BB13gg_v_00000022Ev to i8*), i8* bitcast (void (%class.BB*)* @_ZN2BB13gg_v_00000023Ev to i8*), i8* bitcast (void (%class.BB*)* @_ZN2BB13gg_v_00000024Ev to i8*), i8* bitcast (void (%class.BB*)* @_ZN2BB13gg_v_00000025Ev to i8*), i8* bitcast (void (%class.BB*)* @_ZN2BB13gg_v_00000026Ev to i8*), i8* bitcast (void (%class.BB*)* @_ZN2BB13gg_v_00000027Ev to i8*), i8* bitcast (void (%class.BB*)* @_ZN2BB13gg_v_00000028Ev to i8*), i8* bitcast (void (%class.BB*)* @_ZN2BB13gg_v_00000029Ev to i8*), i8* bitcast (void (%class.DD*)* @_ZN2DD13hh_v_00000000Ev to i8*), i8* bitcast (void (%class.DD*)* @_ZN2DD13hh_v_00000001Ev to i8*), i8* bitcast (void (%class.DD*)* @_ZN2DD13hh_v_00000002Ev to i8*), i8* bitcast (void (%class.DD*)* @_ZN2DD13hh_v_00000003Ev to i8*), i8* bitcast (void (%class.DD*)* @_ZN2DD13hh_v_00000004Ev to i8*), i8* bitcast (void (%class.DD*)* @_ZN2DD13hh_v_00000005Ev to i8*), i8* bitcast (void (%class.DD*)* @_ZN2DD13hh_v_00000006Ev to i8*), i8* bitcast (void (%class.DD*)* @_ZN2DD13hh_v_00000007Ev to i8*), i8* bitcast (void (%class.DD*)* @_ZN2DD13hh_v_00000008Ev to i8*), i8* bitcast (void (%class.DD*)* @_ZN2DD13hh_v_00000009Ev to i8*), i8* bitcast (void (%class.DD*)* @_ZN2DD13hh_v_00000010Ev to i8*), i8* bitcast (void (%class.DD*)* @_ZN2DD13hh_v_00000011Ev to i8*), i8* bitcast (void (%class.DD*)* @_ZN2DD13hh_v_00000012Ev to i8*), i8* bitcast (void (%class.DD*)* @_ZN2DD13hh_v_00000013Ev to i8*), i8* bitcast (void (%class.DD*)* @_ZN2DD13hh_v_00000014Ev to i8*), i8* bitcast (void (%class.DD*)* @_ZN2DD13hh_v_00000015Ev to i8*), i8* bitcast (void (%class.DD*)* @_ZN2DD13hh_v_00000016Ev to i8*), i8* bitcast (void (%class.DD*)* @_ZN2DD13hh_v_00000017Ev to i8*), i8* bitcast (void (%class.DD*)* @_ZN2DD13hh_v_00000018Ev to i8*), i8* bitcast (void (%class.DD*)* @_ZN2DD13hh_v_00000019Ev to i8*), i8* bitcast (void (%class.DD*)* @_ZN2DD13hh_v_00000020Ev to i8*), i8* bitcast (void (%class.DD*)* @_ZN2DD13hh_v_00000021Ev to i8*), i8* bitcast (void (%class.DD*)* @_ZN2DD13hh_v_00000022Ev to i8*), i8* bitcast (void (%class.DD*)* @_ZN2DD13hh_v_00000023Ev to i8*), i8* bitcast (void (%class.DD*)* @_ZN2DD13hh_v_00000024Ev to i8*), i8* bitcast (void (%class.DD*)* @_ZN2DD13hh_v_00000025Ev to i8*), i8* bitcast (void (%class.DD*)* @_ZN2DD13hh_v_00000026Ev to i8*), i8* bitcast (void (%class.DD*)* @_ZN2DD13hh_v_00000027Ev to i8*), i8* bitcast (void (%class.DD*)* @_ZN2DD13hh_v_00000028Ev to i8*), i8* bitcast (void (%class.DD*)* @_ZN2DD13ff_v_00000000Ev to i8*), i8* bitcast (void (%class.DD*)* @_ZN2DD13ff_v_00000001Ev to i8*), i8* bitcast (void (%class.DD*)* @_ZN2DD13ff_v_00000002Ev to i8*), i8* bitcast (void (%class.DD*)* @_ZN2DD13ff_v_00000003Ev to i8*), i8* bitcast (void (%class.DD*)* @_ZN2DD13ff_v_00000004Ev to i8*), i8* bitcast (void (%class.DD*)* @_ZN2DD13ff_v_00000005Ev to i8*), i8* bitcast (void (%class.DD*)* @_ZN2DD13ff_v_00000006Ev to i8*), i8* bitcast (void (%class.DD*)* @_ZN2DD13ff_v_00000007Ev to i8*), i8* bitcast (void (%class.DD*)* @_ZN2DD13ff_v_00000008Ev to i8*), i8* bitcast (void (%class.DD*)* @_ZN2DD13ff_v_00000009Ev to i8*), i8* bitcast (void (%class.DD*)* @_ZN2DD13ff_v_00000010Ev to i8*), i8* bitcast (void (%class.DD*)* @_ZN2DD13ff_v_00000011Ev to i8*), i8* bitcast (void (%class.DD*)* @_ZN2DD13ff_v_00000012Ev to i8*), i8* bitcast (void (%class.DD*)* @_ZN2DD13ff_v_00000013Ev to i8*), i8* bitcast (void (%class.DD*)* @_ZN2DD13ff_v_00000014Ev to i8*), i8* bitcast (void (%class.DD*)* @_ZN2DD13ff_v_00000015Ev to i8*), i8* bitcast (void (%class.DD*)* @_ZN2DD13ff_v_00000016Ev to i8*), i8* bitcast (void (%class.DD*)* @_ZN2DD13ff_v_00000017Ev to i8*), i8* bitcast (void (%class.DD*)* @_ZN2DD13ff_v_00000018Ev to i8*), i8* bitcast (void (%class.DD*)* @_ZN2DD13ff_v_00000019Ev to i8*), i8* bitcast (void (%class.DD*)* @_ZN2DD13ff_v_00000020Ev to i8*), i8* bitcast (void (%class.DD*)* @_ZN2DD13ff_v_00000021Ev to i8*), i8* bitcast (void (%class.DD*)* @_ZN2DD13ff_v_00000022Ev to i8*), i8* bitcast (void (%class.DD*)* @_ZN2DD13ff_v_00000023Ev to i8*), i8* bitcast (void (%class.DD*)* @_ZN2DD13ff_v_00000024Ev to i8*), i8* bitcast (void (%class.DD*)* @_ZN2DD13ff_v_00000025Ev to i8*), i8* bitcast (void (%class.DD*)* @_ZN2DD13ff_v_00000026Ev to i8*), i8* bitcast (void (%class.DD*)* @_ZN2DD13ff_v_00000027Ev to i8*), i8* bitcast (void (%class.DD*)* @_ZN2DD13ff_v_00000028Ev to i8*), i8* bitcast (void (%class.DD*)* @_ZN2DD13ff_v_00000029Ev to i8*)], [32 x i8*] [i8* inttoptr (i64 -16 to i8*), i8* bitcast ({ i8*, i8*, i32, i32, i8*, i64, i8*, i64 }* @_ZTI2DD to i8*), i8* bitcast (void (%class.DD*)* @_ZThn16_N2DD13hh_v_00000000Ev to i8*), i8* bitcast (void (%class.DD*)* @_ZThn16_N2DD13hh_v_00000001Ev to i8*), i8* bitcast (void (%class.DD*)* @_ZThn16_N2DD13hh_v_00000002Ev to i8*), i8* bitcast (void (%class.DD*)* @_ZThn16_N2DD13hh_v_00000003Ev to i8*), i8* bitcast (void (%class.DD*)* @_ZThn16_N2DD13hh_v_00000004Ev to i8*), i8* bitcast (void (%class.DD*)* @_ZThn16_N2DD13hh_v_00000005Ev to i8*), i8* bitcast (void (%class.DD*)* @_ZThn16_N2DD13hh_v_00000006Ev to i8*), i8* bitcast (void (%class.DD*)* @_ZThn16_N2DD13hh_v_00000007Ev to i8*), i8* bitcast (void (%class.DD*)* @_ZThn16_N2DD13hh_v_00000008Ev to i8*), i8* bitcast (void (%class.DD*)* @_ZThn16_N2DD13hh_v_00000009Ev to i8*), i8* bitcast (void (%class.DD*)* @_ZThn16_N2DD13hh_v_00000010Ev to i8*), i8* bitcast (void (%class.DD*)* @_ZThn16_N2DD13hh_v_00000011Ev to i8*), i8* bitcast (void (%class.DD*)* @_ZThn16_N2DD13hh_v_00000012Ev to i8*), i8* bitcast (void (%class.DD*)* @_ZThn16_N2DD13hh_v_00000013Ev to i8*), i8* bitcast (void (%class.DD*)* @_ZThn16_N2DD13hh_v_00000014Ev to i8*), i8* bitcast (void (%class.DD*)* @_ZThn16_N2DD13hh_v_00000015Ev to i8*), i8* bitcast (void (%class.DD*)* @_ZThn16_N2DD13hh_v_00000016Ev to i8*), i8* bitcast (void (%class.DD*)* @_ZThn16_N2DD13hh_v_00000017Ev to i8*), i8* bitcast (void (%class.DD*)* @_ZThn16_N2DD13hh_v_00000018Ev to i8*), i8* bitcast (void (%class.DD*)* @_ZThn16_N2DD13hh_v_00000019Ev to i8*), i8* bitcast (void (%class.DD*)* @_ZThn16_N2DD13hh_v_00000020Ev to i8*), i8* bitcast (void (%class.DD*)* @_ZThn16_N2DD13hh_v_00000021Ev to i8*), i8* bitcast (void (%class.DD*)* @_ZThn16_N2DD13hh_v_00000022Ev to i8*), i8* bitcast (void (%class.DD*)* @_ZThn16_N2DD13hh_v_00000023Ev to i8*), i8* bitcast (void (%class.DD*)* @_ZThn16_N2DD13hh_v_00000024Ev to i8*), i8* bitcast (void (%class.DD*)* @_ZThn16_N2DD13hh_v_00000025Ev to i8*), i8* bitcast (void (%class.DD*)* @_ZThn16_N2DD13hh_v_00000026Ev to i8*), i8* bitcast (void (%class.DD*)* @_ZThn16_N2DD13hh_v_00000027Ev to i8*), i8* bitcast (void (%class.DD*)* @_ZThn16_N2DD13hh_v_00000028Ev to i8*), i8* bitcast (void (%class.CC*)* @_ZN2CC13hh_v_00000029Ev to i8*)] }, comdat, align 8
@_ZTVN10__cxxabiv121__vmi_class_type_infoE = external dso_local global i8*
@_ZTS2DD = linkonce_odr dso_local constant [4 x i8] c"2DD\00", comdat, align 1
@_ZTVN10__cxxabiv117__class_type_infoE = external dso_local global i8*
@_ZTS2BB = linkonce_odr dso_local constant [4 x i8] c"2BB\00", comdat, align 1
@_ZTI2BB = linkonce_odr dso_local constant { i8*, i8* } { i8* bitcast (i8** getelementptr inbounds (i8*, i8** @_ZTVN10__cxxabiv117__class_type_infoE, i64 2) to i8*), i8* getelementptr inbounds ([4 x i8], [4 x i8]* @_ZTS2BB, i32 0, i32 0) }, comdat, align 8
@_ZTS2CC = linkonce_odr dso_local constant [4 x i8] c"2CC\00", comdat, align 1
@_ZTI2CC = linkonce_odr dso_local constant { i8*, i8* } { i8* bitcast (i8** getelementptr inbounds (i8*, i8** @_ZTVN10__cxxabiv117__class_type_infoE, i64 2) to i8*), i8* getelementptr inbounds ([4 x i8], [4 x i8]* @_ZTS2CC, i32 0, i32 0) }, comdat, align 8
@_ZTI2DD = linkonce_odr dso_local constant { i8*, i8*, i32, i32, i8*, i64, i8*, i64 } { i8* bitcast (i8** getelementptr inbounds (i8*, i8** @_ZTVN10__cxxabiv121__vmi_class_type_infoE, i64 2) to i8*), i8* getelementptr inbounds ([4 x i8], [4 x i8]* @_ZTS2DD, i32 0, i32 0), i32 0, i32 2, i8* bitcast ({ i8*, i8* }* @_ZTI2BB to i8*), i64 2, i8* bitcast ({ i8*, i8* }* @_ZTI2CC to i8*), i64 4098 }, comdat, align 8
@_ZTV2BB = linkonce_odr dso_local unnamed_addr constant { [32 x i8*] } { [32 x i8*] [i8* null, i8* bitcast ({ i8*, i8* }* @_ZTI2BB to i8*), i8* bitcast (void (%class.BB*)* @_ZN2BB13gg_v_00000000Ev to i8*), i8* bitcast (void (%class.BB*)* @_ZN2BB13gg_v_00000001Ev to i8*), i8* bitcast (void (%class.BB*)* @_ZN2BB13gg_v_00000002Ev to i8*), i8* bitcast (void (%class.BB*)* @_ZN2BB13gg_v_00000003Ev to i8*), i8* bitcast (void (%class.BB*)* @_ZN2BB13gg_v_00000004Ev to i8*), i8* bitcast (void (%class.BB*)* @_ZN2BB13gg_v_00000005Ev to i8*), i8* bitcast (void (%class.BB*)* @_ZN2BB13gg_v_00000006Ev to i8*), i8* bitcast (void (%class.BB*)* @_ZN2BB13gg_v_00000007Ev to i8*), i8* bitcast (void (%class.BB*)* @_ZN2BB13gg_v_00000008Ev to i8*), i8* bitcast (void (%class.BB*)* @_ZN2BB13gg_v_00000009Ev to i8*), i8* bitcast (void (%class.BB*)* @_ZN2BB13gg_v_00000010Ev to i8*), i8* bitcast (void (%class.BB*)* @_ZN2BB13gg_v_00000011Ev to i8*), i8* bitcast (void (%class.BB*)* @_ZN2BB13gg_v_00000012Ev to i8*), i8* bitcast (void (%class.BB*)* @_ZN2BB13gg_v_00000013Ev to i8*), i8* bitcast (void (%class.BB*)* @_ZN2BB13gg_v_00000014Ev to i8*), i8* bitcast (void (%class.BB*)* @_ZN2BB13gg_v_00000015Ev to i8*), i8* bitcast (void (%class.BB*)* @_ZN2BB13gg_v_00000016Ev to i8*), i8* bitcast (void (%class.BB*)* @_ZN2BB13gg_v_00000017Ev to i8*), i8* bitcast (void (%class.BB*)* @_ZN2BB13gg_v_00000018Ev to i8*), i8* bitcast (void (%class.BB*)* @_ZN2BB13gg_v_00000019Ev to i8*), i8* bitcast (void (%class.BB*)* @_ZN2BB13gg_v_00000020Ev to i8*), i8* bitcast (void (%class.BB*)* @_ZN2BB13gg_v_00000021Ev to i8*), i8* bitcast (void (%class.BB*)* @_ZN2BB13gg_v_00000022Ev to i8*), i8* bitcast (void (%class.BB*)* @_ZN2BB13gg_v_00000023Ev to i8*), i8* bitcast (void (%class.BB*)* @_ZN2BB13gg_v_00000024Ev to i8*), i8* bitcast (void (%class.BB*)* @_ZN2BB13gg_v_00000025Ev to i8*), i8* bitcast (void (%class.BB*)* @_ZN2BB13gg_v_00000026Ev to i8*), i8* bitcast (void (%class.BB*)* @_ZN2BB13gg_v_00000027Ev to i8*), i8* bitcast (void (%class.BB*)* @_ZN2BB13gg_v_00000028Ev to i8*), i8* bitcast (void (%class.BB*)* @_ZN2BB13gg_v_00000029Ev to i8*)] }, comdat, align 8
@_ZTV2CC = linkonce_odr dso_local unnamed_addr constant { [32 x i8*] } { [32 x i8*] [i8* null, i8* bitcast ({ i8*, i8* }* @_ZTI2CC to i8*), i8* bitcast (void (%class.CC*)* @_ZN2CC13hh_v_00000000Ev to i8*), i8* bitcast (void (%class.CC*)* @_ZN2CC13hh_v_00000001Ev to i8*), i8* bitcast (void (%class.CC*)* @_ZN2CC13hh_v_00000002Ev to i8*), i8* bitcast (void (%class.CC*)* @_ZN2CC13hh_v_00000003Ev to i8*), i8* bitcast (void (%class.CC*)* @_ZN2CC13hh_v_00000004Ev to i8*), i8* bitcast (void (%class.CC*)* @_ZN2CC13hh_v_00000005Ev to i8*), i8* bitcast (void (%class.CC*)* @_ZN2CC13hh_v_00000006Ev to i8*), i8* bitcast (void (%class.CC*)* @_ZN2CC13hh_v_00000007Ev to i8*), i8* bitcast (void (%class.CC*)* @_ZN2CC13hh_v_00000008Ev to i8*), i8* bitcast (void (%class.CC*)* @_ZN2CC13hh_v_00000009Ev to i8*), i8* bitcast (void (%class.CC*)* @_ZN2CC13hh_v_00000010Ev to i8*), i8* bitcast (void (%class.CC*)* @_ZN2CC13hh_v_00000011Ev to i8*), i8* bitcast (void (%class.CC*)* @_ZN2CC13hh_v_00000012Ev to i8*), i8* bitcast (void (%class.CC*)* @_ZN2CC13hh_v_00000013Ev to i8*), i8* bitcast (void (%class.CC*)* @_ZN2CC13hh_v_00000014Ev to i8*), i8* bitcast (void (%class.CC*)* @_ZN2CC13hh_v_00000015Ev to i8*), i8* bitcast (void (%class.CC*)* @_ZN2CC13hh_v_00000016Ev to i8*), i8* bitcast (void (%class.CC*)* @_ZN2CC13hh_v_00000017Ev to i8*), i8* bitcast (void (%class.CC*)* @_ZN2CC13hh_v_00000018Ev to i8*), i8* bitcast (void (%class.CC*)* @_ZN2CC13hh_v_00000019Ev to i8*), i8* bitcast (void (%class.CC*)* @_ZN2CC13hh_v_00000020Ev to i8*), i8* bitcast (void (%class.CC*)* @_ZN2CC13hh_v_00000021Ev to i8*), i8* bitcast (void (%class.CC*)* @_ZN2CC13hh_v_00000022Ev to i8*), i8* bitcast (void (%class.CC*)* @_ZN2CC13hh_v_00000023Ev to i8*), i8* bitcast (void (%class.CC*)* @_ZN2CC13hh_v_00000024Ev to i8*), i8* bitcast (void (%class.CC*)* @_ZN2CC13hh_v_00000025Ev to i8*), i8* bitcast (void (%class.CC*)* @_ZN2CC13hh_v_00000026Ev to i8*), i8* bitcast (void (%class.CC*)* @_ZN2CC13hh_v_00000027Ev to i8*), i8* bitcast (void (%class.CC*)* @_ZN2CC13hh_v_00000028Ev to i8*), i8* bitcast (void (%class.CC*)* @_ZN2CC13hh_v_00000029Ev to i8*)] }, comdat, align 8

; Function Attrs: mustprogress noinline uwtable
define dso_local void @_Z4testP2DDMS_FvvE(%class.DD* noundef %dptr, i64 %mfptr.coerce0, i64 %mfptr.coerce1) #0 !dbg !166 {
entry:
  %mfptr = alloca { i64, i64 }, align 8
  %0 = getelementptr inbounds { i64, i64 }, { i64, i64 }* %mfptr, i32 0, i32 0
  store i64 %mfptr.coerce0, i64* %0, align 8
  %1 = getelementptr inbounds { i64, i64 }, { i64, i64 }* %mfptr, i32 0, i32 1
  store i64 %mfptr.coerce1, i64* %1, align 8
  %TIPS_gep_00 = getelementptr { i64, i64 }, { i64, i64 }* %mfptr, i32 0, i32 0
  %TIPS_load_00 = load i64, i64* %TIPS_gep_00, align 8
  %TIPS_gep_01 = getelementptr { i64, i64 }, { i64, i64 }* %mfptr, i32 0, i32 1
  %TIPS_load_01 = load i64, i64* %TIPS_gep_01, align 8
  %mfptr1 = load { i64, i64 }, { i64, i64 }* %mfptr, align 8
  call void @llvm.dbg.value(metadata %class.DD* %dptr, metadata !173, metadata !DIExpression()), !dbg !174
  call void @llvm.dbg.value(metadata { i64, i64 } %mfptr1, metadata !175, metadata !DIExpression()), !dbg !174
  %memptr.adj = extractvalue { i64, i64 } %mfptr1, 1, !dbg !176
  %2 = bitcast %class.DD* %dptr to i8*, !dbg !176
  %3 = getelementptr inbounds i8, i8* %2, i64 %TIPS_load_01, !dbg !176
  %this.adjusted = bitcast i8* %3 to %class.DD*, !dbg !176
  %memptr.ptr = extractvalue { i64, i64 } %mfptr1, 0, !dbg !176
  %4 = and i64 %TIPS_load_00, 1, !dbg !176
  %memptr.isvirtual = icmp ne i64 %4, 0, !dbg !176
  br i1 %memptr.isvirtual, label %memptr.virtual, label %memptr.nonvirtual, !dbg !176

memptr.virtual:                                   ; preds = %entry
  %5 = bitcast %class.DD* %this.adjusted to i8**, !dbg !176
  %vtable = load i8*, i8** %5, align 8, !dbg !176
  %6 = sub i64 %TIPS_load_00, 1, !dbg !176
  %7 = getelementptr i8, i8* %vtable, i64 %6, !dbg !176, !nosanitize !172
  %8 = bitcast i8* %7 to void (%class.DD*)**, !dbg !176, !nosanitize !172
  %memptr.virtualfn = load void (%class.DD*)*, void (%class.DD*)** %8, align 8, !dbg !176, !nosanitize !172
  br label %memptr.end, !dbg !176

memptr.nonvirtual:                                ; preds = %entry
  %memptr.nonvirtualfn = inttoptr i64 %TIPS_load_00 to void (%class.DD*)*, !dbg !176
  br label %memptr.end, !dbg !176

memptr.end:                                       ; preds = %memptr.nonvirtual, %memptr.virtual
  %9 = phi void (%class.DD*)* [ %memptr.virtualfn, %memptr.virtual ], [ %memptr.nonvirtualfn, %memptr.nonvirtual ], !dbg !176
  call void %9(%class.DD* noundef nonnull align 8 dereferenceable(40) %this.adjusted) #6, !dbg !176
  ret void, !dbg !177
}

; Function Attrs: nofree nosync nounwind readnone speculatable willreturn
declare void @llvm.dbg.declare(metadata, metadata, metadata) #1

; Function Attrs: mustprogress noinline norecurse uwtable
define dso_local noundef i32 @main() #2 !dbg !178 {
entry:
  %dobj = alloca %class.DD, align 8
  %coerce = alloca { i64, i64 }, align 8
  %coerce1 = alloca { i64, i64 }, align 8
  %coerce2 = alloca { i64, i64 }, align 8
  %coerce3 = alloca { i64, i64 }, align 8
  %coerce4 = alloca { i64, i64 }, align 8
  %coerce5 = alloca { i64, i64 }, align 8
  %coerce6 = alloca { i64, i64 }, align 8
  %coerce7 = alloca { i64, i64 }, align 8
  call void @llvm.dbg.declare(metadata %class.DD* %dobj, metadata !179, metadata !DIExpression()), !dbg !180
  call void @_ZN2DDC2Ev(%class.DD* noundef nonnull align 8 dereferenceable(40) %dobj) #7, !dbg !180
  %TIPS_gep_00 = getelementptr { i64, i64 }, { i64, i64 }* %coerce, i32 0, i32 0
  %TIPS_gep_01 = getelementptr { i64, i64 }, { i64, i64 }* %coerce, i32 0, i32 1
  store i64 473, i64* %TIPS_gep_00, align 8
  store i64 0, i64* %TIPS_gep_01, align 8
  store { i64, i64 } { i64 473, i64 0 }, { i64, i64 }* %coerce, align 8, !dbg !181
  %0 = getelementptr inbounds { i64, i64 }, { i64, i64 }* %coerce, i32 0, i32 0, !dbg !181
  %1 = load i64, i64* %0, align 8, !dbg !181
  %2 = getelementptr inbounds { i64, i64 }, { i64, i64 }* %coerce, i32 0, i32 1, !dbg !181
  %3 = load i64, i64* %2, align 8, !dbg !181
  call void @_Z4testP2DDMS_FvvE(%class.DD* noundef %dobj, i64 %1, i64 %3) #6, !dbg !181
  %TIPS_gep_001 = getelementptr { i64, i64 }, { i64, i64 }* %coerce1, i32 0, i32 0
  %TIPS_gep_012 = getelementptr { i64, i64 }, { i64, i64 }* %coerce1, i32 0, i32 1
  store i64 481, i64* %TIPS_gep_001, align 8
  store i64 0, i64* %TIPS_gep_012, align 8
  store { i64, i64 } { i64 481, i64 0 }, { i64, i64 }* %coerce1, align 8, !dbg !182
  %4 = getelementptr inbounds { i64, i64 }, { i64, i64 }* %coerce1, i32 0, i32 0, !dbg !182
  %5 = load i64, i64* %4, align 8, !dbg !182
  %6 = getelementptr inbounds { i64, i64 }, { i64, i64 }* %coerce1, i32 0, i32 1, !dbg !182
  %7 = load i64, i64* %6, align 8, !dbg !182
  call void @_Z4testP2DDMS_FvvE(%class.DD* noundef %dobj, i64 %5, i64 %7) #6, !dbg !182
  %TIPS_gep_003 = getelementptr { i64, i64 }, { i64, i64 }* %coerce2, i32 0, i32 0
  %TIPS_gep_014 = getelementptr { i64, i64 }, { i64, i64 }* %coerce2, i32 0, i32 1
  store i64 489, i64* %TIPS_gep_003, align 8
  store i64 0, i64* %TIPS_gep_014, align 8
  store { i64, i64 } { i64 489, i64 0 }, { i64, i64 }* %coerce2, align 8, !dbg !183
  %8 = getelementptr inbounds { i64, i64 }, { i64, i64 }* %coerce2, i32 0, i32 0, !dbg !183
  %9 = load i64, i64* %8, align 8, !dbg !183
  %10 = getelementptr inbounds { i64, i64 }, { i64, i64 }* %coerce2, i32 0, i32 1, !dbg !183
  %11 = load i64, i64* %10, align 8, !dbg !183
  call void @_Z4testP2DDMS_FvvE(%class.DD* noundef %dobj, i64 %9, i64 %11) #6, !dbg !183
  %TIPS_gep_005 = getelementptr { i64, i64 }, { i64, i64 }* %coerce3, i32 0, i32 0
  %TIPS_gep_016 = getelementptr { i64, i64 }, { i64, i64 }* %coerce3, i32 0, i32 1
  store i64 497, i64* %TIPS_gep_005, align 8
  store i64 0, i64* %TIPS_gep_016, align 8
  store { i64, i64 } { i64 497, i64 0 }, { i64, i64 }* %coerce3, align 8, !dbg !184
  %12 = getelementptr inbounds { i64, i64 }, { i64, i64 }* %coerce3, i32 0, i32 0, !dbg !184
  %13 = load i64, i64* %12, align 8, !dbg !184
  %14 = getelementptr inbounds { i64, i64 }, { i64, i64 }* %coerce3, i32 0, i32 1, !dbg !184
  %15 = load i64, i64* %14, align 8, !dbg !184
  call void @_Z4testP2DDMS_FvvE(%class.DD* noundef %dobj, i64 %13, i64 %15) #6, !dbg !184
  %TIPS_gep_007 = getelementptr { i64, i64 }, { i64, i64 }* %coerce4, i32 0, i32 0
  %TIPS_gep_018 = getelementptr { i64, i64 }, { i64, i64 }* %coerce4, i32 0, i32 1
  store i64 505, i64* %TIPS_gep_007, align 8
  store i64 0, i64* %TIPS_gep_018, align 8
  store { i64, i64 } { i64 505, i64 0 }, { i64, i64 }* %coerce4, align 8, !dbg !185
  %16 = getelementptr inbounds { i64, i64 }, { i64, i64 }* %coerce4, i32 0, i32 0, !dbg !185
  %17 = load i64, i64* %16, align 8, !dbg !185
  %18 = getelementptr inbounds { i64, i64 }, { i64, i64 }* %coerce4, i32 0, i32 1, !dbg !185
  %19 = load i64, i64* %18, align 8, !dbg !185
  call void @_Z4testP2DDMS_FvvE(%class.DD* noundef %dobj, i64 %17, i64 %19) #6, !dbg !185
  %TIPS_gep_009 = getelementptr { i64, i64 }, { i64, i64 }* %coerce5, i32 0, i32 0
  %TIPS_gep_0110 = getelementptr { i64, i64 }, { i64, i64 }* %coerce5, i32 0, i32 1
  store i64 513, i64* %TIPS_gep_009, align 8
  store i64 0, i64* %TIPS_gep_0110, align 8
  store { i64, i64 } { i64 513, i64 0 }, { i64, i64 }* %coerce5, align 8, !dbg !186
  %20 = getelementptr inbounds { i64, i64 }, { i64, i64 }* %coerce5, i32 0, i32 0, !dbg !186
  %21 = load i64, i64* %20, align 8, !dbg !186
  %22 = getelementptr inbounds { i64, i64 }, { i64, i64 }* %coerce5, i32 0, i32 1, !dbg !186
  %23 = load i64, i64* %22, align 8, !dbg !186
  call void @_Z4testP2DDMS_FvvE(%class.DD* noundef %dobj, i64 %21, i64 %23) #6, !dbg !186
  %TIPS_gep_0011 = getelementptr { i64, i64 }, { i64, i64 }* %coerce6, i32 0, i32 0
  %TIPS_gep_0112 = getelementptr { i64, i64 }, { i64, i64 }* %coerce6, i32 0, i32 1
  store i64 521, i64* %TIPS_gep_0011, align 8
  store i64 0, i64* %TIPS_gep_0112, align 8
  store { i64, i64 } { i64 521, i64 0 }, { i64, i64 }* %coerce6, align 8, !dbg !187
  %24 = getelementptr inbounds { i64, i64 }, { i64, i64 }* %coerce6, i32 0, i32 0, !dbg !187
  %25 = load i64, i64* %24, align 8, !dbg !187
  %26 = getelementptr inbounds { i64, i64 }, { i64, i64 }* %coerce6, i32 0, i32 1, !dbg !187
  %27 = load i64, i64* %26, align 8, !dbg !187
  call void @_Z4testP2DDMS_FvvE(%class.DD* noundef %dobj, i64 %25, i64 %27) #6, !dbg !187
  %TIPS_gep_0013 = getelementptr { i64, i64 }, { i64, i64 }* %coerce7, i32 0, i32 0
  %TIPS_gep_0114 = getelementptr { i64, i64 }, { i64, i64 }* %coerce7, i32 0, i32 1
  store i64 529, i64* %TIPS_gep_0013, align 8
  store i64 0, i64* %TIPS_gep_0114, align 8
  store { i64, i64 } { i64 529, i64 0 }, { i64, i64 }* %coerce7, align 8, !dbg !188
  %28 = getelementptr inbounds { i64, i64 }, { i64, i64 }* %coerce7, i32 0, i32 0, !dbg !188
  %29 = load i64, i64* %28, align 8, !dbg !188
  %30 = getelementptr inbounds { i64, i64 }, { i64, i64 }* %coerce7, i32 0, i32 1, !dbg !188
  %31 = load i64, i64* %30, align 8, !dbg !188
  call void @_Z4testP2DDMS_FvvE(%class.DD* noundef %dobj, i64 %29, i64 %31) #6, !dbg !188
  ret i32 0, !dbg !189
}

; Function Attrs: noinline nounwind uwtable
define linkonce_odr dso_local void @_ZN2DDC2Ev(%class.DD* noundef nonnull align 8 dereferenceable(40) %this) unnamed_addr #3 comdat align 2 !dbg !190 {
entry:
  call void @llvm.dbg.value(metadata %class.DD* %this, metadata !192, metadata !DIExpression()), !dbg !193
  %0 = bitcast %class.DD* %this to %class.BB*, !dbg !194
  call void @_ZN2BBC2Ev(%class.BB* noundef nonnull align 8 dereferenceable(16) %0) #7, !dbg !194
  %1 = bitcast %class.DD* %this to i8*, !dbg !194
  %2 = getelementptr inbounds i8, i8* %1, i64 16, !dbg !194
  %3 = bitcast i8* %2 to %class.CC*, !dbg !194
  call void @_ZN2CCC2Ev(%class.CC* noundef nonnull align 8 dereferenceable(16) %3) #7, !dbg !194
  %4 = bitcast %class.DD* %this to i32 (...)***, !dbg !194
  %5 = getelementptr inbounds { [91 x i8*], [32 x i8*] }, { [91 x i8*], [32 x i8*] }* @_ZTV2DD, i32 0, i32 0, i32 2
  %6 = bitcast i8** %5 to i32 (...)**
  store i32 (...)** %6, i32 (...)*** %4, align 8, !dbg !194
  %7 = bitcast %class.DD* %this to i8*, !dbg !194
  %add.ptr = getelementptr inbounds i8, i8* %7, i64 16, !dbg !194
  %8 = bitcast i8* %add.ptr to i32 (...)***, !dbg !194
  %9 = getelementptr inbounds { [91 x i8*], [32 x i8*] }, { [91 x i8*], [32 x i8*] }* @_ZTV2DD, i32 0, i32 1, i32 2
  %10 = bitcast i8** %9 to i32 (...)**
  store i32 (...)** %10, i32 (...)*** %8, align 8, !dbg !194
  ret void, !dbg !194
}

; Function Attrs: noinline nounwind uwtable
define linkonce_odr dso_local void @_ZN2BBC2Ev(%class.BB* noundef nonnull align 8 dereferenceable(16) %this) unnamed_addr #3 comdat align 2 !dbg !195 {
entry:
  call void @llvm.dbg.value(metadata %class.BB* %this, metadata !197, metadata !DIExpression()), !dbg !199
  %0 = bitcast %class.BB* %this to i32 (...)***, !dbg !200
  %1 = getelementptr inbounds { [32 x i8*] }, { [32 x i8*] }* @_ZTV2BB, i32 0, i32 0, i32 2
  %2 = bitcast i8** %1 to i32 (...)**
  store i32 (...)** %2, i32 (...)*** %0, align 8, !dbg !200
  ret void, !dbg !200
}

; Function Attrs: noinline nounwind uwtable
define linkonce_odr dso_local void @_ZN2CCC2Ev(%class.CC* noundef nonnull align 8 dereferenceable(16) %this) unnamed_addr #3 comdat align 2 !dbg !201 {
entry:
  call void @llvm.dbg.value(metadata %class.CC* %this, metadata !203, metadata !DIExpression()), !dbg !205
  %0 = bitcast %class.CC* %this to i32 (...)***, !dbg !206
  %1 = getelementptr inbounds { [32 x i8*] }, { [32 x i8*] }* @_ZTV2CC, i32 0, i32 0, i32 2
  %2 = bitcast i8** %1 to i32 (...)**
  store i32 (...)** %2, i32 (...)*** %0, align 8, !dbg !206
  ret void, !dbg !206
}

; Function Attrs: mustprogress noinline nounwind uwtable
define linkonce_odr dso_local void @_ZN2DD13gg_v_00000000Ev(%class.DD* noundef nonnull align 8 dereferenceable(40) %this) unnamed_addr #4 comdat align 2 !dbg !207 {
entry:
  call void @llvm.dbg.value(metadata %class.DD* %this, metadata !208, metadata !DIExpression()), !dbg !209
  ret void, !dbg !210
}

; Function Attrs: mustprogress noinline nounwind uwtable
define linkonce_odr dso_local void @_ZN2DD13gg_v_00000001Ev(%class.DD* noundef nonnull align 8 dereferenceable(40) %this) unnamed_addr #4 comdat align 2 !dbg !211 {
entry:
  call void @llvm.dbg.value(metadata %class.DD* %this, metadata !212, metadata !DIExpression()), !dbg !213
  ret void, !dbg !214
}

; Function Attrs: mustprogress noinline nounwind uwtable
define linkonce_odr dso_local void @_ZN2DD13gg_v_00000002Ev(%class.DD* noundef nonnull align 8 dereferenceable(40) %this) unnamed_addr #4 comdat align 2 !dbg !215 {
entry:
  call void @llvm.dbg.value(metadata %class.DD* %this, metadata !216, metadata !DIExpression()), !dbg !217
  ret void, !dbg !218
}

; Function Attrs: mustprogress noinline nounwind uwtable
define linkonce_odr dso_local void @_ZN2DD13gg_v_00000003Ev(%class.DD* noundef nonnull align 8 dereferenceable(40) %this) unnamed_addr #4 comdat align 2 !dbg !219 {
entry:
  call void @llvm.dbg.value(metadata %class.DD* %this, metadata !220, metadata !DIExpression()), !dbg !221
  ret void, !dbg !222
}

; Function Attrs: mustprogress noinline nounwind uwtable
define linkonce_odr dso_local void @_ZN2DD13gg_v_00000004Ev(%class.DD* noundef nonnull align 8 dereferenceable(40) %this) unnamed_addr #4 comdat align 2 !dbg !223 {
entry:
  call void @llvm.dbg.value(metadata %class.DD* %this, metadata !224, metadata !DIExpression()), !dbg !225
  ret void, !dbg !226
}

; Function Attrs: mustprogress noinline nounwind uwtable
define linkonce_odr dso_local void @_ZN2BB13gg_v_00000005Ev(%class.BB* noundef nonnull align 8 dereferenceable(16) %this) unnamed_addr #4 comdat align 2 !dbg !227 {
entry:
  call void @llvm.dbg.value(metadata %class.BB* %this, metadata !228, metadata !DIExpression()), !dbg !229
  ret void, !dbg !230
}

; Function Attrs: mustprogress noinline nounwind uwtable
define linkonce_odr dso_local void @_ZN2BB13gg_v_00000006Ev(%class.BB* noundef nonnull align 8 dereferenceable(16) %this) unnamed_addr #4 comdat align 2 !dbg !231 {
entry:
  call void @llvm.dbg.value(metadata %class.BB* %this, metadata !232, metadata !DIExpression()), !dbg !233
  ret void, !dbg !234
}

; Function Attrs: mustprogress noinline nounwind uwtable
define linkonce_odr dso_local void @_ZN2BB13gg_v_00000007Ev(%class.BB* noundef nonnull align 8 dereferenceable(16) %this) unnamed_addr #4 comdat align 2 !dbg !235 {
entry:
  call void @llvm.dbg.value(metadata %class.BB* %this, metadata !236, metadata !DIExpression()), !dbg !237
  ret void, !dbg !238
}

; Function Attrs: mustprogress noinline nounwind uwtable
define linkonce_odr dso_local void @_ZN2BB13gg_v_00000008Ev(%class.BB* noundef nonnull align 8 dereferenceable(16) %this) unnamed_addr #4 comdat align 2 !dbg !239 {
entry:
  call void @llvm.dbg.value(metadata %class.BB* %this, metadata !240, metadata !DIExpression()), !dbg !241
  ret void, !dbg !242
}

; Function Attrs: mustprogress noinline nounwind uwtable
define linkonce_odr dso_local void @_ZN2BB13gg_v_00000009Ev(%class.BB* noundef nonnull align 8 dereferenceable(16) %this) unnamed_addr #4 comdat align 2 !dbg !243 {
entry:
  call void @llvm.dbg.value(metadata %class.BB* %this, metadata !244, metadata !DIExpression()), !dbg !245
  ret void, !dbg !246
}

; Function Attrs: mustprogress noinline nounwind uwtable
define linkonce_odr dso_local void @_ZN2BB13gg_v_00000010Ev(%class.BB* noundef nonnull align 8 dereferenceable(16) %this) unnamed_addr #4 comdat align 2 !dbg !247 {
entry:
  call void @llvm.dbg.value(metadata %class.BB* %this, metadata !248, metadata !DIExpression()), !dbg !249
  ret void, !dbg !250
}

; Function Attrs: mustprogress noinline nounwind uwtable
define linkonce_odr dso_local void @_ZN2BB13gg_v_00000011Ev(%class.BB* noundef nonnull align 8 dereferenceable(16) %this) unnamed_addr #4 comdat align 2 !dbg !251 {
entry:
  call void @llvm.dbg.value(metadata %class.BB* %this, metadata !252, metadata !DIExpression()), !dbg !253
  ret void, !dbg !254
}

; Function Attrs: mustprogress noinline nounwind uwtable
define linkonce_odr dso_local void @_ZN2BB13gg_v_00000012Ev(%class.BB* noundef nonnull align 8 dereferenceable(16) %this) unnamed_addr #4 comdat align 2 !dbg !255 {
entry:
  call void @llvm.dbg.value(metadata %class.BB* %this, metadata !256, metadata !DIExpression()), !dbg !257
  ret void, !dbg !258
}

; Function Attrs: mustprogress noinline nounwind uwtable
define linkonce_odr dso_local void @_ZN2BB13gg_v_00000013Ev(%class.BB* noundef nonnull align 8 dereferenceable(16) %this) unnamed_addr #4 comdat align 2 !dbg !259 {
entry:
  call void @llvm.dbg.value(metadata %class.BB* %this, metadata !260, metadata !DIExpression()), !dbg !261
  ret void, !dbg !262
}

; Function Attrs: mustprogress noinline nounwind uwtable
define linkonce_odr dso_local void @_ZN2BB13gg_v_00000014Ev(%class.BB* noundef nonnull align 8 dereferenceable(16) %this) unnamed_addr #4 comdat align 2 !dbg !263 {
entry:
  call void @llvm.dbg.value(metadata %class.BB* %this, metadata !264, metadata !DIExpression()), !dbg !265
  ret void, !dbg !266
}

; Function Attrs: mustprogress noinline nounwind uwtable
define linkonce_odr dso_local void @_ZN2BB13gg_v_00000015Ev(%class.BB* noundef nonnull align 8 dereferenceable(16) %this) unnamed_addr #4 comdat align 2 !dbg !267 {
entry:
  call void @llvm.dbg.value(metadata %class.BB* %this, metadata !268, metadata !DIExpression()), !dbg !269
  ret void, !dbg !270
}

; Function Attrs: mustprogress noinline nounwind uwtable
define linkonce_odr dso_local void @_ZN2BB13gg_v_00000016Ev(%class.BB* noundef nonnull align 8 dereferenceable(16) %this) unnamed_addr #4 comdat align 2 !dbg !271 {
entry:
  call void @llvm.dbg.value(metadata %class.BB* %this, metadata !272, metadata !DIExpression()), !dbg !273
  ret void, !dbg !274
}

; Function Attrs: mustprogress noinline nounwind uwtable
define linkonce_odr dso_local void @_ZN2BB13gg_v_00000017Ev(%class.BB* noundef nonnull align 8 dereferenceable(16) %this) unnamed_addr #4 comdat align 2 !dbg !275 {
entry:
  call void @llvm.dbg.value(metadata %class.BB* %this, metadata !276, metadata !DIExpression()), !dbg !277
  ret void, !dbg !278
}

; Function Attrs: mustprogress noinline nounwind uwtable
define linkonce_odr dso_local void @_ZN2BB13gg_v_00000018Ev(%class.BB* noundef nonnull align 8 dereferenceable(16) %this) unnamed_addr #4 comdat align 2 !dbg !279 {
entry:
  call void @llvm.dbg.value(metadata %class.BB* %this, metadata !280, metadata !DIExpression()), !dbg !281
  ret void, !dbg !282
}

; Function Attrs: mustprogress noinline nounwind uwtable
define linkonce_odr dso_local void @_ZN2BB13gg_v_00000019Ev(%class.BB* noundef nonnull align 8 dereferenceable(16) %this) unnamed_addr #4 comdat align 2 !dbg !283 {
entry:
  call void @llvm.dbg.value(metadata %class.BB* %this, metadata !284, metadata !DIExpression()), !dbg !285
  ret void, !dbg !286
}

; Function Attrs: mustprogress noinline nounwind uwtable
define linkonce_odr dso_local void @_ZN2BB13gg_v_00000020Ev(%class.BB* noundef nonnull align 8 dereferenceable(16) %this) unnamed_addr #4 comdat align 2 !dbg !287 {
entry:
  call void @llvm.dbg.value(metadata %class.BB* %this, metadata !288, metadata !DIExpression()), !dbg !289
  ret void, !dbg !290
}

; Function Attrs: mustprogress noinline nounwind uwtable
define linkonce_odr dso_local void @_ZN2BB13gg_v_00000021Ev(%class.BB* noundef nonnull align 8 dereferenceable(16) %this) unnamed_addr #4 comdat align 2 !dbg !291 {
entry:
  call void @llvm.dbg.value(metadata %class.BB* %this, metadata !292, metadata !DIExpression()), !dbg !293
  ret void, !dbg !294
}

; Function Attrs: mustprogress noinline nounwind uwtable
define linkonce_odr dso_local void @_ZN2BB13gg_v_00000022Ev(%class.BB* noundef nonnull align 8 dereferenceable(16) %this) unnamed_addr #4 comdat align 2 !dbg !295 {
entry:
  call void @llvm.dbg.value(metadata %class.BB* %this, metadata !296, metadata !DIExpression()), !dbg !297
  ret void, !dbg !298
}

; Function Attrs: mustprogress noinline nounwind uwtable
define linkonce_odr dso_local void @_ZN2BB13gg_v_00000023Ev(%class.BB* noundef nonnull align 8 dereferenceable(16) %this) unnamed_addr #4 comdat align 2 !dbg !299 {
entry:
  call void @llvm.dbg.value(metadata %class.BB* %this, metadata !300, metadata !DIExpression()), !dbg !301
  ret void, !dbg !302
}

; Function Attrs: mustprogress noinline nounwind uwtable
define linkonce_odr dso_local void @_ZN2BB13gg_v_00000024Ev(%class.BB* noundef nonnull align 8 dereferenceable(16) %this) unnamed_addr #4 comdat align 2 !dbg !303 {
entry:
  call void @llvm.dbg.value(metadata %class.BB* %this, metadata !304, metadata !DIExpression()), !dbg !305
  ret void, !dbg !306
}

; Function Attrs: mustprogress noinline nounwind uwtable
define linkonce_odr dso_local void @_ZN2BB13gg_v_00000025Ev(%class.BB* noundef nonnull align 8 dereferenceable(16) %this) unnamed_addr #4 comdat align 2 !dbg !307 {
entry:
  call void @llvm.dbg.value(metadata %class.BB* %this, metadata !308, metadata !DIExpression()), !dbg !309
  ret void, !dbg !310
}

; Function Attrs: mustprogress noinline nounwind uwtable
define linkonce_odr dso_local void @_ZN2BB13gg_v_00000026Ev(%class.BB* noundef nonnull align 8 dereferenceable(16) %this) unnamed_addr #4 comdat align 2 !dbg !311 {
entry:
  call void @llvm.dbg.value(metadata %class.BB* %this, metadata !312, metadata !DIExpression()), !dbg !313
  ret void, !dbg !314
}

; Function Attrs: mustprogress noinline nounwind uwtable
define linkonce_odr dso_local void @_ZN2BB13gg_v_00000027Ev(%class.BB* noundef nonnull align 8 dereferenceable(16) %this) unnamed_addr #4 comdat align 2 !dbg !315 {
entry:
  call void @llvm.dbg.value(metadata %class.BB* %this, metadata !316, metadata !DIExpression()), !dbg !317
  ret void, !dbg !318
}

; Function Attrs: mustprogress noinline nounwind uwtable
define linkonce_odr dso_local void @_ZN2BB13gg_v_00000028Ev(%class.BB* noundef nonnull align 8 dereferenceable(16) %this) unnamed_addr #4 comdat align 2 !dbg !319 {
entry:
  call void @llvm.dbg.value(metadata %class.BB* %this, metadata !320, metadata !DIExpression()), !dbg !321
  ret void, !dbg !322
}

; Function Attrs: mustprogress noinline nounwind uwtable
define linkonce_odr dso_local void @_ZN2BB13gg_v_00000029Ev(%class.BB* noundef nonnull align 8 dereferenceable(16) %this) unnamed_addr #4 comdat align 2 !dbg !323 {
entry:
  call void @llvm.dbg.value(metadata %class.BB* %this, metadata !324, metadata !DIExpression()), !dbg !325
  ret void, !dbg !326
}

; Function Attrs: mustprogress noinline nounwind uwtable
define linkonce_odr dso_local void @_ZN2DD13hh_v_00000000Ev(%class.DD* noundef nonnull align 8 dereferenceable(40) %this) unnamed_addr #4 comdat align 2 !dbg !327 {
entry:
  call void @llvm.dbg.value(metadata %class.DD* %this, metadata !328, metadata !DIExpression()), !dbg !329
  ret void, !dbg !330
}

; Function Attrs: mustprogress noinline nounwind uwtable
define linkonce_odr dso_local void @_ZN2DD13hh_v_00000001Ev(%class.DD* noundef nonnull align 8 dereferenceable(40) %this) unnamed_addr #4 comdat align 2 !dbg !331 {
entry:
  call void @llvm.dbg.value(metadata %class.DD* %this, metadata !332, metadata !DIExpression()), !dbg !333
  ret void, !dbg !334
}

; Function Attrs: mustprogress noinline nounwind uwtable
define linkonce_odr dso_local void @_ZN2DD13hh_v_00000002Ev(%class.DD* noundef nonnull align 8 dereferenceable(40) %this) unnamed_addr #4 comdat align 2 !dbg !335 {
entry:
  call void @llvm.dbg.value(metadata %class.DD* %this, metadata !336, metadata !DIExpression()), !dbg !337
  ret void, !dbg !338
}

; Function Attrs: mustprogress noinline nounwind uwtable
define linkonce_odr dso_local void @_ZN2DD13hh_v_00000003Ev(%class.DD* noundef nonnull align 8 dereferenceable(40) %this) unnamed_addr #4 comdat align 2 !dbg !339 {
entry:
  call void @llvm.dbg.value(metadata %class.DD* %this, metadata !340, metadata !DIExpression()), !dbg !341
  ret void, !dbg !342
}

; Function Attrs: mustprogress noinline nounwind uwtable
define linkonce_odr dso_local void @_ZN2DD13hh_v_00000004Ev(%class.DD* noundef nonnull align 8 dereferenceable(40) %this) unnamed_addr #4 comdat align 2 !dbg !343 {
entry:
  call void @llvm.dbg.value(metadata %class.DD* %this, metadata !344, metadata !DIExpression()), !dbg !345
  ret void, !dbg !346
}

; Function Attrs: mustprogress noinline nounwind uwtable
define linkonce_odr dso_local void @_ZN2DD13hh_v_00000005Ev(%class.DD* noundef nonnull align 8 dereferenceable(40) %this) unnamed_addr #4 comdat align 2 !dbg !347 {
entry:
  call void @llvm.dbg.value(metadata %class.DD* %this, metadata !348, metadata !DIExpression()), !dbg !349
  ret void, !dbg !350
}

; Function Attrs: mustprogress noinline nounwind uwtable
define linkonce_odr dso_local void @_ZN2DD13hh_v_00000006Ev(%class.DD* noundef nonnull align 8 dereferenceable(40) %this) unnamed_addr #4 comdat align 2 !dbg !351 {
entry:
  call void @llvm.dbg.value(metadata %class.DD* %this, metadata !352, metadata !DIExpression()), !dbg !353
  ret void, !dbg !354
}

; Function Attrs: mustprogress noinline nounwind uwtable
define linkonce_odr dso_local void @_ZN2DD13hh_v_00000007Ev(%class.DD* noundef nonnull align 8 dereferenceable(40) %this) unnamed_addr #4 comdat align 2 !dbg !355 {
entry:
  call void @llvm.dbg.value(metadata %class.DD* %this, metadata !356, metadata !DIExpression()), !dbg !357
  ret void, !dbg !358
}

; Function Attrs: mustprogress noinline nounwind uwtable
define linkonce_odr dso_local void @_ZN2DD13hh_v_00000008Ev(%class.DD* noundef nonnull align 8 dereferenceable(40) %this) unnamed_addr #4 comdat align 2 !dbg !359 {
entry:
  call void @llvm.dbg.value(metadata %class.DD* %this, metadata !360, metadata !DIExpression()), !dbg !361
  ret void, !dbg !362
}

; Function Attrs: mustprogress noinline nounwind uwtable
define linkonce_odr dso_local void @_ZN2DD13hh_v_00000009Ev(%class.DD* noundef nonnull align 8 dereferenceable(40) %this) unnamed_addr #4 comdat align 2 !dbg !363 {
entry:
  call void @llvm.dbg.value(metadata %class.DD* %this, metadata !364, metadata !DIExpression()), !dbg !365
  ret void, !dbg !366
}

; Function Attrs: mustprogress noinline nounwind uwtable
define linkonce_odr dso_local void @_ZN2DD13hh_v_00000010Ev(%class.DD* noundef nonnull align 8 dereferenceable(40) %this) unnamed_addr #4 comdat align 2 !dbg !367 {
entry:
  call void @llvm.dbg.value(metadata %class.DD* %this, metadata !368, metadata !DIExpression()), !dbg !369
  ret void, !dbg !370
}

; Function Attrs: mustprogress noinline nounwind uwtable
define linkonce_odr dso_local void @_ZN2DD13hh_v_00000011Ev(%class.DD* noundef nonnull align 8 dereferenceable(40) %this) unnamed_addr #4 comdat align 2 !dbg !371 {
entry:
  call void @llvm.dbg.value(metadata %class.DD* %this, metadata !372, metadata !DIExpression()), !dbg !373
  ret void, !dbg !374
}

; Function Attrs: mustprogress noinline nounwind uwtable
define linkonce_odr dso_local void @_ZN2DD13hh_v_00000012Ev(%class.DD* noundef nonnull align 8 dereferenceable(40) %this) unnamed_addr #4 comdat align 2 !dbg !375 {
entry:
  call void @llvm.dbg.value(metadata %class.DD* %this, metadata !376, metadata !DIExpression()), !dbg !377
  ret void, !dbg !378
}

; Function Attrs: mustprogress noinline nounwind uwtable
define linkonce_odr dso_local void @_ZN2DD13hh_v_00000013Ev(%class.DD* noundef nonnull align 8 dereferenceable(40) %this) unnamed_addr #4 comdat align 2 !dbg !379 {
entry:
  call void @llvm.dbg.value(metadata %class.DD* %this, metadata !380, metadata !DIExpression()), !dbg !381
  ret void, !dbg !382
}

; Function Attrs: mustprogress noinline nounwind uwtable
define linkonce_odr dso_local void @_ZN2DD13hh_v_00000014Ev(%class.DD* noundef nonnull align 8 dereferenceable(40) %this) unnamed_addr #4 comdat align 2 !dbg !383 {
entry:
  call void @llvm.dbg.value(metadata %class.DD* %this, metadata !384, metadata !DIExpression()), !dbg !385
  ret void, !dbg !386
}

; Function Attrs: mustprogress noinline nounwind uwtable
define linkonce_odr dso_local void @_ZN2DD13hh_v_00000015Ev(%class.DD* noundef nonnull align 8 dereferenceable(40) %this) unnamed_addr #4 comdat align 2 !dbg !387 {
entry:
  call void @llvm.dbg.value(metadata %class.DD* %this, metadata !388, metadata !DIExpression()), !dbg !389
  ret void, !dbg !390
}

; Function Attrs: mustprogress noinline nounwind uwtable
define linkonce_odr dso_local void @_ZN2DD13hh_v_00000016Ev(%class.DD* noundef nonnull align 8 dereferenceable(40) %this) unnamed_addr #4 comdat align 2 !dbg !391 {
entry:
  call void @llvm.dbg.value(metadata %class.DD* %this, metadata !392, metadata !DIExpression()), !dbg !393
  ret void, !dbg !394
}

; Function Attrs: mustprogress noinline nounwind uwtable
define linkonce_odr dso_local void @_ZN2DD13hh_v_00000017Ev(%class.DD* noundef nonnull align 8 dereferenceable(40) %this) unnamed_addr #4 comdat align 2 !dbg !395 {
entry:
  call void @llvm.dbg.value(metadata %class.DD* %this, metadata !396, metadata !DIExpression()), !dbg !397
  ret void, !dbg !398
}

; Function Attrs: mustprogress noinline nounwind uwtable
define linkonce_odr dso_local void @_ZN2DD13hh_v_00000018Ev(%class.DD* noundef nonnull align 8 dereferenceable(40) %this) unnamed_addr #4 comdat align 2 !dbg !399 {
entry:
  call void @llvm.dbg.value(metadata %class.DD* %this, metadata !400, metadata !DIExpression()), !dbg !401
  ret void, !dbg !402
}

; Function Attrs: mustprogress noinline nounwind uwtable
define linkonce_odr dso_local void @_ZN2DD13hh_v_00000019Ev(%class.DD* noundef nonnull align 8 dereferenceable(40) %this) unnamed_addr #4 comdat align 2 !dbg !403 {
entry:
  call void @llvm.dbg.value(metadata %class.DD* %this, metadata !404, metadata !DIExpression()), !dbg !405
  ret void, !dbg !406
}

; Function Attrs: mustprogress noinline nounwind uwtable
define linkonce_odr dso_local void @_ZN2DD13hh_v_00000020Ev(%class.DD* noundef nonnull align 8 dereferenceable(40) %this) unnamed_addr #4 comdat align 2 !dbg !407 {
entry:
  call void @llvm.dbg.value(metadata %class.DD* %this, metadata !408, metadata !DIExpression()), !dbg !409
  ret void, !dbg !410
}

; Function Attrs: mustprogress noinline nounwind uwtable
define linkonce_odr dso_local void @_ZN2DD13hh_v_00000021Ev(%class.DD* noundef nonnull align 8 dereferenceable(40) %this) unnamed_addr #4 comdat align 2 !dbg !411 {
entry:
  call void @llvm.dbg.value(metadata %class.DD* %this, metadata !412, metadata !DIExpression()), !dbg !413
  ret void, !dbg !414
}

; Function Attrs: mustprogress noinline nounwind uwtable
define linkonce_odr dso_local void @_ZN2DD13hh_v_00000022Ev(%class.DD* noundef nonnull align 8 dereferenceable(40) %this) unnamed_addr #4 comdat align 2 !dbg !415 {
entry:
  call void @llvm.dbg.value(metadata %class.DD* %this, metadata !416, metadata !DIExpression()), !dbg !417
  ret void, !dbg !418
}

; Function Attrs: mustprogress noinline nounwind uwtable
define linkonce_odr dso_local void @_ZN2DD13hh_v_00000023Ev(%class.DD* noundef nonnull align 8 dereferenceable(40) %this) unnamed_addr #4 comdat align 2 !dbg !419 {
entry:
  call void @llvm.dbg.value(metadata %class.DD* %this, metadata !420, metadata !DIExpression()), !dbg !421
  ret void, !dbg !422
}

; Function Attrs: mustprogress noinline nounwind uwtable
define linkonce_odr dso_local void @_ZN2DD13hh_v_00000024Ev(%class.DD* noundef nonnull align 8 dereferenceable(40) %this) unnamed_addr #4 comdat align 2 !dbg !423 {
entry:
  call void @llvm.dbg.value(metadata %class.DD* %this, metadata !424, metadata !DIExpression()), !dbg !425
  ret void, !dbg !426
}

; Function Attrs: mustprogress noinline nounwind uwtable
define linkonce_odr dso_local void @_ZN2DD13hh_v_00000025Ev(%class.DD* noundef nonnull align 8 dereferenceable(40) %this) unnamed_addr #4 comdat align 2 !dbg !427 {
entry:
  call void @llvm.dbg.value(metadata %class.DD* %this, metadata !428, metadata !DIExpression()), !dbg !429
  ret void, !dbg !430
}

; Function Attrs: mustprogress noinline nounwind uwtable
define linkonce_odr dso_local void @_ZN2DD13hh_v_00000026Ev(%class.DD* noundef nonnull align 8 dereferenceable(40) %this) unnamed_addr #4 comdat align 2 !dbg !431 {
entry:
  call void @llvm.dbg.value(metadata %class.DD* %this, metadata !432, metadata !DIExpression()), !dbg !433
  ret void, !dbg !434
}

; Function Attrs: mustprogress noinline nounwind uwtable
define linkonce_odr dso_local void @_ZN2DD13hh_v_00000027Ev(%class.DD* noundef nonnull align 8 dereferenceable(40) %this) unnamed_addr #4 comdat align 2 !dbg !435 {
entry:
  call void @llvm.dbg.value(metadata %class.DD* %this, metadata !436, metadata !DIExpression()), !dbg !437
  ret void, !dbg !438
}

; Function Attrs: mustprogress noinline nounwind uwtable
define linkonce_odr dso_local void @_ZN2DD13hh_v_00000028Ev(%class.DD* noundef nonnull align 8 dereferenceable(40) %this) unnamed_addr #4 comdat align 2 !dbg !439 {
entry:
  call void @llvm.dbg.value(metadata %class.DD* %this, metadata !440, metadata !DIExpression()), !dbg !441
  ret void, !dbg !442
}

; Function Attrs: mustprogress noinline nounwind uwtable
define linkonce_odr dso_local void @_ZN2DD13ff_v_00000000Ev(%class.DD* noundef nonnull align 8 dereferenceable(40) %this) unnamed_addr #4 comdat align 2 !dbg !443 {
entry:
  call void @llvm.dbg.value(metadata %class.DD* %this, metadata !444, metadata !DIExpression()), !dbg !445
  ret void, !dbg !446
}

; Function Attrs: mustprogress noinline nounwind uwtable
define linkonce_odr dso_local void @_ZN2DD13ff_v_00000001Ev(%class.DD* noundef nonnull align 8 dereferenceable(40) %this) unnamed_addr #4 comdat align 2 !dbg !447 {
entry:
  call void @llvm.dbg.value(metadata %class.DD* %this, metadata !448, metadata !DIExpression()), !dbg !449
  ret void, !dbg !450
}

; Function Attrs: mustprogress noinline nounwind uwtable
define linkonce_odr dso_local void @_ZN2DD13ff_v_00000002Ev(%class.DD* noundef nonnull align 8 dereferenceable(40) %this) unnamed_addr #4 comdat align 2 !dbg !451 {
entry:
  call void @llvm.dbg.value(metadata %class.DD* %this, metadata !452, metadata !DIExpression()), !dbg !453
  ret void, !dbg !454
}

; Function Attrs: mustprogress noinline nounwind uwtable
define linkonce_odr dso_local void @_ZN2DD13ff_v_00000003Ev(%class.DD* noundef nonnull align 8 dereferenceable(40) %this) unnamed_addr #4 comdat align 2 !dbg !455 {
entry:
  call void @llvm.dbg.value(metadata %class.DD* %this, metadata !456, metadata !DIExpression()), !dbg !457
  ret void, !dbg !458
}

; Function Attrs: mustprogress noinline nounwind uwtable
define linkonce_odr dso_local void @_ZN2DD13ff_v_00000004Ev(%class.DD* noundef nonnull align 8 dereferenceable(40) %this) unnamed_addr #4 comdat align 2 !dbg !459 {
entry:
  call void @llvm.dbg.value(metadata %class.DD* %this, metadata !460, metadata !DIExpression()), !dbg !461
  ret void, !dbg !462
}

; Function Attrs: mustprogress noinline nounwind uwtable
define linkonce_odr dso_local void @_ZN2DD13ff_v_00000005Ev(%class.DD* noundef nonnull align 8 dereferenceable(40) %this) unnamed_addr #4 comdat align 2 !dbg !463 {
entry:
  call void @llvm.dbg.value(metadata %class.DD* %this, metadata !464, metadata !DIExpression()), !dbg !465
  ret void, !dbg !466
}

; Function Attrs: mustprogress noinline nounwind uwtable
define linkonce_odr dso_local void @_ZN2DD13ff_v_00000006Ev(%class.DD* noundef nonnull align 8 dereferenceable(40) %this) unnamed_addr #4 comdat align 2 !dbg !467 {
entry:
  call void @llvm.dbg.value(metadata %class.DD* %this, metadata !468, metadata !DIExpression()), !dbg !469
  ret void, !dbg !470
}

; Function Attrs: mustprogress noinline nounwind uwtable
define linkonce_odr dso_local void @_ZN2DD13ff_v_00000007Ev(%class.DD* noundef nonnull align 8 dereferenceable(40) %this) unnamed_addr #4 comdat align 2 !dbg !471 {
entry:
  call void @llvm.dbg.value(metadata %class.DD* %this, metadata !472, metadata !DIExpression()), !dbg !473
  ret void, !dbg !474
}

; Function Attrs: mustprogress noinline nounwind uwtable
define linkonce_odr dso_local void @_ZN2DD13ff_v_00000008Ev(%class.DD* noundef nonnull align 8 dereferenceable(40) %this) unnamed_addr #4 comdat align 2 !dbg !475 {
entry:
  call void @llvm.dbg.value(metadata %class.DD* %this, metadata !476, metadata !DIExpression()), !dbg !477
  ret void, !dbg !478
}

; Function Attrs: mustprogress noinline nounwind uwtable
define linkonce_odr dso_local void @_ZN2DD13ff_v_00000009Ev(%class.DD* noundef nonnull align 8 dereferenceable(40) %this) unnamed_addr #4 comdat align 2 !dbg !479 {
entry:
  call void @llvm.dbg.value(metadata %class.DD* %this, metadata !480, metadata !DIExpression()), !dbg !481
  ret void, !dbg !482
}

; Function Attrs: mustprogress noinline nounwind uwtable
define linkonce_odr dso_local void @_ZN2DD13ff_v_00000010Ev(%class.DD* noundef nonnull align 8 dereferenceable(40) %this) unnamed_addr #4 comdat align 2 !dbg !483 {
entry:
  call void @llvm.dbg.value(metadata %class.DD* %this, metadata !484, metadata !DIExpression()), !dbg !485
  ret void, !dbg !486
}

; Function Attrs: mustprogress noinline nounwind uwtable
define linkonce_odr dso_local void @_ZN2DD13ff_v_00000011Ev(%class.DD* noundef nonnull align 8 dereferenceable(40) %this) unnamed_addr #4 comdat align 2 !dbg !487 {
entry:
  call void @llvm.dbg.value(metadata %class.DD* %this, metadata !488, metadata !DIExpression()), !dbg !489
  ret void, !dbg !490
}

; Function Attrs: mustprogress noinline nounwind uwtable
define linkonce_odr dso_local void @_ZN2DD13ff_v_00000012Ev(%class.DD* noundef nonnull align 8 dereferenceable(40) %this) unnamed_addr #4 comdat align 2 !dbg !491 {
entry:
  call void @llvm.dbg.value(metadata %class.DD* %this, metadata !492, metadata !DIExpression()), !dbg !493
  ret void, !dbg !494
}

; Function Attrs: mustprogress noinline nounwind uwtable
define linkonce_odr dso_local void @_ZN2DD13ff_v_00000013Ev(%class.DD* noundef nonnull align 8 dereferenceable(40) %this) unnamed_addr #4 comdat align 2 !dbg !495 {
entry:
  call void @llvm.dbg.value(metadata %class.DD* %this, metadata !496, metadata !DIExpression()), !dbg !497
  ret void, !dbg !498
}

; Function Attrs: mustprogress noinline nounwind uwtable
define linkonce_odr dso_local void @_ZN2DD13ff_v_00000014Ev(%class.DD* noundef nonnull align 8 dereferenceable(40) %this) unnamed_addr #4 comdat align 2 !dbg !499 {
entry:
  call void @llvm.dbg.value(metadata %class.DD* %this, metadata !500, metadata !DIExpression()), !dbg !501
  ret void, !dbg !502
}

; Function Attrs: mustprogress noinline nounwind uwtable
define linkonce_odr dso_local void @_ZN2DD13ff_v_00000015Ev(%class.DD* noundef nonnull align 8 dereferenceable(40) %this) unnamed_addr #4 comdat align 2 !dbg !503 {
entry:
  call void @llvm.dbg.value(metadata %class.DD* %this, metadata !504, metadata !DIExpression()), !dbg !505
  ret void, !dbg !506
}

; Function Attrs: mustprogress noinline nounwind uwtable
define linkonce_odr dso_local void @_ZN2DD13ff_v_00000016Ev(%class.DD* noundef nonnull align 8 dereferenceable(40) %this) unnamed_addr #4 comdat align 2 !dbg !507 {
entry:
  call void @llvm.dbg.value(metadata %class.DD* %this, metadata !508, metadata !DIExpression()), !dbg !509
  ret void, !dbg !510
}

; Function Attrs: mustprogress noinline nounwind uwtable
define linkonce_odr dso_local void @_ZN2DD13ff_v_00000017Ev(%class.DD* noundef nonnull align 8 dereferenceable(40) %this) unnamed_addr #4 comdat align 2 !dbg !511 {
entry:
  call void @llvm.dbg.value(metadata %class.DD* %this, metadata !512, metadata !DIExpression()), !dbg !513
  ret void, !dbg !514
}

; Function Attrs: mustprogress noinline nounwind uwtable
define linkonce_odr dso_local void @_ZN2DD13ff_v_00000018Ev(%class.DD* noundef nonnull align 8 dereferenceable(40) %this) unnamed_addr #4 comdat align 2 !dbg !515 {
entry:
  call void @llvm.dbg.value(metadata %class.DD* %this, metadata !516, metadata !DIExpression()), !dbg !517
  ret void, !dbg !518
}

; Function Attrs: mustprogress noinline nounwind uwtable
define linkonce_odr dso_local void @_ZN2DD13ff_v_00000019Ev(%class.DD* noundef nonnull align 8 dereferenceable(40) %this) unnamed_addr #4 comdat align 2 !dbg !519 {
entry:
  call void @llvm.dbg.value(metadata %class.DD* %this, metadata !520, metadata !DIExpression()), !dbg !521
  ret void, !dbg !522
}

; Function Attrs: mustprogress noinline nounwind uwtable
define linkonce_odr dso_local void @_ZN2DD13ff_v_00000020Ev(%class.DD* noundef nonnull align 8 dereferenceable(40) %this) unnamed_addr #4 comdat align 2 !dbg !523 {
entry:
  call void @llvm.dbg.value(metadata %class.DD* %this, metadata !524, metadata !DIExpression()), !dbg !525
  ret void, !dbg !526
}

; Function Attrs: mustprogress noinline nounwind uwtable
define linkonce_odr dso_local void @_ZN2DD13ff_v_00000021Ev(%class.DD* noundef nonnull align 8 dereferenceable(40) %this) unnamed_addr #4 comdat align 2 !dbg !527 {
entry:
  call void @llvm.dbg.value(metadata %class.DD* %this, metadata !528, metadata !DIExpression()), !dbg !529
  ret void, !dbg !530
}

; Function Attrs: mustprogress noinline nounwind uwtable
define linkonce_odr dso_local void @_ZN2DD13ff_v_00000022Ev(%class.DD* noundef nonnull align 8 dereferenceable(40) %this) unnamed_addr #4 comdat align 2 !dbg !531 {
entry:
  call void @llvm.dbg.value(metadata %class.DD* %this, metadata !532, metadata !DIExpression()), !dbg !533
  ret void, !dbg !534
}

; Function Attrs: mustprogress noinline nounwind uwtable
define linkonce_odr dso_local void @_ZN2DD13ff_v_00000023Ev(%class.DD* noundef nonnull align 8 dereferenceable(40) %this) unnamed_addr #4 comdat align 2 !dbg !535 {
entry:
  call void @llvm.dbg.value(metadata %class.DD* %this, metadata !536, metadata !DIExpression()), !dbg !537
  ret void, !dbg !538
}

; Function Attrs: mustprogress noinline nounwind uwtable
define linkonce_odr dso_local void @_ZN2DD13ff_v_00000024Ev(%class.DD* noundef nonnull align 8 dereferenceable(40) %this) unnamed_addr #4 comdat align 2 !dbg !539 {
entry:
  call void @llvm.dbg.value(metadata %class.DD* %this, metadata !540, metadata !DIExpression()), !dbg !541
  ret void, !dbg !542
}

; Function Attrs: mustprogress noinline nounwind uwtable
define linkonce_odr dso_local void @_ZN2DD13ff_v_00000025Ev(%class.DD* noundef nonnull align 8 dereferenceable(40) %this) unnamed_addr #4 comdat align 2 !dbg !543 {
entry:
  call void @llvm.dbg.value(metadata %class.DD* %this, metadata !544, metadata !DIExpression()), !dbg !545
  ret void, !dbg !546
}

; Function Attrs: mustprogress noinline nounwind uwtable
define linkonce_odr dso_local void @_ZN2DD13ff_v_00000026Ev(%class.DD* noundef nonnull align 8 dereferenceable(40) %this) unnamed_addr #4 comdat align 2 !dbg !547 {
entry:
  call void @llvm.dbg.value(metadata %class.DD* %this, metadata !548, metadata !DIExpression()), !dbg !549
  ret void, !dbg !550
}

; Function Attrs: mustprogress noinline nounwind uwtable
define linkonce_odr dso_local void @_ZN2DD13ff_v_00000027Ev(%class.DD* noundef nonnull align 8 dereferenceable(40) %this) unnamed_addr #4 comdat align 2 !dbg !551 {
entry:
  call void @llvm.dbg.value(metadata %class.DD* %this, metadata !552, metadata !DIExpression()), !dbg !553
  ret void, !dbg !554
}

; Function Attrs: mustprogress noinline nounwind uwtable
define linkonce_odr dso_local void @_ZN2DD13ff_v_00000028Ev(%class.DD* noundef nonnull align 8 dereferenceable(40) %this) unnamed_addr #4 comdat align 2 !dbg !555 {
entry:
  call void @llvm.dbg.value(metadata %class.DD* %this, metadata !556, metadata !DIExpression()), !dbg !557
  ret void, !dbg !558
}

; Function Attrs: mustprogress noinline nounwind uwtable
define linkonce_odr dso_local void @_ZN2DD13ff_v_00000029Ev(%class.DD* noundef nonnull align 8 dereferenceable(40) %this) unnamed_addr #4 comdat align 2 !dbg !559 {
entry:
  call void @llvm.dbg.value(metadata %class.DD* %this, metadata !560, metadata !DIExpression()), !dbg !561
  ret void, !dbg !562
}

; Function Attrs: noinline uwtable
define linkonce_odr dso_local void @_ZThn16_N2DD13hh_v_00000000Ev(%class.DD* noundef %this) unnamed_addr #5 comdat align 2 !dbg !563 {
entry:
  %0 = bitcast %class.DD* %this to i8*, !dbg !565
  %1 = getelementptr inbounds i8, i8* %0, i64 -16, !dbg !565
  %2 = bitcast i8* %1 to %class.DD*, !dbg !565
  tail call void @_ZN2DD13hh_v_00000000Ev(%class.DD* noundef nonnull align 8 dereferenceable(40) %2) #6, !dbg !565
  ret void, !dbg !565
}

; Function Attrs: noinline uwtable
define linkonce_odr dso_local void @_ZThn16_N2DD13hh_v_00000001Ev(%class.DD* noundef %this) unnamed_addr #5 comdat align 2 !dbg !566 {
entry:
  %0 = bitcast %class.DD* %this to i8*, !dbg !567
  %1 = getelementptr inbounds i8, i8* %0, i64 -16, !dbg !567
  %2 = bitcast i8* %1 to %class.DD*, !dbg !567
  tail call void @_ZN2DD13hh_v_00000001Ev(%class.DD* noundef nonnull align 8 dereferenceable(40) %2) #6, !dbg !567
  ret void, !dbg !567
}

; Function Attrs: noinline uwtable
define linkonce_odr dso_local void @_ZThn16_N2DD13hh_v_00000002Ev(%class.DD* noundef %this) unnamed_addr #5 comdat align 2 !dbg !568 {
entry:
  %0 = bitcast %class.DD* %this to i8*, !dbg !569
  %1 = getelementptr inbounds i8, i8* %0, i64 -16, !dbg !569
  %2 = bitcast i8* %1 to %class.DD*, !dbg !569
  tail call void @_ZN2DD13hh_v_00000002Ev(%class.DD* noundef nonnull align 8 dereferenceable(40) %2) #6, !dbg !569
  ret void, !dbg !569
}

; Function Attrs: noinline uwtable
define linkonce_odr dso_local void @_ZThn16_N2DD13hh_v_00000003Ev(%class.DD* noundef %this) unnamed_addr #5 comdat align 2 !dbg !570 {
entry:
  %0 = bitcast %class.DD* %this to i8*, !dbg !571
  %1 = getelementptr inbounds i8, i8* %0, i64 -16, !dbg !571
  %2 = bitcast i8* %1 to %class.DD*, !dbg !571
  tail call void @_ZN2DD13hh_v_00000003Ev(%class.DD* noundef nonnull align 8 dereferenceable(40) %2) #6, !dbg !571
  ret void, !dbg !571
}

; Function Attrs: noinline uwtable
define linkonce_odr dso_local void @_ZThn16_N2DD13hh_v_00000004Ev(%class.DD* noundef %this) unnamed_addr #5 comdat align 2 !dbg !572 {
entry:
  %0 = bitcast %class.DD* %this to i8*, !dbg !573
  %1 = getelementptr inbounds i8, i8* %0, i64 -16, !dbg !573
  %2 = bitcast i8* %1 to %class.DD*, !dbg !573
  tail call void @_ZN2DD13hh_v_00000004Ev(%class.DD* noundef nonnull align 8 dereferenceable(40) %2) #6, !dbg !573
  ret void, !dbg !573
}

; Function Attrs: noinline uwtable
define linkonce_odr dso_local void @_ZThn16_N2DD13hh_v_00000005Ev(%class.DD* noundef %this) unnamed_addr #5 comdat align 2 !dbg !574 {
entry:
  %0 = bitcast %class.DD* %this to i8*, !dbg !575
  %1 = getelementptr inbounds i8, i8* %0, i64 -16, !dbg !575
  %2 = bitcast i8* %1 to %class.DD*, !dbg !575
  tail call void @_ZN2DD13hh_v_00000005Ev(%class.DD* noundef nonnull align 8 dereferenceable(40) %2) #6, !dbg !575
  ret void, !dbg !575
}

; Function Attrs: noinline uwtable
define linkonce_odr dso_local void @_ZThn16_N2DD13hh_v_00000006Ev(%class.DD* noundef %this) unnamed_addr #5 comdat align 2 !dbg !576 {
entry:
  %0 = bitcast %class.DD* %this to i8*, !dbg !577
  %1 = getelementptr inbounds i8, i8* %0, i64 -16, !dbg !577
  %2 = bitcast i8* %1 to %class.DD*, !dbg !577
  tail call void @_ZN2DD13hh_v_00000006Ev(%class.DD* noundef nonnull align 8 dereferenceable(40) %2) #6, !dbg !577
  ret void, !dbg !577
}

; Function Attrs: noinline uwtable
define linkonce_odr dso_local void @_ZThn16_N2DD13hh_v_00000007Ev(%class.DD* noundef %this) unnamed_addr #5 comdat align 2 !dbg !578 {
entry:
  %0 = bitcast %class.DD* %this to i8*, !dbg !579
  %1 = getelementptr inbounds i8, i8* %0, i64 -16, !dbg !579
  %2 = bitcast i8* %1 to %class.DD*, !dbg !579
  tail call void @_ZN2DD13hh_v_00000007Ev(%class.DD* noundef nonnull align 8 dereferenceable(40) %2) #6, !dbg !579
  ret void, !dbg !579
}

; Function Attrs: noinline uwtable
define linkonce_odr dso_local void @_ZThn16_N2DD13hh_v_00000008Ev(%class.DD* noundef %this) unnamed_addr #5 comdat align 2 !dbg !580 {
entry:
  %0 = bitcast %class.DD* %this to i8*, !dbg !581
  %1 = getelementptr inbounds i8, i8* %0, i64 -16, !dbg !581
  %2 = bitcast i8* %1 to %class.DD*, !dbg !581
  tail call void @_ZN2DD13hh_v_00000008Ev(%class.DD* noundef nonnull align 8 dereferenceable(40) %2) #6, !dbg !581
  ret void, !dbg !581
}

; Function Attrs: noinline uwtable
define linkonce_odr dso_local void @_ZThn16_N2DD13hh_v_00000009Ev(%class.DD* noundef %this) unnamed_addr #5 comdat align 2 !dbg !582 {
entry:
  %0 = bitcast %class.DD* %this to i8*, !dbg !583
  %1 = getelementptr inbounds i8, i8* %0, i64 -16, !dbg !583
  %2 = bitcast i8* %1 to %class.DD*, !dbg !583
  tail call void @_ZN2DD13hh_v_00000009Ev(%class.DD* noundef nonnull align 8 dereferenceable(40) %2) #6, !dbg !583
  ret void, !dbg !583
}

; Function Attrs: noinline uwtable
define linkonce_odr dso_local void @_ZThn16_N2DD13hh_v_00000010Ev(%class.DD* noundef %this) unnamed_addr #5 comdat align 2 !dbg !584 {
entry:
  %0 = bitcast %class.DD* %this to i8*, !dbg !585
  %1 = getelementptr inbounds i8, i8* %0, i64 -16, !dbg !585
  %2 = bitcast i8* %1 to %class.DD*, !dbg !585
  tail call void @_ZN2DD13hh_v_00000010Ev(%class.DD* noundef nonnull align 8 dereferenceable(40) %2) #6, !dbg !585
  ret void, !dbg !585
}

; Function Attrs: noinline uwtable
define linkonce_odr dso_local void @_ZThn16_N2DD13hh_v_00000011Ev(%class.DD* noundef %this) unnamed_addr #5 comdat align 2 !dbg !586 {
entry:
  %0 = bitcast %class.DD* %this to i8*, !dbg !587
  %1 = getelementptr inbounds i8, i8* %0, i64 -16, !dbg !587
  %2 = bitcast i8* %1 to %class.DD*, !dbg !587
  tail call void @_ZN2DD13hh_v_00000011Ev(%class.DD* noundef nonnull align 8 dereferenceable(40) %2) #6, !dbg !587
  ret void, !dbg !587
}

; Function Attrs: noinline uwtable
define linkonce_odr dso_local void @_ZThn16_N2DD13hh_v_00000012Ev(%class.DD* noundef %this) unnamed_addr #5 comdat align 2 !dbg !588 {
entry:
  %0 = bitcast %class.DD* %this to i8*, !dbg !589
  %1 = getelementptr inbounds i8, i8* %0, i64 -16, !dbg !589
  %2 = bitcast i8* %1 to %class.DD*, !dbg !589
  tail call void @_ZN2DD13hh_v_00000012Ev(%class.DD* noundef nonnull align 8 dereferenceable(40) %2) #6, !dbg !589
  ret void, !dbg !589
}

; Function Attrs: noinline uwtable
define linkonce_odr dso_local void @_ZThn16_N2DD13hh_v_00000013Ev(%class.DD* noundef %this) unnamed_addr #5 comdat align 2 !dbg !590 {
entry:
  %0 = bitcast %class.DD* %this to i8*, !dbg !591
  %1 = getelementptr inbounds i8, i8* %0, i64 -16, !dbg !591
  %2 = bitcast i8* %1 to %class.DD*, !dbg !591
  tail call void @_ZN2DD13hh_v_00000013Ev(%class.DD* noundef nonnull align 8 dereferenceable(40) %2) #6, !dbg !591
  ret void, !dbg !591
}

; Function Attrs: noinline uwtable
define linkonce_odr dso_local void @_ZThn16_N2DD13hh_v_00000014Ev(%class.DD* noundef %this) unnamed_addr #5 comdat align 2 !dbg !592 {
entry:
  %0 = bitcast %class.DD* %this to i8*, !dbg !593
  %1 = getelementptr inbounds i8, i8* %0, i64 -16, !dbg !593
  %2 = bitcast i8* %1 to %class.DD*, !dbg !593
  tail call void @_ZN2DD13hh_v_00000014Ev(%class.DD* noundef nonnull align 8 dereferenceable(40) %2) #6, !dbg !593
  ret void, !dbg !593
}

; Function Attrs: noinline uwtable
define linkonce_odr dso_local void @_ZThn16_N2DD13hh_v_00000015Ev(%class.DD* noundef %this) unnamed_addr #5 comdat align 2 !dbg !594 {
entry:
  %0 = bitcast %class.DD* %this to i8*, !dbg !595
  %1 = getelementptr inbounds i8, i8* %0, i64 -16, !dbg !595
  %2 = bitcast i8* %1 to %class.DD*, !dbg !595
  tail call void @_ZN2DD13hh_v_00000015Ev(%class.DD* noundef nonnull align 8 dereferenceable(40) %2) #6, !dbg !595
  ret void, !dbg !595
}

; Function Attrs: noinline uwtable
define linkonce_odr dso_local void @_ZThn16_N2DD13hh_v_00000016Ev(%class.DD* noundef %this) unnamed_addr #5 comdat align 2 !dbg !596 {
entry:
  %0 = bitcast %class.DD* %this to i8*, !dbg !597
  %1 = getelementptr inbounds i8, i8* %0, i64 -16, !dbg !597
  %2 = bitcast i8* %1 to %class.DD*, !dbg !597
  tail call void @_ZN2DD13hh_v_00000016Ev(%class.DD* noundef nonnull align 8 dereferenceable(40) %2) #6, !dbg !597
  ret void, !dbg !597
}

; Function Attrs: noinline uwtable
define linkonce_odr dso_local void @_ZThn16_N2DD13hh_v_00000017Ev(%class.DD* noundef %this) unnamed_addr #5 comdat align 2 !dbg !598 {
entry:
  %0 = bitcast %class.DD* %this to i8*, !dbg !599
  %1 = getelementptr inbounds i8, i8* %0, i64 -16, !dbg !599
  %2 = bitcast i8* %1 to %class.DD*, !dbg !599
  tail call void @_ZN2DD13hh_v_00000017Ev(%class.DD* noundef nonnull align 8 dereferenceable(40) %2) #6, !dbg !599
  ret void, !dbg !599
}

; Function Attrs: noinline uwtable
define linkonce_odr dso_local void @_ZThn16_N2DD13hh_v_00000018Ev(%class.DD* noundef %this) unnamed_addr #5 comdat align 2 !dbg !600 {
entry:
  %0 = bitcast %class.DD* %this to i8*, !dbg !601
  %1 = getelementptr inbounds i8, i8* %0, i64 -16, !dbg !601
  %2 = bitcast i8* %1 to %class.DD*, !dbg !601
  tail call void @_ZN2DD13hh_v_00000018Ev(%class.DD* noundef nonnull align 8 dereferenceable(40) %2) #6, !dbg !601
  ret void, !dbg !601
}

; Function Attrs: noinline uwtable
define linkonce_odr dso_local void @_ZThn16_N2DD13hh_v_00000019Ev(%class.DD* noundef %this) unnamed_addr #5 comdat align 2 !dbg !602 {
entry:
  %0 = bitcast %class.DD* %this to i8*, !dbg !603
  %1 = getelementptr inbounds i8, i8* %0, i64 -16, !dbg !603
  %2 = bitcast i8* %1 to %class.DD*, !dbg !603
  tail call void @_ZN2DD13hh_v_00000019Ev(%class.DD* noundef nonnull align 8 dereferenceable(40) %2) #6, !dbg !603
  ret void, !dbg !603
}

; Function Attrs: noinline uwtable
define linkonce_odr dso_local void @_ZThn16_N2DD13hh_v_00000020Ev(%class.DD* noundef %this) unnamed_addr #5 comdat align 2 !dbg !604 {
entry:
  %0 = bitcast %class.DD* %this to i8*, !dbg !605
  %1 = getelementptr inbounds i8, i8* %0, i64 -16, !dbg !605
  %2 = bitcast i8* %1 to %class.DD*, !dbg !605
  tail call void @_ZN2DD13hh_v_00000020Ev(%class.DD* noundef nonnull align 8 dereferenceable(40) %2) #6, !dbg !605
  ret void, !dbg !605
}

; Function Attrs: noinline uwtable
define linkonce_odr dso_local void @_ZThn16_N2DD13hh_v_00000021Ev(%class.DD* noundef %this) unnamed_addr #5 comdat align 2 !dbg !606 {
entry:
  %0 = bitcast %class.DD* %this to i8*, !dbg !607
  %1 = getelementptr inbounds i8, i8* %0, i64 -16, !dbg !607
  %2 = bitcast i8* %1 to %class.DD*, !dbg !607
  tail call void @_ZN2DD13hh_v_00000021Ev(%class.DD* noundef nonnull align 8 dereferenceable(40) %2) #6, !dbg !607
  ret void, !dbg !607
}

; Function Attrs: noinline uwtable
define linkonce_odr dso_local void @_ZThn16_N2DD13hh_v_00000022Ev(%class.DD* noundef %this) unnamed_addr #5 comdat align 2 !dbg !608 {
entry:
  %0 = bitcast %class.DD* %this to i8*, !dbg !609
  %1 = getelementptr inbounds i8, i8* %0, i64 -16, !dbg !609
  %2 = bitcast i8* %1 to %class.DD*, !dbg !609
  tail call void @_ZN2DD13hh_v_00000022Ev(%class.DD* noundef nonnull align 8 dereferenceable(40) %2) #6, !dbg !609
  ret void, !dbg !609
}

; Function Attrs: noinline uwtable
define linkonce_odr dso_local void @_ZThn16_N2DD13hh_v_00000023Ev(%class.DD* noundef %this) unnamed_addr #5 comdat align 2 !dbg !610 {
entry:
  %0 = bitcast %class.DD* %this to i8*, !dbg !611
  %1 = getelementptr inbounds i8, i8* %0, i64 -16, !dbg !611
  %2 = bitcast i8* %1 to %class.DD*, !dbg !611
  tail call void @_ZN2DD13hh_v_00000023Ev(%class.DD* noundef nonnull align 8 dereferenceable(40) %2) #6, !dbg !611
  ret void, !dbg !611
}

; Function Attrs: noinline uwtable
define linkonce_odr dso_local void @_ZThn16_N2DD13hh_v_00000024Ev(%class.DD* noundef %this) unnamed_addr #5 comdat align 2 !dbg !612 {
entry:
  %0 = bitcast %class.DD* %this to i8*, !dbg !613
  %1 = getelementptr inbounds i8, i8* %0, i64 -16, !dbg !613
  %2 = bitcast i8* %1 to %class.DD*, !dbg !613
  tail call void @_ZN2DD13hh_v_00000024Ev(%class.DD* noundef nonnull align 8 dereferenceable(40) %2) #6, !dbg !613
  ret void, !dbg !613
}

; Function Attrs: noinline uwtable
define linkonce_odr dso_local void @_ZThn16_N2DD13hh_v_00000025Ev(%class.DD* noundef %this) unnamed_addr #5 comdat align 2 !dbg !614 {
entry:
  %0 = bitcast %class.DD* %this to i8*, !dbg !615
  %1 = getelementptr inbounds i8, i8* %0, i64 -16, !dbg !615
  %2 = bitcast i8* %1 to %class.DD*, !dbg !615
  tail call void @_ZN2DD13hh_v_00000025Ev(%class.DD* noundef nonnull align 8 dereferenceable(40) %2) #6, !dbg !615
  ret void, !dbg !615
}

; Function Attrs: noinline uwtable
define linkonce_odr dso_local void @_ZThn16_N2DD13hh_v_00000026Ev(%class.DD* noundef %this) unnamed_addr #5 comdat align 2 !dbg !616 {
entry:
  %0 = bitcast %class.DD* %this to i8*, !dbg !617
  %1 = getelementptr inbounds i8, i8* %0, i64 -16, !dbg !617
  %2 = bitcast i8* %1 to %class.DD*, !dbg !617
  tail call void @_ZN2DD13hh_v_00000026Ev(%class.DD* noundef nonnull align 8 dereferenceable(40) %2) #6, !dbg !617
  ret void, !dbg !617
}

; Function Attrs: noinline uwtable
define linkonce_odr dso_local void @_ZThn16_N2DD13hh_v_00000027Ev(%class.DD* noundef %this) unnamed_addr #5 comdat align 2 !dbg !618 {
entry:
  %0 = bitcast %class.DD* %this to i8*, !dbg !619
  %1 = getelementptr inbounds i8, i8* %0, i64 -16, !dbg !619
  %2 = bitcast i8* %1 to %class.DD*, !dbg !619
  tail call void @_ZN2DD13hh_v_00000027Ev(%class.DD* noundef nonnull align 8 dereferenceable(40) %2) #6, !dbg !619
  ret void, !dbg !619
}

; Function Attrs: noinline uwtable
define linkonce_odr dso_local void @_ZThn16_N2DD13hh_v_00000028Ev(%class.DD* noundef %this) unnamed_addr #5 comdat align 2 !dbg !620 {
entry:
  %0 = bitcast %class.DD* %this to i8*, !dbg !621
  %1 = getelementptr inbounds i8, i8* %0, i64 -16, !dbg !621
  %2 = bitcast i8* %1 to %class.DD*, !dbg !621
  tail call void @_ZN2DD13hh_v_00000028Ev(%class.DD* noundef nonnull align 8 dereferenceable(40) %2) #6, !dbg !621
  ret void, !dbg !621
}

; Function Attrs: mustprogress noinline nounwind uwtable
define linkonce_odr dso_local void @_ZN2CC13hh_v_00000029Ev(%class.CC* noundef nonnull align 8 dereferenceable(16) %this) unnamed_addr #4 comdat align 2 !dbg !622 {
entry:
  call void @llvm.dbg.value(metadata %class.CC* %this, metadata !623, metadata !DIExpression()), !dbg !624
  ret void, !dbg !625
}

; Function Attrs: mustprogress noinline nounwind uwtable
define linkonce_odr dso_local void @_ZN2CC13hh_v_00000000Ev(%class.CC* noundef nonnull align 8 dereferenceable(16) %this) unnamed_addr #4 comdat align 2 !dbg !626 {
entry:
  call void @llvm.dbg.value(metadata %class.CC* %this, metadata !627, metadata !DIExpression()), !dbg !628
  ret void, !dbg !629
}

; Function Attrs: mustprogress noinline nounwind uwtable
define linkonce_odr dso_local void @_ZN2CC13hh_v_00000001Ev(%class.CC* noundef nonnull align 8 dereferenceable(16) %this) unnamed_addr #4 comdat align 2 !dbg !630 {
entry:
  call void @llvm.dbg.value(metadata %class.CC* %this, metadata !631, metadata !DIExpression()), !dbg !632
  ret void, !dbg !633
}

; Function Attrs: mustprogress noinline nounwind uwtable
define linkonce_odr dso_local void @_ZN2CC13hh_v_00000002Ev(%class.CC* noundef nonnull align 8 dereferenceable(16) %this) unnamed_addr #4 comdat align 2 !dbg !634 {
entry:
  call void @llvm.dbg.value(metadata %class.CC* %this, metadata !635, metadata !DIExpression()), !dbg !636
  ret void, !dbg !637
}

; Function Attrs: mustprogress noinline nounwind uwtable
define linkonce_odr dso_local void @_ZN2CC13hh_v_00000003Ev(%class.CC* noundef nonnull align 8 dereferenceable(16) %this) unnamed_addr #4 comdat align 2 !dbg !638 {
entry:
  call void @llvm.dbg.value(metadata %class.CC* %this, metadata !639, metadata !DIExpression()), !dbg !640
  ret void, !dbg !641
}

; Function Attrs: mustprogress noinline nounwind uwtable
define linkonce_odr dso_local void @_ZN2CC13hh_v_00000004Ev(%class.CC* noundef nonnull align 8 dereferenceable(16) %this) unnamed_addr #4 comdat align 2 !dbg !642 {
entry:
  call void @llvm.dbg.value(metadata %class.CC* %this, metadata !643, metadata !DIExpression()), !dbg !644
  ret void, !dbg !645
}

; Function Attrs: mustprogress noinline nounwind uwtable
define linkonce_odr dso_local void @_ZN2CC13hh_v_00000005Ev(%class.CC* noundef nonnull align 8 dereferenceable(16) %this) unnamed_addr #4 comdat align 2 !dbg !646 {
entry:
  call void @llvm.dbg.value(metadata %class.CC* %this, metadata !647, metadata !DIExpression()), !dbg !648
  ret void, !dbg !649
}

; Function Attrs: mustprogress noinline nounwind uwtable
define linkonce_odr dso_local void @_ZN2CC13hh_v_00000006Ev(%class.CC* noundef nonnull align 8 dereferenceable(16) %this) unnamed_addr #4 comdat align 2 !dbg !650 {
entry:
  call void @llvm.dbg.value(metadata %class.CC* %this, metadata !651, metadata !DIExpression()), !dbg !652
  ret void, !dbg !653
}

; Function Attrs: mustprogress noinline nounwind uwtable
define linkonce_odr dso_local void @_ZN2CC13hh_v_00000007Ev(%class.CC* noundef nonnull align 8 dereferenceable(16) %this) unnamed_addr #4 comdat align 2 !dbg !654 {
entry:
  call void @llvm.dbg.value(metadata %class.CC* %this, metadata !655, metadata !DIExpression()), !dbg !656
  ret void, !dbg !657
}

; Function Attrs: mustprogress noinline nounwind uwtable
define linkonce_odr dso_local void @_ZN2CC13hh_v_00000008Ev(%class.CC* noundef nonnull align 8 dereferenceable(16) %this) unnamed_addr #4 comdat align 2 !dbg !658 {
entry:
  call void @llvm.dbg.value(metadata %class.CC* %this, metadata !659, metadata !DIExpression()), !dbg !660
  ret void, !dbg !661
}

; Function Attrs: mustprogress noinline nounwind uwtable
define linkonce_odr dso_local void @_ZN2CC13hh_v_00000009Ev(%class.CC* noundef nonnull align 8 dereferenceable(16) %this) unnamed_addr #4 comdat align 2 !dbg !662 {
entry:
  call void @llvm.dbg.value(metadata %class.CC* %this, metadata !663, metadata !DIExpression()), !dbg !664
  ret void, !dbg !665
}

; Function Attrs: mustprogress noinline nounwind uwtable
define linkonce_odr dso_local void @_ZN2CC13hh_v_00000010Ev(%class.CC* noundef nonnull align 8 dereferenceable(16) %this) unnamed_addr #4 comdat align 2 !dbg !666 {
entry:
  call void @llvm.dbg.value(metadata %class.CC* %this, metadata !667, metadata !DIExpression()), !dbg !668
  ret void, !dbg !669
}

; Function Attrs: mustprogress noinline nounwind uwtable
define linkonce_odr dso_local void @_ZN2CC13hh_v_00000011Ev(%class.CC* noundef nonnull align 8 dereferenceable(16) %this) unnamed_addr #4 comdat align 2 !dbg !670 {
entry:
  call void @llvm.dbg.value(metadata %class.CC* %this, metadata !671, metadata !DIExpression()), !dbg !672
  ret void, !dbg !673
}

; Function Attrs: mustprogress noinline nounwind uwtable
define linkonce_odr dso_local void @_ZN2CC13hh_v_00000012Ev(%class.CC* noundef nonnull align 8 dereferenceable(16) %this) unnamed_addr #4 comdat align 2 !dbg !674 {
entry:
  call void @llvm.dbg.value(metadata %class.CC* %this, metadata !675, metadata !DIExpression()), !dbg !676
  ret void, !dbg !677
}

; Function Attrs: mustprogress noinline nounwind uwtable
define linkonce_odr dso_local void @_ZN2CC13hh_v_00000013Ev(%class.CC* noundef nonnull align 8 dereferenceable(16) %this) unnamed_addr #4 comdat align 2 !dbg !678 {
entry:
  call void @llvm.dbg.value(metadata %class.CC* %this, metadata !679, metadata !DIExpression()), !dbg !680
  ret void, !dbg !681
}

; Function Attrs: mustprogress noinline nounwind uwtable
define linkonce_odr dso_local void @_ZN2CC13hh_v_00000014Ev(%class.CC* noundef nonnull align 8 dereferenceable(16) %this) unnamed_addr #4 comdat align 2 !dbg !682 {
entry:
  call void @llvm.dbg.value(metadata %class.CC* %this, metadata !683, metadata !DIExpression()), !dbg !684
  ret void, !dbg !685
}

; Function Attrs: mustprogress noinline nounwind uwtable
define linkonce_odr dso_local void @_ZN2CC13hh_v_00000015Ev(%class.CC* noundef nonnull align 8 dereferenceable(16) %this) unnamed_addr #4 comdat align 2 !dbg !686 {
entry:
  call void @llvm.dbg.value(metadata %class.CC* %this, metadata !687, metadata !DIExpression()), !dbg !688
  ret void, !dbg !689
}

; Function Attrs: mustprogress noinline nounwind uwtable
define linkonce_odr dso_local void @_ZN2CC13hh_v_00000016Ev(%class.CC* noundef nonnull align 8 dereferenceable(16) %this) unnamed_addr #4 comdat align 2 !dbg !690 {
entry:
  call void @llvm.dbg.value(metadata %class.CC* %this, metadata !691, metadata !DIExpression()), !dbg !692
  ret void, !dbg !693
}

; Function Attrs: mustprogress noinline nounwind uwtable
define linkonce_odr dso_local void @_ZN2CC13hh_v_00000017Ev(%class.CC* noundef nonnull align 8 dereferenceable(16) %this) unnamed_addr #4 comdat align 2 !dbg !694 {
entry:
  call void @llvm.dbg.value(metadata %class.CC* %this, metadata !695, metadata !DIExpression()), !dbg !696
  ret void, !dbg !697
}

; Function Attrs: mustprogress noinline nounwind uwtable
define linkonce_odr dso_local void @_ZN2CC13hh_v_00000018Ev(%class.CC* noundef nonnull align 8 dereferenceable(16) %this) unnamed_addr #4 comdat align 2 !dbg !698 {
entry:
  call void @llvm.dbg.value(metadata %class.CC* %this, metadata !699, metadata !DIExpression()), !dbg !700
  ret void, !dbg !701
}

; Function Attrs: mustprogress noinline nounwind uwtable
define linkonce_odr dso_local void @_ZN2CC13hh_v_00000019Ev(%class.CC* noundef nonnull align 8 dereferenceable(16) %this) unnamed_addr #4 comdat align 2 !dbg !702 {
entry:
  call void @llvm.dbg.value(metadata %class.CC* %this, metadata !703, metadata !DIExpression()), !dbg !704
  ret void, !dbg !705
}

; Function Attrs: mustprogress noinline nounwind uwtable
define linkonce_odr dso_local void @_ZN2CC13hh_v_00000020Ev(%class.CC* noundef nonnull align 8 dereferenceable(16) %this) unnamed_addr #4 comdat align 2 !dbg !706 {
entry:
  call void @llvm.dbg.value(metadata %class.CC* %this, metadata !707, metadata !DIExpression()), !dbg !708
  ret void, !dbg !709
}

; Function Attrs: mustprogress noinline nounwind uwtable
define linkonce_odr dso_local void @_ZN2CC13hh_v_00000021Ev(%class.CC* noundef nonnull align 8 dereferenceable(16) %this) unnamed_addr #4 comdat align 2 !dbg !710 {
entry:
  call void @llvm.dbg.value(metadata %class.CC* %this, metadata !711, metadata !DIExpression()), !dbg !712
  ret void, !dbg !713
}

; Function Attrs: mustprogress noinline nounwind uwtable
define linkonce_odr dso_local void @_ZN2CC13hh_v_00000022Ev(%class.CC* noundef nonnull align 8 dereferenceable(16) %this) unnamed_addr #4 comdat align 2 !dbg !714 {
entry:
  call void @llvm.dbg.value(metadata %class.CC* %this, metadata !715, metadata !DIExpression()), !dbg !716
  ret void, !dbg !717
}

; Function Attrs: mustprogress noinline nounwind uwtable
define linkonce_odr dso_local void @_ZN2CC13hh_v_00000023Ev(%class.CC* noundef nonnull align 8 dereferenceable(16) %this) unnamed_addr #4 comdat align 2 !dbg !718 {
entry:
  call void @llvm.dbg.value(metadata %class.CC* %this, metadata !719, metadata !DIExpression()), !dbg !720
  ret void, !dbg !721
}

; Function Attrs: mustprogress noinline nounwind uwtable
define linkonce_odr dso_local void @_ZN2CC13hh_v_00000024Ev(%class.CC* noundef nonnull align 8 dereferenceable(16) %this) unnamed_addr #4 comdat align 2 !dbg !722 {
entry:
  call void @llvm.dbg.value(metadata %class.CC* %this, metadata !723, metadata !DIExpression()), !dbg !724
  ret void, !dbg !725
}

; Function Attrs: mustprogress noinline nounwind uwtable
define linkonce_odr dso_local void @_ZN2CC13hh_v_00000025Ev(%class.CC* noundef nonnull align 8 dereferenceable(16) %this) unnamed_addr #4 comdat align 2 !dbg !726 {
entry:
  call void @llvm.dbg.value(metadata %class.CC* %this, metadata !727, metadata !DIExpression()), !dbg !728
  ret void, !dbg !729
}

; Function Attrs: mustprogress noinline nounwind uwtable
define linkonce_odr dso_local void @_ZN2CC13hh_v_00000026Ev(%class.CC* noundef nonnull align 8 dereferenceable(16) %this) unnamed_addr #4 comdat align 2 !dbg !730 {
entry:
  call void @llvm.dbg.value(metadata %class.CC* %this, metadata !731, metadata !DIExpression()), !dbg !732
  ret void, !dbg !733
}

; Function Attrs: mustprogress noinline nounwind uwtable
define linkonce_odr dso_local void @_ZN2CC13hh_v_00000027Ev(%class.CC* noundef nonnull align 8 dereferenceable(16) %this) unnamed_addr #4 comdat align 2 !dbg !734 {
entry:
  call void @llvm.dbg.value(metadata %class.CC* %this, metadata !735, metadata !DIExpression()), !dbg !736
  ret void, !dbg !737
}

; Function Attrs: mustprogress noinline nounwind uwtable
define linkonce_odr dso_local void @_ZN2CC13hh_v_00000028Ev(%class.CC* noundef nonnull align 8 dereferenceable(16) %this) unnamed_addr #4 comdat align 2 !dbg !738 {
entry:
  call void @llvm.dbg.value(metadata %class.CC* %this, metadata !739, metadata !DIExpression()), !dbg !740
  ret void, !dbg !741
}

; Function Attrs: mustprogress noinline nounwind uwtable
define linkonce_odr dso_local void @_ZN2BB13gg_v_00000000Ev(%class.BB* noundef nonnull align 8 dereferenceable(16) %this) unnamed_addr #4 comdat align 2 !dbg !742 {
entry:
  call void @llvm.dbg.value(metadata %class.BB* %this, metadata !743, metadata !DIExpression()), !dbg !744
  ret void, !dbg !745
}

; Function Attrs: mustprogress noinline nounwind uwtable
define linkonce_odr dso_local void @_ZN2BB13gg_v_00000001Ev(%class.BB* noundef nonnull align 8 dereferenceable(16) %this) unnamed_addr #4 comdat align 2 !dbg !746 {
entry:
  call void @llvm.dbg.value(metadata %class.BB* %this, metadata !747, metadata !DIExpression()), !dbg !748
  ret void, !dbg !749
}

; Function Attrs: mustprogress noinline nounwind uwtable
define linkonce_odr dso_local void @_ZN2BB13gg_v_00000002Ev(%class.BB* noundef nonnull align 8 dereferenceable(16) %this) unnamed_addr #4 comdat align 2 !dbg !750 {
entry:
  call void @llvm.dbg.value(metadata %class.BB* %this, metadata !751, metadata !DIExpression()), !dbg !752
  ret void, !dbg !753
}

; Function Attrs: mustprogress noinline nounwind uwtable
define linkonce_odr dso_local void @_ZN2BB13gg_v_00000003Ev(%class.BB* noundef nonnull align 8 dereferenceable(16) %this) unnamed_addr #4 comdat align 2 !dbg !754 {
entry:
  call void @llvm.dbg.value(metadata %class.BB* %this, metadata !755, metadata !DIExpression()), !dbg !756
  ret void, !dbg !757
}

; Function Attrs: mustprogress noinline nounwind uwtable
define linkonce_odr dso_local void @_ZN2BB13gg_v_00000004Ev(%class.BB* noundef nonnull align 8 dereferenceable(16) %this) unnamed_addr #4 comdat align 2 !dbg !758 {
entry:
  call void @llvm.dbg.value(metadata %class.BB* %this, metadata !759, metadata !DIExpression()), !dbg !760
  ret void, !dbg !761
}

; Function Attrs: nofree nosync nounwind readnone speculatable willreturn
declare void @llvm.dbg.value(metadata, metadata, metadata) #1

attributes #0 = { mustprogress noinline uwtable "frame-pointer"="all" "min-legal-vector-width"="0" "no-builtins" "no-trapping-math"="true" "stack-protector-buffer-size"="8" "target-cpu"="x86-64" "target-features"="+cx8,+fxsr,+mmx,+sse,+sse2,+x87" "tune-cpu"="generic" }
attributes #1 = { nofree nosync nounwind readnone speculatable willreturn }
attributes #2 = { mustprogress noinline norecurse uwtable "frame-pointer"="all" "min-legal-vector-width"="0" "no-builtins" "no-trapping-math"="true" "stack-protector-buffer-size"="8" "target-cpu"="x86-64" "target-features"="+cx8,+fxsr,+mmx,+sse,+sse2,+x87" "tune-cpu"="generic" }
attributes #3 = { noinline nounwind uwtable "frame-pointer"="all" "min-legal-vector-width"="0" "no-builtins" "no-trapping-math"="true" "stack-protector-buffer-size"="8" "target-cpu"="x86-64" "target-features"="+cx8,+fxsr,+mmx,+sse,+sse2,+x87" "tune-cpu"="generic" }
attributes #4 = { mustprogress noinline nounwind uwtable "frame-pointer"="all" "min-legal-vector-width"="0" "no-builtins" "no-trapping-math"="true" "stack-protector-buffer-size"="8" "target-cpu"="x86-64" "target-features"="+cx8,+fxsr,+mmx,+sse,+sse2,+x87" "tune-cpu"="generic" }
attributes #5 = { noinline uwtable "frame-pointer"="all" "min-legal-vector-width"="0" "no-builtins" "no-trapping-math"="true" "stack-protector-buffer-size"="8" "target-cpu"="x86-64" "target-features"="+cx8,+fxsr,+mmx,+sse,+sse2,+x87" "tune-cpu"="generic" }
attributes #6 = { nobuiltin "no-builtins" }
attributes #7 = { nobuiltin nounwind "no-builtins" }

!llvm.dbg.cu = !{!0}
!llvm.ident = !{!160}
!llvm.module.flags = !{!161, !162, !163, !164, !165}

!0 = distinct !DICompileUnit(language: DW_LANG_C_plus_plus_14, file: !1, producer: "clang version 14.0.0", isOptimized: false, runtimeVersion: 0, emissionKind: FullDebug, retainedTypes: !2, splitDebugInlining: false, nameTableKind: None)
!1 = !DIFile(filename: "MicroBenchmark/multiple_v1_nv0/multiple_v1_nv0_30_8.cpp", directory: "/home/iron/Downloads/PrivateTIPS/Benchmarks", checksumkind: CSK_MD5, checksum: "ad461ce1a580fdb15bbff89fe15d3a7a")
!2 = !{!3, !7, !52}
!3 = distinct !DICompositeType(tag: DW_TAG_class_type, name: "DD", file: !4, line: 76, size: 320, flags: DIFlagTypePassByReference | DIFlagNonTrivial, elements: !5, vtableHolder: !7, identifier: "_ZTS2DD")
!4 = !DIFile(filename: "./MicroBenchmark/multiple_v1_nv0/multiple_v1_nv0_30_8.cpp", directory: "/home/iron/Downloads/PrivateTIPS/Benchmarks", checksumkind: CSK_MD5, checksum: "ad461ce1a580fdb15bbff89fe15d3a7a")
!5 = !{!6, !51, !92, !93, !97, !98, !99, !100, !101, !102, !103, !104, !105, !106, !107, !108, !109, !110, !111, !112, !113, !114, !115, !116, !117, !118, !119, !120, !121, !122, !123, !124, !125, !126, !127, !128, !129, !130, !131, !132, !133, !134, !135, !136, !137, !138, !139, !140, !141, !142, !143, !144, !145, !146, !147, !148, !149, !150, !151, !152, !153, !154, !155, !156, !157, !158, !159}
!6 = !DIDerivedType(tag: DW_TAG_inheritance, scope: !3, baseType: !7, flags: DIFlagPublic, extraData: i32 0)
!7 = distinct !DICompositeType(tag: DW_TAG_class_type, name: "BB", file: !4, line: 2, size: 128, flags: DIFlagTypePassByReference | DIFlagNonTrivial, elements: !8, vtableHolder: !7, identifier: "_ZTS2BB")
!8 = !{!9, !15, !18, !22, !23, !24, !25, !26, !27, !28, !29, !30, !31, !32, !33, !34, !35, !36, !37, !38, !39, !40, !41, !42, !43, !44, !45, !46, !47, !48, !49, !50}
!9 = !DIDerivedType(tag: DW_TAG_member, name: "_vptr$BB", scope: !4, file: !4, baseType: !10, size: 64, flags: DIFlagArtificial)
!10 = !DIDerivedType(tag: DW_TAG_pointer_type, baseType: !11, size: 64)
!11 = !DIDerivedType(tag: DW_TAG_pointer_type, name: "__vtbl_ptr_type", baseType: !12, size: 64)
!12 = !DISubroutineType(types: !13)
!13 = !{!14}
!14 = !DIBasicType(name: "int", size: 32, encoding: DW_ATE_signed)
!15 = !DIDerivedType(tag: DW_TAG_member, name: "bb", scope: !7, file: !4, line: 4, baseType: !16, size: 64, offset: 64, flags: DIFlagPublic)
!16 = !DIDerivedType(tag: DW_TAG_pointer_type, baseType: !17, size: 64)
!17 = !DIBasicType(name: "long", size: 64, encoding: DW_ATE_signed)
!18 = !DISubprogram(name: "gg_v_00000000", linkageName: "_ZN2BB13gg_v_00000000Ev", scope: !7, file: !4, line: 6, type: !19, scopeLine: 6, containingType: !7, virtualIndex: 0, flags: DIFlagPublic | DIFlagPrototyped, spFlags: DISPFlagVirtual)
!19 = !DISubroutineType(types: !20)
!20 = !{null, !21}
!21 = !DIDerivedType(tag: DW_TAG_pointer_type, baseType: !7, size: 64, flags: DIFlagArtificial | DIFlagObjectPointer)
!22 = !DISubprogram(name: "gg_v_00000001", linkageName: "_ZN2BB13gg_v_00000001Ev", scope: !7, file: !4, line: 7, type: !19, scopeLine: 7, containingType: !7, virtualIndex: 1, flags: DIFlagPublic | DIFlagPrototyped, spFlags: DISPFlagVirtual)
!23 = !DISubprogram(name: "gg_v_00000002", linkageName: "_ZN2BB13gg_v_00000002Ev", scope: !7, file: !4, line: 8, type: !19, scopeLine: 8, containingType: !7, virtualIndex: 2, flags: DIFlagPublic | DIFlagPrototyped, spFlags: DISPFlagVirtual)
!24 = !DISubprogram(name: "gg_v_00000003", linkageName: "_ZN2BB13gg_v_00000003Ev", scope: !7, file: !4, line: 9, type: !19, scopeLine: 9, containingType: !7, virtualIndex: 3, flags: DIFlagPublic | DIFlagPrototyped, spFlags: DISPFlagVirtual)
!25 = !DISubprogram(name: "gg_v_00000004", linkageName: "_ZN2BB13gg_v_00000004Ev", scope: !7, file: !4, line: 10, type: !19, scopeLine: 10, containingType: !7, virtualIndex: 4, flags: DIFlagPublic | DIFlagPrototyped, spFlags: DISPFlagVirtual)
!26 = !DISubprogram(name: "gg_v_00000005", linkageName: "_ZN2BB13gg_v_00000005Ev", scope: !7, file: !4, line: 11, type: !19, scopeLine: 11, containingType: !7, virtualIndex: 5, flags: DIFlagPublic | DIFlagPrototyped, spFlags: DISPFlagVirtual)
!27 = !DISubprogram(name: "gg_v_00000006", linkageName: "_ZN2BB13gg_v_00000006Ev", scope: !7, file: !4, line: 12, type: !19, scopeLine: 12, containingType: !7, virtualIndex: 6, flags: DIFlagPublic | DIFlagPrototyped, spFlags: DISPFlagVirtual)
!28 = !DISubprogram(name: "gg_v_00000007", linkageName: "_ZN2BB13gg_v_00000007Ev", scope: !7, file: !4, line: 13, type: !19, scopeLine: 13, containingType: !7, virtualIndex: 7, flags: DIFlagPublic | DIFlagPrototyped, spFlags: DISPFlagVirtual)
!29 = !DISubprogram(name: "gg_v_00000008", linkageName: "_ZN2BB13gg_v_00000008Ev", scope: !7, file: !4, line: 14, type: !19, scopeLine: 14, containingType: !7, virtualIndex: 8, flags: DIFlagPublic | DIFlagPrototyped, spFlags: DISPFlagVirtual)
!30 = !DISubprogram(name: "gg_v_00000009", linkageName: "_ZN2BB13gg_v_00000009Ev", scope: !7, file: !4, line: 15, type: !19, scopeLine: 15, containingType: !7, virtualIndex: 9, flags: DIFlagPublic | DIFlagPrototyped, spFlags: DISPFlagVirtual)
!31 = !DISubprogram(name: "gg_v_00000010", linkageName: "_ZN2BB13gg_v_00000010Ev", scope: !7, file: !4, line: 16, type: !19, scopeLine: 16, containingType: !7, virtualIndex: 10, flags: DIFlagPublic | DIFlagPrototyped, spFlags: DISPFlagVirtual)
!32 = !DISubprogram(name: "gg_v_00000011", linkageName: "_ZN2BB13gg_v_00000011Ev", scope: !7, file: !4, line: 17, type: !19, scopeLine: 17, containingType: !7, virtualIndex: 11, flags: DIFlagPublic | DIFlagPrototyped, spFlags: DISPFlagVirtual)
!33 = !DISubprogram(name: "gg_v_00000012", linkageName: "_ZN2BB13gg_v_00000012Ev", scope: !7, file: !4, line: 18, type: !19, scopeLine: 18, containingType: !7, virtualIndex: 12, flags: DIFlagPublic | DIFlagPrototyped, spFlags: DISPFlagVirtual)
!34 = !DISubprogram(name: "gg_v_00000013", linkageName: "_ZN2BB13gg_v_00000013Ev", scope: !7, file: !4, line: 19, type: !19, scopeLine: 19, containingType: !7, virtualIndex: 13, flags: DIFlagPublic | DIFlagPrototyped, spFlags: DISPFlagVirtual)
!35 = !DISubprogram(name: "gg_v_00000014", linkageName: "_ZN2BB13gg_v_00000014Ev", scope: !7, file: !4, line: 20, type: !19, scopeLine: 20, containingType: !7, virtualIndex: 14, flags: DIFlagPublic | DIFlagPrototyped, spFlags: DISPFlagVirtual)
!36 = !DISubprogram(name: "gg_v_00000015", linkageName: "_ZN2BB13gg_v_00000015Ev", scope: !7, file: !4, line: 21, type: !19, scopeLine: 21, containingType: !7, virtualIndex: 15, flags: DIFlagPublic | DIFlagPrototyped, spFlags: DISPFlagVirtual)
!37 = !DISubprogram(name: "gg_v_00000016", linkageName: "_ZN2BB13gg_v_00000016Ev", scope: !7, file: !4, line: 22, type: !19, scopeLine: 22, containingType: !7, virtualIndex: 16, flags: DIFlagPublic | DIFlagPrototyped, spFlags: DISPFlagVirtual)
!38 = !DISubprogram(name: "gg_v_00000017", linkageName: "_ZN2BB13gg_v_00000017Ev", scope: !7, file: !4, line: 23, type: !19, scopeLine: 23, containingType: !7, virtualIndex: 17, flags: DIFlagPublic | DIFlagPrototyped, spFlags: DISPFlagVirtual)
!39 = !DISubprogram(name: "gg_v_00000018", linkageName: "_ZN2BB13gg_v_00000018Ev", scope: !7, file: !4, line: 24, type: !19, scopeLine: 24, containingType: !7, virtualIndex: 18, flags: DIFlagPublic | DIFlagPrototyped, spFlags: DISPFlagVirtual)
!40 = !DISubprogram(name: "gg_v_00000019", linkageName: "_ZN2BB13gg_v_00000019Ev", scope: !7, file: !4, line: 25, type: !19, scopeLine: 25, containingType: !7, virtualIndex: 19, flags: DIFlagPublic | DIFlagPrototyped, spFlags: DISPFlagVirtual)
!41 = !DISubprogram(name: "gg_v_00000020", linkageName: "_ZN2BB13gg_v_00000020Ev", scope: !7, file: !4, line: 26, type: !19, scopeLine: 26, containingType: !7, virtualIndex: 20, flags: DIFlagPublic | DIFlagPrototyped, spFlags: DISPFlagVirtual)
!42 = !DISubprogram(name: "gg_v_00000021", linkageName: "_ZN2BB13gg_v_00000021Ev", scope: !7, file: !4, line: 27, type: !19, scopeLine: 27, containingType: !7, virtualIndex: 21, flags: DIFlagPublic | DIFlagPrototyped, spFlags: DISPFlagVirtual)
!43 = !DISubprogram(name: "gg_v_00000022", linkageName: "_ZN2BB13gg_v_00000022Ev", scope: !7, file: !4, line: 28, type: !19, scopeLine: 28, containingType: !7, virtualIndex: 22, flags: DIFlagPublic | DIFlagPrototyped, spFlags: DISPFlagVirtual)
!44 = !DISubprogram(name: "gg_v_00000023", linkageName: "_ZN2BB13gg_v_00000023Ev", scope: !7, file: !4, line: 29, type: !19, scopeLine: 29, containingType: !7, virtualIndex: 23, flags: DIFlagPublic | DIFlagPrototyped, spFlags: DISPFlagVirtual)
!45 = !DISubprogram(name: "gg_v_00000024", linkageName: "_ZN2BB13gg_v_00000024Ev", scope: !7, file: !4, line: 30, type: !19, scopeLine: 30, containingType: !7, virtualIndex: 24, flags: DIFlagPublic | DIFlagPrototyped, spFlags: DISPFlagVirtual)
!46 = !DISubprogram(name: "gg_v_00000025", linkageName: "_ZN2BB13gg_v_00000025Ev", scope: !7, file: !4, line: 31, type: !19, scopeLine: 31, containingType: !7, virtualIndex: 25, flags: DIFlagPublic | DIFlagPrototyped, spFlags: DISPFlagVirtual)
!47 = !DISubprogram(name: "gg_v_00000026", linkageName: "_ZN2BB13gg_v_00000026Ev", scope: !7, file: !4, line: 32, type: !19, scopeLine: 32, containingType: !7, virtualIndex: 26, flags: DIFlagPublic | DIFlagPrototyped, spFlags: DISPFlagVirtual)
!48 = !DISubprogram(name: "gg_v_00000027", linkageName: "_ZN2BB13gg_v_00000027Ev", scope: !7, file: !4, line: 33, type: !19, scopeLine: 33, containingType: !7, virtualIndex: 27, flags: DIFlagPublic | DIFlagPrototyped, spFlags: DISPFlagVirtual)
!49 = !DISubprogram(name: "gg_v_00000028", linkageName: "_ZN2BB13gg_v_00000028Ev", scope: !7, file: !4, line: 34, type: !19, scopeLine: 34, containingType: !7, virtualIndex: 28, flags: DIFlagPublic | DIFlagPrototyped, spFlags: DISPFlagVirtual)
!50 = !DISubprogram(name: "gg_v_00000029", linkageName: "_ZN2BB13gg_v_00000029Ev", scope: !7, file: !4, line: 35, type: !19, scopeLine: 35, containingType: !7, virtualIndex: 29, flags: DIFlagPublic | DIFlagPrototyped, spFlags: DISPFlagVirtual)
!51 = !DIDerivedType(tag: DW_TAG_inheritance, scope: !3, baseType: !52, offset: 128, flags: DIFlagPublic, extraData: i32 0)
!52 = distinct !DICompositeType(tag: DW_TAG_class_type, name: "CC", file: !4, line: 39, size: 128, flags: DIFlagTypePassByReference | DIFlagNonTrivial, elements: !53, vtableHolder: !52, identifier: "_ZTS2CC")
!53 = !{!54, !55, !59, !63, !64, !65, !66, !67, !68, !69, !70, !71, !72, !73, !74, !75, !76, !77, !78, !79, !80, !81, !82, !83, !84, !85, !86, !87, !88, !89, !90, !91}
!54 = !DIDerivedType(tag: DW_TAG_member, name: "_vptr$CC", scope: !4, file: !4, baseType: !10, size: 64, flags: DIFlagArtificial)
!55 = !DIDerivedType(tag: DW_TAG_member, name: "cc", scope: !52, file: !4, line: 41, baseType: !56, size: 64, offset: 64, flags: DIFlagPublic)
!56 = !DICompositeType(tag: DW_TAG_array_type, baseType: !14, size: 64, elements: !57)
!57 = !{!58}
!58 = !DISubrange(count: 2)
!59 = !DISubprogram(name: "hh_v_00000000", linkageName: "_ZN2CC13hh_v_00000000Ev", scope: !52, file: !4, line: 43, type: !60, scopeLine: 43, containingType: !52, virtualIndex: 0, flags: DIFlagPublic | DIFlagPrototyped, spFlags: DISPFlagVirtual)
!60 = !DISubroutineType(types: !61)
!61 = !{null, !62}
!62 = !DIDerivedType(tag: DW_TAG_pointer_type, baseType: !52, size: 64, flags: DIFlagArtificial | DIFlagObjectPointer)
!63 = !DISubprogram(name: "hh_v_00000001", linkageName: "_ZN2CC13hh_v_00000001Ev", scope: !52, file: !4, line: 44, type: !60, scopeLine: 44, containingType: !52, virtualIndex: 1, flags: DIFlagPublic | DIFlagPrototyped, spFlags: DISPFlagVirtual)
!64 = !DISubprogram(name: "hh_v_00000002", linkageName: "_ZN2CC13hh_v_00000002Ev", scope: !52, file: !4, line: 45, type: !60, scopeLine: 45, containingType: !52, virtualIndex: 2, flags: DIFlagPublic | DIFlagPrototyped, spFlags: DISPFlagVirtual)
!65 = !DISubprogram(name: "hh_v_00000003", linkageName: "_ZN2CC13hh_v_00000003Ev", scope: !52, file: !4, line: 46, type: !60, scopeLine: 46, containingType: !52, virtualIndex: 3, flags: DIFlagPublic | DIFlagPrototyped, spFlags: DISPFlagVirtual)
!66 = !DISubprogram(name: "hh_v_00000004", linkageName: "_ZN2CC13hh_v_00000004Ev", scope: !52, file: !4, line: 47, type: !60, scopeLine: 47, containingType: !52, virtualIndex: 4, flags: DIFlagPublic | DIFlagPrototyped, spFlags: DISPFlagVirtual)
!67 = !DISubprogram(name: "hh_v_00000005", linkageName: "_ZN2CC13hh_v_00000005Ev", scope: !52, file: !4, line: 48, type: !60, scopeLine: 48, containingType: !52, virtualIndex: 5, flags: DIFlagPublic | DIFlagPrototyped, spFlags: DISPFlagVirtual)
!68 = !DISubprogram(name: "hh_v_00000006", linkageName: "_ZN2CC13hh_v_00000006Ev", scope: !52, file: !4, line: 49, type: !60, scopeLine: 49, containingType: !52, virtualIndex: 6, flags: DIFlagPublic | DIFlagPrototyped, spFlags: DISPFlagVirtual)
!69 = !DISubprogram(name: "hh_v_00000007", linkageName: "_ZN2CC13hh_v_00000007Ev", scope: !52, file: !4, line: 50, type: !60, scopeLine: 50, containingType: !52, virtualIndex: 7, flags: DIFlagPublic | DIFlagPrototyped, spFlags: DISPFlagVirtual)
!70 = !DISubprogram(name: "hh_v_00000008", linkageName: "_ZN2CC13hh_v_00000008Ev", scope: !52, file: !4, line: 51, type: !60, scopeLine: 51, containingType: !52, virtualIndex: 8, flags: DIFlagPublic | DIFlagPrototyped, spFlags: DISPFlagVirtual)
!71 = !DISubprogram(name: "hh_v_00000009", linkageName: "_ZN2CC13hh_v_00000009Ev", scope: !52, file: !4, line: 52, type: !60, scopeLine: 52, containingType: !52, virtualIndex: 9, flags: DIFlagPublic | DIFlagPrototyped, spFlags: DISPFlagVirtual)
!72 = !DISubprogram(name: "hh_v_00000010", linkageName: "_ZN2CC13hh_v_00000010Ev", scope: !52, file: !4, line: 53, type: !60, scopeLine: 53, containingType: !52, virtualIndex: 10, flags: DIFlagPublic | DIFlagPrototyped, spFlags: DISPFlagVirtual)
!73 = !DISubprogram(name: "hh_v_00000011", linkageName: "_ZN2CC13hh_v_00000011Ev", scope: !52, file: !4, line: 54, type: !60, scopeLine: 54, containingType: !52, virtualIndex: 11, flags: DIFlagPublic | DIFlagPrototyped, spFlags: DISPFlagVirtual)
!74 = !DISubprogram(name: "hh_v_00000012", linkageName: "_ZN2CC13hh_v_00000012Ev", scope: !52, file: !4, line: 55, type: !60, scopeLine: 55, containingType: !52, virtualIndex: 12, flags: DIFlagPublic | DIFlagPrototyped, spFlags: DISPFlagVirtual)
!75 = !DISubprogram(name: "hh_v_00000013", linkageName: "_ZN2CC13hh_v_00000013Ev", scope: !52, file: !4, line: 56, type: !60, scopeLine: 56, containingType: !52, virtualIndex: 13, flags: DIFlagPublic | DIFlagPrototyped, spFlags: DISPFlagVirtual)
!76 = !DISubprogram(name: "hh_v_00000014", linkageName: "_ZN2CC13hh_v_00000014Ev", scope: !52, file: !4, line: 57, type: !60, scopeLine: 57, containingType: !52, virtualIndex: 14, flags: DIFlagPublic | DIFlagPrototyped, spFlags: DISPFlagVirtual)
!77 = !DISubprogram(name: "hh_v_00000015", linkageName: "_ZN2CC13hh_v_00000015Ev", scope: !52, file: !4, line: 58, type: !60, scopeLine: 58, containingType: !52, virtualIndex: 15, flags: DIFlagPublic | DIFlagPrototyped, spFlags: DISPFlagVirtual)
!78 = !DISubprogram(name: "hh_v_00000016", linkageName: "_ZN2CC13hh_v_00000016Ev", scope: !52, file: !4, line: 59, type: !60, scopeLine: 59, containingType: !52, virtualIndex: 16, flags: DIFlagPublic | DIFlagPrototyped, spFlags: DISPFlagVirtual)
!79 = !DISubprogram(name: "hh_v_00000017", linkageName: "_ZN2CC13hh_v_00000017Ev", scope: !52, file: !4, line: 60, type: !60, scopeLine: 60, containingType: !52, virtualIndex: 17, flags: DIFlagPublic | DIFlagPrototyped, spFlags: DISPFlagVirtual)
!80 = !DISubprogram(name: "hh_v_00000018", linkageName: "_ZN2CC13hh_v_00000018Ev", scope: !52, file: !4, line: 61, type: !60, scopeLine: 61, containingType: !52, virtualIndex: 18, flags: DIFlagPublic | DIFlagPrototyped, spFlags: DISPFlagVirtual)
!81 = !DISubprogram(name: "hh_v_00000019", linkageName: "_ZN2CC13hh_v_00000019Ev", scope: !52, file: !4, line: 62, type: !60, scopeLine: 62, containingType: !52, virtualIndex: 19, flags: DIFlagPublic | DIFlagPrototyped, spFlags: DISPFlagVirtual)
!82 = !DISubprogram(name: "hh_v_00000020", linkageName: "_ZN2CC13hh_v_00000020Ev", scope: !52, file: !4, line: 63, type: !60, scopeLine: 63, containingType: !52, virtualIndex: 20, flags: DIFlagPublic | DIFlagPrototyped, spFlags: DISPFlagVirtual)
!83 = !DISubprogram(name: "hh_v_00000021", linkageName: "_ZN2CC13hh_v_00000021Ev", scope: !52, file: !4, line: 64, type: !60, scopeLine: 64, containingType: !52, virtualIndex: 21, flags: DIFlagPublic | DIFlagPrototyped, spFlags: DISPFlagVirtual)
!84 = !DISubprogram(name: "hh_v_00000022", linkageName: "_ZN2CC13hh_v_00000022Ev", scope: !52, file: !4, line: 65, type: !60, scopeLine: 65, containingType: !52, virtualIndex: 22, flags: DIFlagPublic | DIFlagPrototyped, spFlags: DISPFlagVirtual)
!85 = !DISubprogram(name: "hh_v_00000023", linkageName: "_ZN2CC13hh_v_00000023Ev", scope: !52, file: !4, line: 66, type: !60, scopeLine: 66, containingType: !52, virtualIndex: 23, flags: DIFlagPublic | DIFlagPrototyped, spFlags: DISPFlagVirtual)
!86 = !DISubprogram(name: "hh_v_00000024", linkageName: "_ZN2CC13hh_v_00000024Ev", scope: !52, file: !4, line: 67, type: !60, scopeLine: 67, containingType: !52, virtualIndex: 24, flags: DIFlagPublic | DIFlagPrototyped, spFlags: DISPFlagVirtual)
!87 = !DISubprogram(name: "hh_v_00000025", linkageName: "_ZN2CC13hh_v_00000025Ev", scope: !52, file: !4, line: 68, type: !60, scopeLine: 68, containingType: !52, virtualIndex: 25, flags: DIFlagPublic | DIFlagPrototyped, spFlags: DISPFlagVirtual)
!88 = !DISubprogram(name: "hh_v_00000026", linkageName: "_ZN2CC13hh_v_00000026Ev", scope: !52, file: !4, line: 69, type: !60, scopeLine: 69, containingType: !52, virtualIndex: 26, flags: DIFlagPublic | DIFlagPrototyped, spFlags: DISPFlagVirtual)
!89 = !DISubprogram(name: "hh_v_00000027", linkageName: "_ZN2CC13hh_v_00000027Ev", scope: !52, file: !4, line: 70, type: !60, scopeLine: 70, containingType: !52, virtualIndex: 27, flags: DIFlagPublic | DIFlagPrototyped, spFlags: DISPFlagVirtual)
!90 = !DISubprogram(name: "hh_v_00000028", linkageName: "_ZN2CC13hh_v_00000028Ev", scope: !52, file: !4, line: 71, type: !60, scopeLine: 71, containingType: !52, virtualIndex: 28, flags: DIFlagPublic | DIFlagPrototyped, spFlags: DISPFlagVirtual)
!91 = !DISubprogram(name: "hh_v_00000029", linkageName: "_ZN2CC13hh_v_00000029Ev", scope: !52, file: !4, line: 72, type: !60, scopeLine: 72, containingType: !52, virtualIndex: 29, flags: DIFlagPublic | DIFlagPrototyped, spFlags: DISPFlagVirtual)
!92 = !DIDerivedType(tag: DW_TAG_member, name: "dd", scope: !3, file: !4, line: 78, baseType: !17, size: 64, offset: 256, flags: DIFlagPublic)
!93 = !DISubprogram(name: "gg_v_00000000", linkageName: "_ZN2DD13gg_v_00000000Ev", scope: !3, file: !4, line: 80, type: !94, scopeLine: 80, containingType: !3, virtualIndex: 0, flags: DIFlagPublic | DIFlagPrototyped, spFlags: DISPFlagVirtual)
!94 = !DISubroutineType(types: !95)
!95 = !{null, !96}
!96 = !DIDerivedType(tag: DW_TAG_pointer_type, baseType: !3, size: 64, flags: DIFlagArtificial | DIFlagObjectPointer)
!97 = !DISubprogram(name: "gg_v_00000001", linkageName: "_ZN2DD13gg_v_00000001Ev", scope: !3, file: !4, line: 81, type: !94, scopeLine: 81, containingType: !3, virtualIndex: 1, flags: DIFlagPublic | DIFlagPrototyped, spFlags: DISPFlagVirtual)
!98 = !DISubprogram(name: "gg_v_00000002", linkageName: "_ZN2DD13gg_v_00000002Ev", scope: !3, file: !4, line: 82, type: !94, scopeLine: 82, containingType: !3, virtualIndex: 2, flags: DIFlagPublic | DIFlagPrototyped, spFlags: DISPFlagVirtual)
!99 = !DISubprogram(name: "gg_v_00000003", linkageName: "_ZN2DD13gg_v_00000003Ev", scope: !3, file: !4, line: 83, type: !94, scopeLine: 83, containingType: !3, virtualIndex: 3, flags: DIFlagPublic | DIFlagPrototyped, spFlags: DISPFlagVirtual)
!100 = !DISubprogram(name: "gg_v_00000004", linkageName: "_ZN2DD13gg_v_00000004Ev", scope: !3, file: !4, line: 84, type: !94, scopeLine: 84, containingType: !3, virtualIndex: 4, flags: DIFlagPublic | DIFlagPrototyped, spFlags: DISPFlagVirtual)
!101 = !DISubprogram(name: "hh_v_00000000", linkageName: "_ZN2DD13hh_v_00000000Ev", scope: !3, file: !4, line: 86, type: !94, scopeLine: 86, containingType: !3, virtualIndex: 30, flags: DIFlagPublic | DIFlagPrototyped, spFlags: DISPFlagVirtual)
!102 = !DISubprogram(name: "hh_v_00000001", linkageName: "_ZN2DD13hh_v_00000001Ev", scope: !3, file: !4, line: 87, type: !94, scopeLine: 87, containingType: !3, virtualIndex: 31, flags: DIFlagPublic | DIFlagPrototyped, spFlags: DISPFlagVirtual)
!103 = !DISubprogram(name: "hh_v_00000002", linkageName: "_ZN2DD13hh_v_00000002Ev", scope: !3, file: !4, line: 88, type: !94, scopeLine: 88, containingType: !3, virtualIndex: 32, flags: DIFlagPublic | DIFlagPrototyped, spFlags: DISPFlagVirtual)
!104 = !DISubprogram(name: "hh_v_00000003", linkageName: "_ZN2DD13hh_v_00000003Ev", scope: !3, file: !4, line: 89, type: !94, scopeLine: 89, containingType: !3, virtualIndex: 33, flags: DIFlagPublic | DIFlagPrototyped, spFlags: DISPFlagVirtual)
!105 = !DISubprogram(name: "hh_v_00000004", linkageName: "_ZN2DD13hh_v_00000004Ev", scope: !3, file: !4, line: 90, type: !94, scopeLine: 90, containingType: !3, virtualIndex: 34, flags: DIFlagPublic | DIFlagPrototyped, spFlags: DISPFlagVirtual)
!106 = !DISubprogram(name: "hh_v_00000005", linkageName: "_ZN2DD13hh_v_00000005Ev", scope: !3, file: !4, line: 91, type: !94, scopeLine: 91, containingType: !3, virtualIndex: 35, flags: DIFlagPublic | DIFlagPrototyped, spFlags: DISPFlagVirtual)
!107 = !DISubprogram(name: "hh_v_00000006", linkageName: "_ZN2DD13hh_v_00000006Ev", scope: !3, file: !4, line: 92, type: !94, scopeLine: 92, containingType: !3, virtualIndex: 36, flags: DIFlagPublic | DIFlagPrototyped, spFlags: DISPFlagVirtual)
!108 = !DISubprogram(name: "hh_v_00000007", linkageName: "_ZN2DD13hh_v_00000007Ev", scope: !3, file: !4, line: 93, type: !94, scopeLine: 93, containingType: !3, virtualIndex: 37, flags: DIFlagPublic | DIFlagPrototyped, spFlags: DISPFlagVirtual)
!109 = !DISubprogram(name: "hh_v_00000008", linkageName: "_ZN2DD13hh_v_00000008Ev", scope: !3, file: !4, line: 94, type: !94, scopeLine: 94, containingType: !3, virtualIndex: 38, flags: DIFlagPublic | DIFlagPrototyped, spFlags: DISPFlagVirtual)
!110 = !DISubprogram(name: "hh_v_00000009", linkageName: "_ZN2DD13hh_v_00000009Ev", scope: !3, file: !4, line: 95, type: !94, scopeLine: 95, containingType: !3, virtualIndex: 39, flags: DIFlagPublic | DIFlagPrototyped, spFlags: DISPFlagVirtual)
!111 = !DISubprogram(name: "hh_v_00000010", linkageName: "_ZN2DD13hh_v_00000010Ev", scope: !3, file: !4, line: 96, type: !94, scopeLine: 96, containingType: !3, virtualIndex: 40, flags: DIFlagPublic | DIFlagPrototyped, spFlags: DISPFlagVirtual)
!112 = !DISubprogram(name: "hh_v_00000011", linkageName: "_ZN2DD13hh_v_00000011Ev", scope: !3, file: !4, line: 97, type: !94, scopeLine: 97, containingType: !3, virtualIndex: 41, flags: DIFlagPublic | DIFlagPrototyped, spFlags: DISPFlagVirtual)
!113 = !DISubprogram(name: "hh_v_00000012", linkageName: "_ZN2DD13hh_v_00000012Ev", scope: !3, file: !4, line: 98, type: !94, scopeLine: 98, containingType: !3, virtualIndex: 42, flags: DIFlagPublic | DIFlagPrototyped, spFlags: DISPFlagVirtual)
!114 = !DISubprogram(name: "hh_v_00000013", linkageName: "_ZN2DD13hh_v_00000013Ev", scope: !3, file: !4, line: 99, type: !94, scopeLine: 99, containingType: !3, virtualIndex: 43, flags: DIFlagPublic | DIFlagPrototyped, spFlags: DISPFlagVirtual)
!115 = !DISubprogram(name: "hh_v_00000014", linkageName: "_ZN2DD13hh_v_00000014Ev", scope: !3, file: !4, line: 100, type: !94, scopeLine: 100, containingType: !3, virtualIndex: 44, flags: DIFlagPublic | DIFlagPrototyped, spFlags: DISPFlagVirtual)
!116 = !DISubprogram(name: "hh_v_00000015", linkageName: "_ZN2DD13hh_v_00000015Ev", scope: !3, file: !4, line: 101, type: !94, scopeLine: 101, containingType: !3, virtualIndex: 45, flags: DIFlagPublic | DIFlagPrototyped, spFlags: DISPFlagVirtual)
!117 = !DISubprogram(name: "hh_v_00000016", linkageName: "_ZN2DD13hh_v_00000016Ev", scope: !3, file: !4, line: 102, type: !94, scopeLine: 102, containingType: !3, virtualIndex: 46, flags: DIFlagPublic | DIFlagPrototyped, spFlags: DISPFlagVirtual)
!118 = !DISubprogram(name: "hh_v_00000017", linkageName: "_ZN2DD13hh_v_00000017Ev", scope: !3, file: !4, line: 103, type: !94, scopeLine: 103, containingType: !3, virtualIndex: 47, flags: DIFlagPublic | DIFlagPrototyped, spFlags: DISPFlagVirtual)
!119 = !DISubprogram(name: "hh_v_00000018", linkageName: "_ZN2DD13hh_v_00000018Ev", scope: !3, file: !4, line: 104, type: !94, scopeLine: 104, containingType: !3, virtualIndex: 48, flags: DIFlagPublic | DIFlagPrototyped, spFlags: DISPFlagVirtual)
!120 = !DISubprogram(name: "hh_v_00000019", linkageName: "_ZN2DD13hh_v_00000019Ev", scope: !3, file: !4, line: 105, type: !94, scopeLine: 105, containingType: !3, virtualIndex: 49, flags: DIFlagPublic | DIFlagPrototyped, spFlags: DISPFlagVirtual)
!121 = !DISubprogram(name: "hh_v_00000020", linkageName: "_ZN2DD13hh_v_00000020Ev", scope: !3, file: !4, line: 106, type: !94, scopeLine: 106, containingType: !3, virtualIndex: 50, flags: DIFlagPublic | DIFlagPrototyped, spFlags: DISPFlagVirtual)
!122 = !DISubprogram(name: "hh_v_00000021", linkageName: "_ZN2DD13hh_v_00000021Ev", scope: !3, file: !4, line: 107, type: !94, scopeLine: 107, containingType: !3, virtualIndex: 51, flags: DIFlagPublic | DIFlagPrototyped, spFlags: DISPFlagVirtual)
!123 = !DISubprogram(name: "hh_v_00000022", linkageName: "_ZN2DD13hh_v_00000022Ev", scope: !3, file: !4, line: 108, type: !94, scopeLine: 108, containingType: !3, virtualIndex: 52, flags: DIFlagPublic | DIFlagPrototyped, spFlags: DISPFlagVirtual)
!124 = !DISubprogram(name: "hh_v_00000023", linkageName: "_ZN2DD13hh_v_00000023Ev", scope: !3, file: !4, line: 109, type: !94, scopeLine: 109, containingType: !3, virtualIndex: 53, flags: DIFlagPublic | DIFlagPrototyped, spFlags: DISPFlagVirtual)
!125 = !DISubprogram(name: "hh_v_00000024", linkageName: "_ZN2DD13hh_v_00000024Ev", scope: !3, file: !4, line: 110, type: !94, scopeLine: 110, containingType: !3, virtualIndex: 54, flags: DIFlagPublic | DIFlagPrototyped, spFlags: DISPFlagVirtual)
!126 = !DISubprogram(name: "hh_v_00000025", linkageName: "_ZN2DD13hh_v_00000025Ev", scope: !3, file: !4, line: 111, type: !94, scopeLine: 111, containingType: !3, virtualIndex: 55, flags: DIFlagPublic | DIFlagPrototyped, spFlags: DISPFlagVirtual)
!127 = !DISubprogram(name: "hh_v_00000026", linkageName: "_ZN2DD13hh_v_00000026Ev", scope: !3, file: !4, line: 112, type: !94, scopeLine: 112, containingType: !3, virtualIndex: 56, flags: DIFlagPublic | DIFlagPrototyped, spFlags: DISPFlagVirtual)
!128 = !DISubprogram(name: "hh_v_00000027", linkageName: "_ZN2DD13hh_v_00000027Ev", scope: !3, file: !4, line: 113, type: !94, scopeLine: 113, containingType: !3, virtualIndex: 57, flags: DIFlagPublic | DIFlagPrototyped, spFlags: DISPFlagVirtual)
!129 = !DISubprogram(name: "hh_v_00000028", linkageName: "_ZN2DD13hh_v_00000028Ev", scope: !3, file: !4, line: 114, type: !94, scopeLine: 114, containingType: !3, virtualIndex: 58, flags: DIFlagPublic | DIFlagPrototyped, spFlags: DISPFlagVirtual)
!130 = !DISubprogram(name: "ff_v_00000000", linkageName: "_ZN2DD13ff_v_00000000Ev", scope: !3, file: !4, line: 116, type: !94, scopeLine: 116, containingType: !3, virtualIndex: 59, flags: DIFlagPublic | DIFlagPrototyped, spFlags: DISPFlagVirtual)
!131 = !DISubprogram(name: "ff_v_00000001", linkageName: "_ZN2DD13ff_v_00000001Ev", scope: !3, file: !4, line: 117, type: !94, scopeLine: 117, containingType: !3, virtualIndex: 60, flags: DIFlagPublic | DIFlagPrototyped, spFlags: DISPFlagVirtual)
!132 = !DISubprogram(name: "ff_v_00000002", linkageName: "_ZN2DD13ff_v_00000002Ev", scope: !3, file: !4, line: 118, type: !94, scopeLine: 118, containingType: !3, virtualIndex: 61, flags: DIFlagPublic | DIFlagPrototyped, spFlags: DISPFlagVirtual)
!133 = !DISubprogram(name: "ff_v_00000003", linkageName: "_ZN2DD13ff_v_00000003Ev", scope: !3, file: !4, line: 119, type: !94, scopeLine: 119, containingType: !3, virtualIndex: 62, flags: DIFlagPublic | DIFlagPrototyped, spFlags: DISPFlagVirtual)
!134 = !DISubprogram(name: "ff_v_00000004", linkageName: "_ZN2DD13ff_v_00000004Ev", scope: !3, file: !4, line: 120, type: !94, scopeLine: 120, containingType: !3, virtualIndex: 63, flags: DIFlagPublic | DIFlagPrototyped, spFlags: DISPFlagVirtual)
!135 = !DISubprogram(name: "ff_v_00000005", linkageName: "_ZN2DD13ff_v_00000005Ev", scope: !3, file: !4, line: 121, type: !94, scopeLine: 121, containingType: !3, virtualIndex: 64, flags: DIFlagPublic | DIFlagPrototyped, spFlags: DISPFlagVirtual)
!136 = !DISubprogram(name: "ff_v_00000006", linkageName: "_ZN2DD13ff_v_00000006Ev", scope: !3, file: !4, line: 122, type: !94, scopeLine: 122, containingType: !3, virtualIndex: 65, flags: DIFlagPublic | DIFlagPrototyped, spFlags: DISPFlagVirtual)
!137 = !DISubprogram(name: "ff_v_00000007", linkageName: "_ZN2DD13ff_v_00000007Ev", scope: !3, file: !4, line: 123, type: !94, scopeLine: 123, containingType: !3, virtualIndex: 66, flags: DIFlagPublic | DIFlagPrototyped, spFlags: DISPFlagVirtual)
!138 = !DISubprogram(name: "ff_v_00000008", linkageName: "_ZN2DD13ff_v_00000008Ev", scope: !3, file: !4, line: 124, type: !94, scopeLine: 124, containingType: !3, virtualIndex: 67, flags: DIFlagPublic | DIFlagPrototyped, spFlags: DISPFlagVirtual)
!139 = !DISubprogram(name: "ff_v_00000009", linkageName: "_ZN2DD13ff_v_00000009Ev", scope: !3, file: !4, line: 125, type: !94, scopeLine: 125, containingType: !3, virtualIndex: 68, flags: DIFlagPublic | DIFlagPrototyped, spFlags: DISPFlagVirtual)
!140 = !DISubprogram(name: "ff_v_00000010", linkageName: "_ZN2DD13ff_v_00000010Ev", scope: !3, file: !4, line: 126, type: !94, scopeLine: 126, containingType: !3, virtualIndex: 69, flags: DIFlagPublic | DIFlagPrototyped, spFlags: DISPFlagVirtual)
!141 = !DISubprogram(name: "ff_v_00000011", linkageName: "_ZN2DD13ff_v_00000011Ev", scope: !3, file: !4, line: 127, type: !94, scopeLine: 127, containingType: !3, virtualIndex: 70, flags: DIFlagPublic | DIFlagPrototyped, spFlags: DISPFlagVirtual)
!142 = !DISubprogram(name: "ff_v_00000012", linkageName: "_ZN2DD13ff_v_00000012Ev", scope: !3, file: !4, line: 128, type: !94, scopeLine: 128, containingType: !3, virtualIndex: 71, flags: DIFlagPublic | DIFlagPrototyped, spFlags: DISPFlagVirtual)
!143 = !DISubprogram(name: "ff_v_00000013", linkageName: "_ZN2DD13ff_v_00000013Ev", scope: !3, file: !4, line: 129, type: !94, scopeLine: 129, containingType: !3, virtualIndex: 72, flags: DIFlagPublic | DIFlagPrototyped, spFlags: DISPFlagVirtual)
!144 = !DISubprogram(name: "ff_v_00000014", linkageName: "_ZN2DD13ff_v_00000014Ev", scope: !3, file: !4, line: 130, type: !94, scopeLine: 130, containingType: !3, virtualIndex: 73, flags: DIFlagPublic | DIFlagPrototyped, spFlags: DISPFlagVirtual)
!145 = !DISubprogram(name: "ff_v_00000015", linkageName: "_ZN2DD13ff_v_00000015Ev", scope: !3, file: !4, line: 131, type: !94, scopeLine: 131, containingType: !3, virtualIndex: 74, flags: DIFlagPublic | DIFlagPrototyped, spFlags: DISPFlagVirtual)
!146 = !DISubprogram(name: "ff_v_00000016", linkageName: "_ZN2DD13ff_v_00000016Ev", scope: !3, file: !4, line: 132, type: !94, scopeLine: 132, containingType: !3, virtualIndex: 75, flags: DIFlagPublic | DIFlagPrototyped, spFlags: DISPFlagVirtual)
!147 = !DISubprogram(name: "ff_v_00000017", linkageName: "_ZN2DD13ff_v_00000017Ev", scope: !3, file: !4, line: 133, type: !94, scopeLine: 133, containingType: !3, virtualIndex: 76, flags: DIFlagPublic | DIFlagPrototyped, spFlags: DISPFlagVirtual)
!148 = !DISubprogram(name: "ff_v_00000018", linkageName: "_ZN2DD13ff_v_00000018Ev", scope: !3, file: !4, line: 134, type: !94, scopeLine: 134, containingType: !3, virtualIndex: 77, flags: DIFlagPublic | DIFlagPrototyped, spFlags: DISPFlagVirtual)
!149 = !DISubprogram(name: "ff_v_00000019", linkageName: "_ZN2DD13ff_v_00000019Ev", scope: !3, file: !4, line: 135, type: !94, scopeLine: 135, containingType: !3, virtualIndex: 78, flags: DIFlagPublic | DIFlagPrototyped, spFlags: DISPFlagVirtual)
!150 = !DISubprogram(name: "ff_v_00000020", linkageName: "_ZN2DD13ff_v_00000020Ev", scope: !3, file: !4, line: 136, type: !94, scopeLine: 136, containingType: !3, virtualIndex: 79, flags: DIFlagPublic | DIFlagPrototyped, spFlags: DISPFlagVirtual)
!151 = !DISubprogram(name: "ff_v_00000021", linkageName: "_ZN2DD13ff_v_00000021Ev", scope: !3, file: !4, line: 137, type: !94, scopeLine: 137, containingType: !3, virtualIndex: 80, flags: DIFlagPublic | DIFlagPrototyped, spFlags: DISPFlagVirtual)
!152 = !DISubprogram(name: "ff_v_00000022", linkageName: "_ZN2DD13ff_v_00000022Ev", scope: !3, file: !4, line: 138, type: !94, scopeLine: 138, containingType: !3, virtualIndex: 81, flags: DIFlagPublic | DIFlagPrototyped, spFlags: DISPFlagVirtual)
!153 = !DISubprogram(name: "ff_v_00000023", linkageName: "_ZN2DD13ff_v_00000023Ev", scope: !3, file: !4, line: 139, type: !94, scopeLine: 139, containingType: !3, virtualIndex: 82, flags: DIFlagPublic | DIFlagPrototyped, spFlags: DISPFlagVirtual)
!154 = !DISubprogram(name: "ff_v_00000024", linkageName: "_ZN2DD13ff_v_00000024Ev", scope: !3, file: !4, line: 140, type: !94, scopeLine: 140, containingType: !3, virtualIndex: 83, flags: DIFlagPublic | DIFlagPrototyped, spFlags: DISPFlagVirtual)
!155 = !DISubprogram(name: "ff_v_00000025", linkageName: "_ZN2DD13ff_v_00000025Ev", scope: !3, file: !4, line: 141, type: !94, scopeLine: 141, containingType: !3, virtualIndex: 84, flags: DIFlagPublic | DIFlagPrototyped, spFlags: DISPFlagVirtual)
!156 = !DISubprogram(name: "ff_v_00000026", linkageName: "_ZN2DD13ff_v_00000026Ev", scope: !3, file: !4, line: 142, type: !94, scopeLine: 142, containingType: !3, virtualIndex: 85, flags: DIFlagPublic | DIFlagPrototyped, spFlags: DISPFlagVirtual)
!157 = !DISubprogram(name: "ff_v_00000027", linkageName: "_ZN2DD13ff_v_00000027Ev", scope: !3, file: !4, line: 143, type: !94, scopeLine: 143, containingType: !3, virtualIndex: 86, flags: DIFlagPublic | DIFlagPrototyped, spFlags: DISPFlagVirtual)
!158 = !DISubprogram(name: "ff_v_00000028", linkageName: "_ZN2DD13ff_v_00000028Ev", scope: !3, file: !4, line: 144, type: !94, scopeLine: 144, containingType: !3, virtualIndex: 87, flags: DIFlagPublic | DIFlagPrototyped, spFlags: DISPFlagVirtual)
!159 = !DISubprogram(name: "ff_v_00000029", linkageName: "_ZN2DD13ff_v_00000029Ev", scope: !3, file: !4, line: 145, type: !94, scopeLine: 145, containingType: !3, virtualIndex: 88, flags: DIFlagPublic | DIFlagPrototyped, spFlags: DISPFlagVirtual)
!160 = !{!"clang version 14.0.0"}
!161 = !{i32 7, !"Dwarf Version", i32 5}
!162 = !{i32 2, !"Debug Info Version", i32 3}
!163 = !{i32 1, !"wchar_size", i32 4}
!164 = !{i32 7, !"uwtable", i32 1}
!165 = !{i32 7, !"frame-pointer", i32 2}
!166 = distinct !DISubprogram(name: "test", linkageName: "_Z4testP2DDMS_FvvE", scope: !4, file: !4, line: 150, type: !167, scopeLine: 150, flags: DIFlagPrototyped, spFlags: DISPFlagDefinition, unit: !0, retainedNodes: !172)
!167 = !DISubroutineType(types: !168)
!168 = !{null, !169, !170}
!169 = !DIDerivedType(tag: DW_TAG_pointer_type, baseType: !3, size: 64)
!170 = !DIDerivedType(tag: DW_TAG_typedef, name: "MptrTy", file: !4, line: 149, baseType: !171)
!171 = !DIDerivedType(tag: DW_TAG_ptr_to_member_type, baseType: !94, size: 128, extraData: !3)
!172 = !{}
!173 = !DILocalVariable(name: "dptr", arg: 1, scope: !166, file: !4, line: 150, type: !169)
!174 = !DILocation(line: 0, scope: !166)
!175 = !DILocalVariable(name: "mfptr", arg: 2, scope: !166, file: !4, line: 150, type: !170)
!176 = !DILocation(line: 151, column: 4, scope: !166)
!177 = !DILocation(line: 152, column: 2, scope: !166)
!178 = distinct !DISubprogram(name: "main", scope: !4, file: !4, line: 155, type: !12, scopeLine: 155, flags: DIFlagPrototyped, spFlags: DISPFlagDefinition, unit: !0, retainedNodes: !172)
!179 = !DILocalVariable(name: "dobj", scope: !178, file: !4, line: 156, type: !3)
!180 = !DILocation(line: 156, column: 7, scope: !178)
!181 = !DILocation(line: 158, column: 4, scope: !178)
!182 = !DILocation(line: 159, column: 4, scope: !178)
!183 = !DILocation(line: 160, column: 4, scope: !178)
!184 = !DILocation(line: 161, column: 4, scope: !178)
!185 = !DILocation(line: 162, column: 4, scope: !178)
!186 = !DILocation(line: 163, column: 4, scope: !178)
!187 = !DILocation(line: 164, column: 4, scope: !178)
!188 = !DILocation(line: 165, column: 4, scope: !178)
!189 = !DILocation(line: 167, column: 4, scope: !178)
!190 = distinct !DISubprogram(name: "DD", linkageName: "_ZN2DDC2Ev", scope: !3, file: !4, line: 76, type: !94, scopeLine: 76, flags: DIFlagArtificial | DIFlagPrototyped, spFlags: DISPFlagDefinition, unit: !0, declaration: !191, retainedNodes: !172)
!191 = !DISubprogram(name: "DD", scope: !3, type: !94, flags: DIFlagPublic | DIFlagArtificial | DIFlagPrototyped, spFlags: 0)
!192 = !DILocalVariable(name: "this", arg: 1, scope: !190, type: !169, flags: DIFlagArtificial | DIFlagObjectPointer)
!193 = !DILocation(line: 0, scope: !190)
!194 = !DILocation(line: 76, column: 8, scope: !190)
!195 = distinct !DISubprogram(name: "BB", linkageName: "_ZN2BBC2Ev", scope: !7, file: !4, line: 2, type: !19, scopeLine: 2, flags: DIFlagArtificial | DIFlagPrototyped, spFlags: DISPFlagDefinition, unit: !0, declaration: !196, retainedNodes: !172)
!196 = !DISubprogram(name: "BB", scope: !7, type: !19, flags: DIFlagPublic | DIFlagArtificial | DIFlagPrototyped, spFlags: 0)
!197 = !DILocalVariable(name: "this", arg: 1, scope: !195, type: !198, flags: DIFlagArtificial | DIFlagObjectPointer)
!198 = !DIDerivedType(tag: DW_TAG_pointer_type, baseType: !7, size: 64)
!199 = !DILocation(line: 0, scope: !195)
!200 = !DILocation(line: 2, column: 8, scope: !195)
!201 = distinct !DISubprogram(name: "CC", linkageName: "_ZN2CCC2Ev", scope: !52, file: !4, line: 39, type: !60, scopeLine: 39, flags: DIFlagArtificial | DIFlagPrototyped, spFlags: DISPFlagDefinition, unit: !0, declaration: !202, retainedNodes: !172)
!202 = !DISubprogram(name: "CC", scope: !52, type: !60, flags: DIFlagPublic | DIFlagArtificial | DIFlagPrototyped, spFlags: 0)
!203 = !DILocalVariable(name: "this", arg: 1, scope: !201, type: !204, flags: DIFlagArtificial | DIFlagObjectPointer)
!204 = !DIDerivedType(tag: DW_TAG_pointer_type, baseType: !52, size: 64)
!205 = !DILocation(line: 0, scope: !201)
!206 = !DILocation(line: 39, column: 8, scope: !201)
!207 = distinct !DISubprogram(name: "gg_v_00000000", linkageName: "_ZN2DD13gg_v_00000000Ev", scope: !3, file: !4, line: 80, type: !94, scopeLine: 80, flags: DIFlagPrototyped, spFlags: DISPFlagDefinition, unit: !0, declaration: !93, retainedNodes: !172)
!208 = !DILocalVariable(name: "this", arg: 1, scope: !207, type: !169, flags: DIFlagArtificial | DIFlagObjectPointer)
!209 = !DILocation(line: 0, scope: !207)
!210 = !DILocation(line: 80, column: 35, scope: !207)
!211 = distinct !DISubprogram(name: "gg_v_00000001", linkageName: "_ZN2DD13gg_v_00000001Ev", scope: !3, file: !4, line: 81, type: !94, scopeLine: 81, flags: DIFlagPrototyped, spFlags: DISPFlagDefinition, unit: !0, declaration: !97, retainedNodes: !172)
!212 = !DILocalVariable(name: "this", arg: 1, scope: !211, type: !169, flags: DIFlagArtificial | DIFlagObjectPointer)
!213 = !DILocation(line: 0, scope: !211)
!214 = !DILocation(line: 81, column: 35, scope: !211)
!215 = distinct !DISubprogram(name: "gg_v_00000002", linkageName: "_ZN2DD13gg_v_00000002Ev", scope: !3, file: !4, line: 82, type: !94, scopeLine: 82, flags: DIFlagPrototyped, spFlags: DISPFlagDefinition, unit: !0, declaration: !98, retainedNodes: !172)
!216 = !DILocalVariable(name: "this", arg: 1, scope: !215, type: !169, flags: DIFlagArtificial | DIFlagObjectPointer)
!217 = !DILocation(line: 0, scope: !215)
!218 = !DILocation(line: 82, column: 35, scope: !215)
!219 = distinct !DISubprogram(name: "gg_v_00000003", linkageName: "_ZN2DD13gg_v_00000003Ev", scope: !3, file: !4, line: 83, type: !94, scopeLine: 83, flags: DIFlagPrototyped, spFlags: DISPFlagDefinition, unit: !0, declaration: !99, retainedNodes: !172)
!220 = !DILocalVariable(name: "this", arg: 1, scope: !219, type: !169, flags: DIFlagArtificial | DIFlagObjectPointer)
!221 = !DILocation(line: 0, scope: !219)
!222 = !DILocation(line: 83, column: 35, scope: !219)
!223 = distinct !DISubprogram(name: "gg_v_00000004", linkageName: "_ZN2DD13gg_v_00000004Ev", scope: !3, file: !4, line: 84, type: !94, scopeLine: 84, flags: DIFlagPrototyped, spFlags: DISPFlagDefinition, unit: !0, declaration: !100, retainedNodes: !172)
!224 = !DILocalVariable(name: "this", arg: 1, scope: !223, type: !169, flags: DIFlagArtificial | DIFlagObjectPointer)
!225 = !DILocation(line: 0, scope: !223)
!226 = !DILocation(line: 84, column: 35, scope: !223)
!227 = distinct !DISubprogram(name: "gg_v_00000005", linkageName: "_ZN2BB13gg_v_00000005Ev", scope: !7, file: !4, line: 11, type: !19, scopeLine: 11, flags: DIFlagPrototyped, spFlags: DISPFlagDefinition, unit: !0, declaration: !26, retainedNodes: !172)
!228 = !DILocalVariable(name: "this", arg: 1, scope: !227, type: !198, flags: DIFlagArtificial | DIFlagObjectPointer)
!229 = !DILocation(line: 0, scope: !227)
!230 = !DILocation(line: 11, column: 35, scope: !227)
!231 = distinct !DISubprogram(name: "gg_v_00000006", linkageName: "_ZN2BB13gg_v_00000006Ev", scope: !7, file: !4, line: 12, type: !19, scopeLine: 12, flags: DIFlagPrototyped, spFlags: DISPFlagDefinition, unit: !0, declaration: !27, retainedNodes: !172)
!232 = !DILocalVariable(name: "this", arg: 1, scope: !231, type: !198, flags: DIFlagArtificial | DIFlagObjectPointer)
!233 = !DILocation(line: 0, scope: !231)
!234 = !DILocation(line: 12, column: 35, scope: !231)
!235 = distinct !DISubprogram(name: "gg_v_00000007", linkageName: "_ZN2BB13gg_v_00000007Ev", scope: !7, file: !4, line: 13, type: !19, scopeLine: 13, flags: DIFlagPrototyped, spFlags: DISPFlagDefinition, unit: !0, declaration: !28, retainedNodes: !172)
!236 = !DILocalVariable(name: "this", arg: 1, scope: !235, type: !198, flags: DIFlagArtificial | DIFlagObjectPointer)
!237 = !DILocation(line: 0, scope: !235)
!238 = !DILocation(line: 13, column: 35, scope: !235)
!239 = distinct !DISubprogram(name: "gg_v_00000008", linkageName: "_ZN2BB13gg_v_00000008Ev", scope: !7, file: !4, line: 14, type: !19, scopeLine: 14, flags: DIFlagPrototyped, spFlags: DISPFlagDefinition, unit: !0, declaration: !29, retainedNodes: !172)
!240 = !DILocalVariable(name: "this", arg: 1, scope: !239, type: !198, flags: DIFlagArtificial | DIFlagObjectPointer)
!241 = !DILocation(line: 0, scope: !239)
!242 = !DILocation(line: 14, column: 35, scope: !239)
!243 = distinct !DISubprogram(name: "gg_v_00000009", linkageName: "_ZN2BB13gg_v_00000009Ev", scope: !7, file: !4, line: 15, type: !19, scopeLine: 15, flags: DIFlagPrototyped, spFlags: DISPFlagDefinition, unit: !0, declaration: !30, retainedNodes: !172)
!244 = !DILocalVariable(name: "this", arg: 1, scope: !243, type: !198, flags: DIFlagArtificial | DIFlagObjectPointer)
!245 = !DILocation(line: 0, scope: !243)
!246 = !DILocation(line: 15, column: 35, scope: !243)
!247 = distinct !DISubprogram(name: "gg_v_00000010", linkageName: "_ZN2BB13gg_v_00000010Ev", scope: !7, file: !4, line: 16, type: !19, scopeLine: 16, flags: DIFlagPrototyped, spFlags: DISPFlagDefinition, unit: !0, declaration: !31, retainedNodes: !172)
!248 = !DILocalVariable(name: "this", arg: 1, scope: !247, type: !198, flags: DIFlagArtificial | DIFlagObjectPointer)
!249 = !DILocation(line: 0, scope: !247)
!250 = !DILocation(line: 16, column: 35, scope: !247)
!251 = distinct !DISubprogram(name: "gg_v_00000011", linkageName: "_ZN2BB13gg_v_00000011Ev", scope: !7, file: !4, line: 17, type: !19, scopeLine: 17, flags: DIFlagPrototyped, spFlags: DISPFlagDefinition, unit: !0, declaration: !32, retainedNodes: !172)
!252 = !DILocalVariable(name: "this", arg: 1, scope: !251, type: !198, flags: DIFlagArtificial | DIFlagObjectPointer)
!253 = !DILocation(line: 0, scope: !251)
!254 = !DILocation(line: 17, column: 35, scope: !251)
!255 = distinct !DISubprogram(name: "gg_v_00000012", linkageName: "_ZN2BB13gg_v_00000012Ev", scope: !7, file: !4, line: 18, type: !19, scopeLine: 18, flags: DIFlagPrototyped, spFlags: DISPFlagDefinition, unit: !0, declaration: !33, retainedNodes: !172)
!256 = !DILocalVariable(name: "this", arg: 1, scope: !255, type: !198, flags: DIFlagArtificial | DIFlagObjectPointer)
!257 = !DILocation(line: 0, scope: !255)
!258 = !DILocation(line: 18, column: 35, scope: !255)
!259 = distinct !DISubprogram(name: "gg_v_00000013", linkageName: "_ZN2BB13gg_v_00000013Ev", scope: !7, file: !4, line: 19, type: !19, scopeLine: 19, flags: DIFlagPrototyped, spFlags: DISPFlagDefinition, unit: !0, declaration: !34, retainedNodes: !172)
!260 = !DILocalVariable(name: "this", arg: 1, scope: !259, type: !198, flags: DIFlagArtificial | DIFlagObjectPointer)
!261 = !DILocation(line: 0, scope: !259)
!262 = !DILocation(line: 19, column: 35, scope: !259)
!263 = distinct !DISubprogram(name: "gg_v_00000014", linkageName: "_ZN2BB13gg_v_00000014Ev", scope: !7, file: !4, line: 20, type: !19, scopeLine: 20, flags: DIFlagPrototyped, spFlags: DISPFlagDefinition, unit: !0, declaration: !35, retainedNodes: !172)
!264 = !DILocalVariable(name: "this", arg: 1, scope: !263, type: !198, flags: DIFlagArtificial | DIFlagObjectPointer)
!265 = !DILocation(line: 0, scope: !263)
!266 = !DILocation(line: 20, column: 35, scope: !263)
!267 = distinct !DISubprogram(name: "gg_v_00000015", linkageName: "_ZN2BB13gg_v_00000015Ev", scope: !7, file: !4, line: 21, type: !19, scopeLine: 21, flags: DIFlagPrototyped, spFlags: DISPFlagDefinition, unit: !0, declaration: !36, retainedNodes: !172)
!268 = !DILocalVariable(name: "this", arg: 1, scope: !267, type: !198, flags: DIFlagArtificial | DIFlagObjectPointer)
!269 = !DILocation(line: 0, scope: !267)
!270 = !DILocation(line: 21, column: 35, scope: !267)
!271 = distinct !DISubprogram(name: "gg_v_00000016", linkageName: "_ZN2BB13gg_v_00000016Ev", scope: !7, file: !4, line: 22, type: !19, scopeLine: 22, flags: DIFlagPrototyped, spFlags: DISPFlagDefinition, unit: !0, declaration: !37, retainedNodes: !172)
!272 = !DILocalVariable(name: "this", arg: 1, scope: !271, type: !198, flags: DIFlagArtificial | DIFlagObjectPointer)
!273 = !DILocation(line: 0, scope: !271)
!274 = !DILocation(line: 22, column: 35, scope: !271)
!275 = distinct !DISubprogram(name: "gg_v_00000017", linkageName: "_ZN2BB13gg_v_00000017Ev", scope: !7, file: !4, line: 23, type: !19, scopeLine: 23, flags: DIFlagPrototyped, spFlags: DISPFlagDefinition, unit: !0, declaration: !38, retainedNodes: !172)
!276 = !DILocalVariable(name: "this", arg: 1, scope: !275, type: !198, flags: DIFlagArtificial | DIFlagObjectPointer)
!277 = !DILocation(line: 0, scope: !275)
!278 = !DILocation(line: 23, column: 35, scope: !275)
!279 = distinct !DISubprogram(name: "gg_v_00000018", linkageName: "_ZN2BB13gg_v_00000018Ev", scope: !7, file: !4, line: 24, type: !19, scopeLine: 24, flags: DIFlagPrototyped, spFlags: DISPFlagDefinition, unit: !0, declaration: !39, retainedNodes: !172)
!280 = !DILocalVariable(name: "this", arg: 1, scope: !279, type: !198, flags: DIFlagArtificial | DIFlagObjectPointer)
!281 = !DILocation(line: 0, scope: !279)
!282 = !DILocation(line: 24, column: 35, scope: !279)
!283 = distinct !DISubprogram(name: "gg_v_00000019", linkageName: "_ZN2BB13gg_v_00000019Ev", scope: !7, file: !4, line: 25, type: !19, scopeLine: 25, flags: DIFlagPrototyped, spFlags: DISPFlagDefinition, unit: !0, declaration: !40, retainedNodes: !172)
!284 = !DILocalVariable(name: "this", arg: 1, scope: !283, type: !198, flags: DIFlagArtificial | DIFlagObjectPointer)
!285 = !DILocation(line: 0, scope: !283)
!286 = !DILocation(line: 25, column: 35, scope: !283)
!287 = distinct !DISubprogram(name: "gg_v_00000020", linkageName: "_ZN2BB13gg_v_00000020Ev", scope: !7, file: !4, line: 26, type: !19, scopeLine: 26, flags: DIFlagPrototyped, spFlags: DISPFlagDefinition, unit: !0, declaration: !41, retainedNodes: !172)
!288 = !DILocalVariable(name: "this", arg: 1, scope: !287, type: !198, flags: DIFlagArtificial | DIFlagObjectPointer)
!289 = !DILocation(line: 0, scope: !287)
!290 = !DILocation(line: 26, column: 35, scope: !287)
!291 = distinct !DISubprogram(name: "gg_v_00000021", linkageName: "_ZN2BB13gg_v_00000021Ev", scope: !7, file: !4, line: 27, type: !19, scopeLine: 27, flags: DIFlagPrototyped, spFlags: DISPFlagDefinition, unit: !0, declaration: !42, retainedNodes: !172)
!292 = !DILocalVariable(name: "this", arg: 1, scope: !291, type: !198, flags: DIFlagArtificial | DIFlagObjectPointer)
!293 = !DILocation(line: 0, scope: !291)
!294 = !DILocation(line: 27, column: 35, scope: !291)
!295 = distinct !DISubprogram(name: "gg_v_00000022", linkageName: "_ZN2BB13gg_v_00000022Ev", scope: !7, file: !4, line: 28, type: !19, scopeLine: 28, flags: DIFlagPrototyped, spFlags: DISPFlagDefinition, unit: !0, declaration: !43, retainedNodes: !172)
!296 = !DILocalVariable(name: "this", arg: 1, scope: !295, type: !198, flags: DIFlagArtificial | DIFlagObjectPointer)
!297 = !DILocation(line: 0, scope: !295)
!298 = !DILocation(line: 28, column: 35, scope: !295)
!299 = distinct !DISubprogram(name: "gg_v_00000023", linkageName: "_ZN2BB13gg_v_00000023Ev", scope: !7, file: !4, line: 29, type: !19, scopeLine: 29, flags: DIFlagPrototyped, spFlags: DISPFlagDefinition, unit: !0, declaration: !44, retainedNodes: !172)
!300 = !DILocalVariable(name: "this", arg: 1, scope: !299, type: !198, flags: DIFlagArtificial | DIFlagObjectPointer)
!301 = !DILocation(line: 0, scope: !299)
!302 = !DILocation(line: 29, column: 35, scope: !299)
!303 = distinct !DISubprogram(name: "gg_v_00000024", linkageName: "_ZN2BB13gg_v_00000024Ev", scope: !7, file: !4, line: 30, type: !19, scopeLine: 30, flags: DIFlagPrototyped, spFlags: DISPFlagDefinition, unit: !0, declaration: !45, retainedNodes: !172)
!304 = !DILocalVariable(name: "this", arg: 1, scope: !303, type: !198, flags: DIFlagArtificial | DIFlagObjectPointer)
!305 = !DILocation(line: 0, scope: !303)
!306 = !DILocation(line: 30, column: 35, scope: !303)
!307 = distinct !DISubprogram(name: "gg_v_00000025", linkageName: "_ZN2BB13gg_v_00000025Ev", scope: !7, file: !4, line: 31, type: !19, scopeLine: 31, flags: DIFlagPrototyped, spFlags: DISPFlagDefinition, unit: !0, declaration: !46, retainedNodes: !172)
!308 = !DILocalVariable(name: "this", arg: 1, scope: !307, type: !198, flags: DIFlagArtificial | DIFlagObjectPointer)
!309 = !DILocation(line: 0, scope: !307)
!310 = !DILocation(line: 31, column: 35, scope: !307)
!311 = distinct !DISubprogram(name: "gg_v_00000026", linkageName: "_ZN2BB13gg_v_00000026Ev", scope: !7, file: !4, line: 32, type: !19, scopeLine: 32, flags: DIFlagPrototyped, spFlags: DISPFlagDefinition, unit: !0, declaration: !47, retainedNodes: !172)
!312 = !DILocalVariable(name: "this", arg: 1, scope: !311, type: !198, flags: DIFlagArtificial | DIFlagObjectPointer)
!313 = !DILocation(line: 0, scope: !311)
!314 = !DILocation(line: 32, column: 35, scope: !311)
!315 = distinct !DISubprogram(name: "gg_v_00000027", linkageName: "_ZN2BB13gg_v_00000027Ev", scope: !7, file: !4, line: 33, type: !19, scopeLine: 33, flags: DIFlagPrototyped, spFlags: DISPFlagDefinition, unit: !0, declaration: !48, retainedNodes: !172)
!316 = !DILocalVariable(name: "this", arg: 1, scope: !315, type: !198, flags: DIFlagArtificial | DIFlagObjectPointer)
!317 = !DILocation(line: 0, scope: !315)
!318 = !DILocation(line: 33, column: 35, scope: !315)
!319 = distinct !DISubprogram(name: "gg_v_00000028", linkageName: "_ZN2BB13gg_v_00000028Ev", scope: !7, file: !4, line: 34, type: !19, scopeLine: 34, flags: DIFlagPrototyped, spFlags: DISPFlagDefinition, unit: !0, declaration: !49, retainedNodes: !172)
!320 = !DILocalVariable(name: "this", arg: 1, scope: !319, type: !198, flags: DIFlagArtificial | DIFlagObjectPointer)
!321 = !DILocation(line: 0, scope: !319)
!322 = !DILocation(line: 34, column: 35, scope: !319)
!323 = distinct !DISubprogram(name: "gg_v_00000029", linkageName: "_ZN2BB13gg_v_00000029Ev", scope: !7, file: !4, line: 35, type: !19, scopeLine: 35, flags: DIFlagPrototyped, spFlags: DISPFlagDefinition, unit: !0, declaration: !50, retainedNodes: !172)
!324 = !DILocalVariable(name: "this", arg: 1, scope: !323, type: !198, flags: DIFlagArtificial | DIFlagObjectPointer)
!325 = !DILocation(line: 0, scope: !323)
!326 = !DILocation(line: 35, column: 35, scope: !323)
!327 = distinct !DISubprogram(name: "hh_v_00000000", linkageName: "_ZN2DD13hh_v_00000000Ev", scope: !3, file: !4, line: 86, type: !94, scopeLine: 86, flags: DIFlagPrototyped, spFlags: DISPFlagDefinition, unit: !0, declaration: !101, retainedNodes: !172)
!328 = !DILocalVariable(name: "this", arg: 1, scope: !327, type: !169, flags: DIFlagArtificial | DIFlagObjectPointer)
!329 = !DILocation(line: 0, scope: !327)
!330 = !DILocation(line: 86, column: 35, scope: !327)
!331 = distinct !DISubprogram(name: "hh_v_00000001", linkageName: "_ZN2DD13hh_v_00000001Ev", scope: !3, file: !4, line: 87, type: !94, scopeLine: 87, flags: DIFlagPrototyped, spFlags: DISPFlagDefinition, unit: !0, declaration: !102, retainedNodes: !172)
!332 = !DILocalVariable(name: "this", arg: 1, scope: !331, type: !169, flags: DIFlagArtificial | DIFlagObjectPointer)
!333 = !DILocation(line: 0, scope: !331)
!334 = !DILocation(line: 87, column: 35, scope: !331)
!335 = distinct !DISubprogram(name: "hh_v_00000002", linkageName: "_ZN2DD13hh_v_00000002Ev", scope: !3, file: !4, line: 88, type: !94, scopeLine: 88, flags: DIFlagPrototyped, spFlags: DISPFlagDefinition, unit: !0, declaration: !103, retainedNodes: !172)
!336 = !DILocalVariable(name: "this", arg: 1, scope: !335, type: !169, flags: DIFlagArtificial | DIFlagObjectPointer)
!337 = !DILocation(line: 0, scope: !335)
!338 = !DILocation(line: 88, column: 35, scope: !335)
!339 = distinct !DISubprogram(name: "hh_v_00000003", linkageName: "_ZN2DD13hh_v_00000003Ev", scope: !3, file: !4, line: 89, type: !94, scopeLine: 89, flags: DIFlagPrototyped, spFlags: DISPFlagDefinition, unit: !0, declaration: !104, retainedNodes: !172)
!340 = !DILocalVariable(name: "this", arg: 1, scope: !339, type: !169, flags: DIFlagArtificial | DIFlagObjectPointer)
!341 = !DILocation(line: 0, scope: !339)
!342 = !DILocation(line: 89, column: 35, scope: !339)
!343 = distinct !DISubprogram(name: "hh_v_00000004", linkageName: "_ZN2DD13hh_v_00000004Ev", scope: !3, file: !4, line: 90, type: !94, scopeLine: 90, flags: DIFlagPrototyped, spFlags: DISPFlagDefinition, unit: !0, declaration: !105, retainedNodes: !172)
!344 = !DILocalVariable(name: "this", arg: 1, scope: !343, type: !169, flags: DIFlagArtificial | DIFlagObjectPointer)
!345 = !DILocation(line: 0, scope: !343)
!346 = !DILocation(line: 90, column: 35, scope: !343)
!347 = distinct !DISubprogram(name: "hh_v_00000005", linkageName: "_ZN2DD13hh_v_00000005Ev", scope: !3, file: !4, line: 91, type: !94, scopeLine: 91, flags: DIFlagPrototyped, spFlags: DISPFlagDefinition, unit: !0, declaration: !106, retainedNodes: !172)
!348 = !DILocalVariable(name: "this", arg: 1, scope: !347, type: !169, flags: DIFlagArtificial | DIFlagObjectPointer)
!349 = !DILocation(line: 0, scope: !347)
!350 = !DILocation(line: 91, column: 35, scope: !347)
!351 = distinct !DISubprogram(name: "hh_v_00000006", linkageName: "_ZN2DD13hh_v_00000006Ev", scope: !3, file: !4, line: 92, type: !94, scopeLine: 92, flags: DIFlagPrototyped, spFlags: DISPFlagDefinition, unit: !0, declaration: !107, retainedNodes: !172)
!352 = !DILocalVariable(name: "this", arg: 1, scope: !351, type: !169, flags: DIFlagArtificial | DIFlagObjectPointer)
!353 = !DILocation(line: 0, scope: !351)
!354 = !DILocation(line: 92, column: 35, scope: !351)
!355 = distinct !DISubprogram(name: "hh_v_00000007", linkageName: "_ZN2DD13hh_v_00000007Ev", scope: !3, file: !4, line: 93, type: !94, scopeLine: 93, flags: DIFlagPrototyped, spFlags: DISPFlagDefinition, unit: !0, declaration: !108, retainedNodes: !172)
!356 = !DILocalVariable(name: "this", arg: 1, scope: !355, type: !169, flags: DIFlagArtificial | DIFlagObjectPointer)
!357 = !DILocation(line: 0, scope: !355)
!358 = !DILocation(line: 93, column: 35, scope: !355)
!359 = distinct !DISubprogram(name: "hh_v_00000008", linkageName: "_ZN2DD13hh_v_00000008Ev", scope: !3, file: !4, line: 94, type: !94, scopeLine: 94, flags: DIFlagPrototyped, spFlags: DISPFlagDefinition, unit: !0, declaration: !109, retainedNodes: !172)
!360 = !DILocalVariable(name: "this", arg: 1, scope: !359, type: !169, flags: DIFlagArtificial | DIFlagObjectPointer)
!361 = !DILocation(line: 0, scope: !359)
!362 = !DILocation(line: 94, column: 35, scope: !359)
!363 = distinct !DISubprogram(name: "hh_v_00000009", linkageName: "_ZN2DD13hh_v_00000009Ev", scope: !3, file: !4, line: 95, type: !94, scopeLine: 95, flags: DIFlagPrototyped, spFlags: DISPFlagDefinition, unit: !0, declaration: !110, retainedNodes: !172)
!364 = !DILocalVariable(name: "this", arg: 1, scope: !363, type: !169, flags: DIFlagArtificial | DIFlagObjectPointer)
!365 = !DILocation(line: 0, scope: !363)
!366 = !DILocation(line: 95, column: 35, scope: !363)
!367 = distinct !DISubprogram(name: "hh_v_00000010", linkageName: "_ZN2DD13hh_v_00000010Ev", scope: !3, file: !4, line: 96, type: !94, scopeLine: 96, flags: DIFlagPrototyped, spFlags: DISPFlagDefinition, unit: !0, declaration: !111, retainedNodes: !172)
!368 = !DILocalVariable(name: "this", arg: 1, scope: !367, type: !169, flags: DIFlagArtificial | DIFlagObjectPointer)
!369 = !DILocation(line: 0, scope: !367)
!370 = !DILocation(line: 96, column: 35, scope: !367)
!371 = distinct !DISubprogram(name: "hh_v_00000011", linkageName: "_ZN2DD13hh_v_00000011Ev", scope: !3, file: !4, line: 97, type: !94, scopeLine: 97, flags: DIFlagPrototyped, spFlags: DISPFlagDefinition, unit: !0, declaration: !112, retainedNodes: !172)
!372 = !DILocalVariable(name: "this", arg: 1, scope: !371, type: !169, flags: DIFlagArtificial | DIFlagObjectPointer)
!373 = !DILocation(line: 0, scope: !371)
!374 = !DILocation(line: 97, column: 35, scope: !371)
!375 = distinct !DISubprogram(name: "hh_v_00000012", linkageName: "_ZN2DD13hh_v_00000012Ev", scope: !3, file: !4, line: 98, type: !94, scopeLine: 98, flags: DIFlagPrototyped, spFlags: DISPFlagDefinition, unit: !0, declaration: !113, retainedNodes: !172)
!376 = !DILocalVariable(name: "this", arg: 1, scope: !375, type: !169, flags: DIFlagArtificial | DIFlagObjectPointer)
!377 = !DILocation(line: 0, scope: !375)
!378 = !DILocation(line: 98, column: 35, scope: !375)
!379 = distinct !DISubprogram(name: "hh_v_00000013", linkageName: "_ZN2DD13hh_v_00000013Ev", scope: !3, file: !4, line: 99, type: !94, scopeLine: 99, flags: DIFlagPrototyped, spFlags: DISPFlagDefinition, unit: !0, declaration: !114, retainedNodes: !172)
!380 = !DILocalVariable(name: "this", arg: 1, scope: !379, type: !169, flags: DIFlagArtificial | DIFlagObjectPointer)
!381 = !DILocation(line: 0, scope: !379)
!382 = !DILocation(line: 99, column: 35, scope: !379)
!383 = distinct !DISubprogram(name: "hh_v_00000014", linkageName: "_ZN2DD13hh_v_00000014Ev", scope: !3, file: !4, line: 100, type: !94, scopeLine: 100, flags: DIFlagPrototyped, spFlags: DISPFlagDefinition, unit: !0, declaration: !115, retainedNodes: !172)
!384 = !DILocalVariable(name: "this", arg: 1, scope: !383, type: !169, flags: DIFlagArtificial | DIFlagObjectPointer)
!385 = !DILocation(line: 0, scope: !383)
!386 = !DILocation(line: 100, column: 35, scope: !383)
!387 = distinct !DISubprogram(name: "hh_v_00000015", linkageName: "_ZN2DD13hh_v_00000015Ev", scope: !3, file: !4, line: 101, type: !94, scopeLine: 101, flags: DIFlagPrototyped, spFlags: DISPFlagDefinition, unit: !0, declaration: !116, retainedNodes: !172)
!388 = !DILocalVariable(name: "this", arg: 1, scope: !387, type: !169, flags: DIFlagArtificial | DIFlagObjectPointer)
!389 = !DILocation(line: 0, scope: !387)
!390 = !DILocation(line: 101, column: 35, scope: !387)
!391 = distinct !DISubprogram(name: "hh_v_00000016", linkageName: "_ZN2DD13hh_v_00000016Ev", scope: !3, file: !4, line: 102, type: !94, scopeLine: 102, flags: DIFlagPrototyped, spFlags: DISPFlagDefinition, unit: !0, declaration: !117, retainedNodes: !172)
!392 = !DILocalVariable(name: "this", arg: 1, scope: !391, type: !169, flags: DIFlagArtificial | DIFlagObjectPointer)
!393 = !DILocation(line: 0, scope: !391)
!394 = !DILocation(line: 102, column: 35, scope: !391)
!395 = distinct !DISubprogram(name: "hh_v_00000017", linkageName: "_ZN2DD13hh_v_00000017Ev", scope: !3, file: !4, line: 103, type: !94, scopeLine: 103, flags: DIFlagPrototyped, spFlags: DISPFlagDefinition, unit: !0, declaration: !118, retainedNodes: !172)
!396 = !DILocalVariable(name: "this", arg: 1, scope: !395, type: !169, flags: DIFlagArtificial | DIFlagObjectPointer)
!397 = !DILocation(line: 0, scope: !395)
!398 = !DILocation(line: 103, column: 35, scope: !395)
!399 = distinct !DISubprogram(name: "hh_v_00000018", linkageName: "_ZN2DD13hh_v_00000018Ev", scope: !3, file: !4, line: 104, type: !94, scopeLine: 104, flags: DIFlagPrototyped, spFlags: DISPFlagDefinition, unit: !0, declaration: !119, retainedNodes: !172)
!400 = !DILocalVariable(name: "this", arg: 1, scope: !399, type: !169, flags: DIFlagArtificial | DIFlagObjectPointer)
!401 = !DILocation(line: 0, scope: !399)
!402 = !DILocation(line: 104, column: 35, scope: !399)
!403 = distinct !DISubprogram(name: "hh_v_00000019", linkageName: "_ZN2DD13hh_v_00000019Ev", scope: !3, file: !4, line: 105, type: !94, scopeLine: 105, flags: DIFlagPrototyped, spFlags: DISPFlagDefinition, unit: !0, declaration: !120, retainedNodes: !172)
!404 = !DILocalVariable(name: "this", arg: 1, scope: !403, type: !169, flags: DIFlagArtificial | DIFlagObjectPointer)
!405 = !DILocation(line: 0, scope: !403)
!406 = !DILocation(line: 105, column: 35, scope: !403)
!407 = distinct !DISubprogram(name: "hh_v_00000020", linkageName: "_ZN2DD13hh_v_00000020Ev", scope: !3, file: !4, line: 106, type: !94, scopeLine: 106, flags: DIFlagPrototyped, spFlags: DISPFlagDefinition, unit: !0, declaration: !121, retainedNodes: !172)
!408 = !DILocalVariable(name: "this", arg: 1, scope: !407, type: !169, flags: DIFlagArtificial | DIFlagObjectPointer)
!409 = !DILocation(line: 0, scope: !407)
!410 = !DILocation(line: 106, column: 35, scope: !407)
!411 = distinct !DISubprogram(name: "hh_v_00000021", linkageName: "_ZN2DD13hh_v_00000021Ev", scope: !3, file: !4, line: 107, type: !94, scopeLine: 107, flags: DIFlagPrototyped, spFlags: DISPFlagDefinition, unit: !0, declaration: !122, retainedNodes: !172)
!412 = !DILocalVariable(name: "this", arg: 1, scope: !411, type: !169, flags: DIFlagArtificial | DIFlagObjectPointer)
!413 = !DILocation(line: 0, scope: !411)
!414 = !DILocation(line: 107, column: 35, scope: !411)
!415 = distinct !DISubprogram(name: "hh_v_00000022", linkageName: "_ZN2DD13hh_v_00000022Ev", scope: !3, file: !4, line: 108, type: !94, scopeLine: 108, flags: DIFlagPrototyped, spFlags: DISPFlagDefinition, unit: !0, declaration: !123, retainedNodes: !172)
!416 = !DILocalVariable(name: "this", arg: 1, scope: !415, type: !169, flags: DIFlagArtificial | DIFlagObjectPointer)
!417 = !DILocation(line: 0, scope: !415)
!418 = !DILocation(line: 108, column: 35, scope: !415)
!419 = distinct !DISubprogram(name: "hh_v_00000023", linkageName: "_ZN2DD13hh_v_00000023Ev", scope: !3, file: !4, line: 109, type: !94, scopeLine: 109, flags: DIFlagPrototyped, spFlags: DISPFlagDefinition, unit: !0, declaration: !124, retainedNodes: !172)
!420 = !DILocalVariable(name: "this", arg: 1, scope: !419, type: !169, flags: DIFlagArtificial | DIFlagObjectPointer)
!421 = !DILocation(line: 0, scope: !419)
!422 = !DILocation(line: 109, column: 35, scope: !419)
!423 = distinct !DISubprogram(name: "hh_v_00000024", linkageName: "_ZN2DD13hh_v_00000024Ev", scope: !3, file: !4, line: 110, type: !94, scopeLine: 110, flags: DIFlagPrototyped, spFlags: DISPFlagDefinition, unit: !0, declaration: !125, retainedNodes: !172)
!424 = !DILocalVariable(name: "this", arg: 1, scope: !423, type: !169, flags: DIFlagArtificial | DIFlagObjectPointer)
!425 = !DILocation(line: 0, scope: !423)
!426 = !DILocation(line: 110, column: 35, scope: !423)
!427 = distinct !DISubprogram(name: "hh_v_00000025", linkageName: "_ZN2DD13hh_v_00000025Ev", scope: !3, file: !4, line: 111, type: !94, scopeLine: 111, flags: DIFlagPrototyped, spFlags: DISPFlagDefinition, unit: !0, declaration: !126, retainedNodes: !172)
!428 = !DILocalVariable(name: "this", arg: 1, scope: !427, type: !169, flags: DIFlagArtificial | DIFlagObjectPointer)
!429 = !DILocation(line: 0, scope: !427)
!430 = !DILocation(line: 111, column: 35, scope: !427)
!431 = distinct !DISubprogram(name: "hh_v_00000026", linkageName: "_ZN2DD13hh_v_00000026Ev", scope: !3, file: !4, line: 112, type: !94, scopeLine: 112, flags: DIFlagPrototyped, spFlags: DISPFlagDefinition, unit: !0, declaration: !127, retainedNodes: !172)
!432 = !DILocalVariable(name: "this", arg: 1, scope: !431, type: !169, flags: DIFlagArtificial | DIFlagObjectPointer)
!433 = !DILocation(line: 0, scope: !431)
!434 = !DILocation(line: 112, column: 35, scope: !431)
!435 = distinct !DISubprogram(name: "hh_v_00000027", linkageName: "_ZN2DD13hh_v_00000027Ev", scope: !3, file: !4, line: 113, type: !94, scopeLine: 113, flags: DIFlagPrototyped, spFlags: DISPFlagDefinition, unit: !0, declaration: !128, retainedNodes: !172)
!436 = !DILocalVariable(name: "this", arg: 1, scope: !435, type: !169, flags: DIFlagArtificial | DIFlagObjectPointer)
!437 = !DILocation(line: 0, scope: !435)
!438 = !DILocation(line: 113, column: 35, scope: !435)
!439 = distinct !DISubprogram(name: "hh_v_00000028", linkageName: "_ZN2DD13hh_v_00000028Ev", scope: !3, file: !4, line: 114, type: !94, scopeLine: 114, flags: DIFlagPrototyped, spFlags: DISPFlagDefinition, unit: !0, declaration: !129, retainedNodes: !172)
!440 = !DILocalVariable(name: "this", arg: 1, scope: !439, type: !169, flags: DIFlagArtificial | DIFlagObjectPointer)
!441 = !DILocation(line: 0, scope: !439)
!442 = !DILocation(line: 114, column: 35, scope: !439)
!443 = distinct !DISubprogram(name: "ff_v_00000000", linkageName: "_ZN2DD13ff_v_00000000Ev", scope: !3, file: !4, line: 116, type: !94, scopeLine: 116, flags: DIFlagPrototyped, spFlags: DISPFlagDefinition, unit: !0, declaration: !130, retainedNodes: !172)
!444 = !DILocalVariable(name: "this", arg: 1, scope: !443, type: !169, flags: DIFlagArtificial | DIFlagObjectPointer)
!445 = !DILocation(line: 0, scope: !443)
!446 = !DILocation(line: 116, column: 35, scope: !443)
!447 = distinct !DISubprogram(name: "ff_v_00000001", linkageName: "_ZN2DD13ff_v_00000001Ev", scope: !3, file: !4, line: 117, type: !94, scopeLine: 117, flags: DIFlagPrototyped, spFlags: DISPFlagDefinition, unit: !0, declaration: !131, retainedNodes: !172)
!448 = !DILocalVariable(name: "this", arg: 1, scope: !447, type: !169, flags: DIFlagArtificial | DIFlagObjectPointer)
!449 = !DILocation(line: 0, scope: !447)
!450 = !DILocation(line: 117, column: 35, scope: !447)
!451 = distinct !DISubprogram(name: "ff_v_00000002", linkageName: "_ZN2DD13ff_v_00000002Ev", scope: !3, file: !4, line: 118, type: !94, scopeLine: 118, flags: DIFlagPrototyped, spFlags: DISPFlagDefinition, unit: !0, declaration: !132, retainedNodes: !172)
!452 = !DILocalVariable(name: "this", arg: 1, scope: !451, type: !169, flags: DIFlagArtificial | DIFlagObjectPointer)
!453 = !DILocation(line: 0, scope: !451)
!454 = !DILocation(line: 118, column: 35, scope: !451)
!455 = distinct !DISubprogram(name: "ff_v_00000003", linkageName: "_ZN2DD13ff_v_00000003Ev", scope: !3, file: !4, line: 119, type: !94, scopeLine: 119, flags: DIFlagPrototyped, spFlags: DISPFlagDefinition, unit: !0, declaration: !133, retainedNodes: !172)
!456 = !DILocalVariable(name: "this", arg: 1, scope: !455, type: !169, flags: DIFlagArtificial | DIFlagObjectPointer)
!457 = !DILocation(line: 0, scope: !455)
!458 = !DILocation(line: 119, column: 35, scope: !455)
!459 = distinct !DISubprogram(name: "ff_v_00000004", linkageName: "_ZN2DD13ff_v_00000004Ev", scope: !3, file: !4, line: 120, type: !94, scopeLine: 120, flags: DIFlagPrototyped, spFlags: DISPFlagDefinition, unit: !0, declaration: !134, retainedNodes: !172)
!460 = !DILocalVariable(name: "this", arg: 1, scope: !459, type: !169, flags: DIFlagArtificial | DIFlagObjectPointer)
!461 = !DILocation(line: 0, scope: !459)
!462 = !DILocation(line: 120, column: 35, scope: !459)
!463 = distinct !DISubprogram(name: "ff_v_00000005", linkageName: "_ZN2DD13ff_v_00000005Ev", scope: !3, file: !4, line: 121, type: !94, scopeLine: 121, flags: DIFlagPrototyped, spFlags: DISPFlagDefinition, unit: !0, declaration: !135, retainedNodes: !172)
!464 = !DILocalVariable(name: "this", arg: 1, scope: !463, type: !169, flags: DIFlagArtificial | DIFlagObjectPointer)
!465 = !DILocation(line: 0, scope: !463)
!466 = !DILocation(line: 121, column: 35, scope: !463)
!467 = distinct !DISubprogram(name: "ff_v_00000006", linkageName: "_ZN2DD13ff_v_00000006Ev", scope: !3, file: !4, line: 122, type: !94, scopeLine: 122, flags: DIFlagPrototyped, spFlags: DISPFlagDefinition, unit: !0, declaration: !136, retainedNodes: !172)
!468 = !DILocalVariable(name: "this", arg: 1, scope: !467, type: !169, flags: DIFlagArtificial | DIFlagObjectPointer)
!469 = !DILocation(line: 0, scope: !467)
!470 = !DILocation(line: 122, column: 35, scope: !467)
!471 = distinct !DISubprogram(name: "ff_v_00000007", linkageName: "_ZN2DD13ff_v_00000007Ev", scope: !3, file: !4, line: 123, type: !94, scopeLine: 123, flags: DIFlagPrototyped, spFlags: DISPFlagDefinition, unit: !0, declaration: !137, retainedNodes: !172)
!472 = !DILocalVariable(name: "this", arg: 1, scope: !471, type: !169, flags: DIFlagArtificial | DIFlagObjectPointer)
!473 = !DILocation(line: 0, scope: !471)
!474 = !DILocation(line: 123, column: 35, scope: !471)
!475 = distinct !DISubprogram(name: "ff_v_00000008", linkageName: "_ZN2DD13ff_v_00000008Ev", scope: !3, file: !4, line: 124, type: !94, scopeLine: 124, flags: DIFlagPrototyped, spFlags: DISPFlagDefinition, unit: !0, declaration: !138, retainedNodes: !172)
!476 = !DILocalVariable(name: "this", arg: 1, scope: !475, type: !169, flags: DIFlagArtificial | DIFlagObjectPointer)
!477 = !DILocation(line: 0, scope: !475)
!478 = !DILocation(line: 124, column: 35, scope: !475)
!479 = distinct !DISubprogram(name: "ff_v_00000009", linkageName: "_ZN2DD13ff_v_00000009Ev", scope: !3, file: !4, line: 125, type: !94, scopeLine: 125, flags: DIFlagPrototyped, spFlags: DISPFlagDefinition, unit: !0, declaration: !139, retainedNodes: !172)
!480 = !DILocalVariable(name: "this", arg: 1, scope: !479, type: !169, flags: DIFlagArtificial | DIFlagObjectPointer)
!481 = !DILocation(line: 0, scope: !479)
!482 = !DILocation(line: 125, column: 35, scope: !479)
!483 = distinct !DISubprogram(name: "ff_v_00000010", linkageName: "_ZN2DD13ff_v_00000010Ev", scope: !3, file: !4, line: 126, type: !94, scopeLine: 126, flags: DIFlagPrototyped, spFlags: DISPFlagDefinition, unit: !0, declaration: !140, retainedNodes: !172)
!484 = !DILocalVariable(name: "this", arg: 1, scope: !483, type: !169, flags: DIFlagArtificial | DIFlagObjectPointer)
!485 = !DILocation(line: 0, scope: !483)
!486 = !DILocation(line: 126, column: 35, scope: !483)
!487 = distinct !DISubprogram(name: "ff_v_00000011", linkageName: "_ZN2DD13ff_v_00000011Ev", scope: !3, file: !4, line: 127, type: !94, scopeLine: 127, flags: DIFlagPrototyped, spFlags: DISPFlagDefinition, unit: !0, declaration: !141, retainedNodes: !172)
!488 = !DILocalVariable(name: "this", arg: 1, scope: !487, type: !169, flags: DIFlagArtificial | DIFlagObjectPointer)
!489 = !DILocation(line: 0, scope: !487)
!490 = !DILocation(line: 127, column: 35, scope: !487)
!491 = distinct !DISubprogram(name: "ff_v_00000012", linkageName: "_ZN2DD13ff_v_00000012Ev", scope: !3, file: !4, line: 128, type: !94, scopeLine: 128, flags: DIFlagPrototyped, spFlags: DISPFlagDefinition, unit: !0, declaration: !142, retainedNodes: !172)
!492 = !DILocalVariable(name: "this", arg: 1, scope: !491, type: !169, flags: DIFlagArtificial | DIFlagObjectPointer)
!493 = !DILocation(line: 0, scope: !491)
!494 = !DILocation(line: 128, column: 35, scope: !491)
!495 = distinct !DISubprogram(name: "ff_v_00000013", linkageName: "_ZN2DD13ff_v_00000013Ev", scope: !3, file: !4, line: 129, type: !94, scopeLine: 129, flags: DIFlagPrototyped, spFlags: DISPFlagDefinition, unit: !0, declaration: !143, retainedNodes: !172)
!496 = !DILocalVariable(name: "this", arg: 1, scope: !495, type: !169, flags: DIFlagArtificial | DIFlagObjectPointer)
!497 = !DILocation(line: 0, scope: !495)
!498 = !DILocation(line: 129, column: 35, scope: !495)
!499 = distinct !DISubprogram(name: "ff_v_00000014", linkageName: "_ZN2DD13ff_v_00000014Ev", scope: !3, file: !4, line: 130, type: !94, scopeLine: 130, flags: DIFlagPrototyped, spFlags: DISPFlagDefinition, unit: !0, declaration: !144, retainedNodes: !172)
!500 = !DILocalVariable(name: "this", arg: 1, scope: !499, type: !169, flags: DIFlagArtificial | DIFlagObjectPointer)
!501 = !DILocation(line: 0, scope: !499)
!502 = !DILocation(line: 130, column: 35, scope: !499)
!503 = distinct !DISubprogram(name: "ff_v_00000015", linkageName: "_ZN2DD13ff_v_00000015Ev", scope: !3, file: !4, line: 131, type: !94, scopeLine: 131, flags: DIFlagPrototyped, spFlags: DISPFlagDefinition, unit: !0, declaration: !145, retainedNodes: !172)
!504 = !DILocalVariable(name: "this", arg: 1, scope: !503, type: !169, flags: DIFlagArtificial | DIFlagObjectPointer)
!505 = !DILocation(line: 0, scope: !503)
!506 = !DILocation(line: 131, column: 35, scope: !503)
!507 = distinct !DISubprogram(name: "ff_v_00000016", linkageName: "_ZN2DD13ff_v_00000016Ev", scope: !3, file: !4, line: 132, type: !94, scopeLine: 132, flags: DIFlagPrototyped, spFlags: DISPFlagDefinition, unit: !0, declaration: !146, retainedNodes: !172)
!508 = !DILocalVariable(name: "this", arg: 1, scope: !507, type: !169, flags: DIFlagArtificial | DIFlagObjectPointer)
!509 = !DILocation(line: 0, scope: !507)
!510 = !DILocation(line: 132, column: 35, scope: !507)
!511 = distinct !DISubprogram(name: "ff_v_00000017", linkageName: "_ZN2DD13ff_v_00000017Ev", scope: !3, file: !4, line: 133, type: !94, scopeLine: 133, flags: DIFlagPrototyped, spFlags: DISPFlagDefinition, unit: !0, declaration: !147, retainedNodes: !172)
!512 = !DILocalVariable(name: "this", arg: 1, scope: !511, type: !169, flags: DIFlagArtificial | DIFlagObjectPointer)
!513 = !DILocation(line: 0, scope: !511)
!514 = !DILocation(line: 133, column: 35, scope: !511)
!515 = distinct !DISubprogram(name: "ff_v_00000018", linkageName: "_ZN2DD13ff_v_00000018Ev", scope: !3, file: !4, line: 134, type: !94, scopeLine: 134, flags: DIFlagPrototyped, spFlags: DISPFlagDefinition, unit: !0, declaration: !148, retainedNodes: !172)
!516 = !DILocalVariable(name: "this", arg: 1, scope: !515, type: !169, flags: DIFlagArtificial | DIFlagObjectPointer)
!517 = !DILocation(line: 0, scope: !515)
!518 = !DILocation(line: 134, column: 35, scope: !515)
!519 = distinct !DISubprogram(name: "ff_v_00000019", linkageName: "_ZN2DD13ff_v_00000019Ev", scope: !3, file: !4, line: 135, type: !94, scopeLine: 135, flags: DIFlagPrototyped, spFlags: DISPFlagDefinition, unit: !0, declaration: !149, retainedNodes: !172)
!520 = !DILocalVariable(name: "this", arg: 1, scope: !519, type: !169, flags: DIFlagArtificial | DIFlagObjectPointer)
!521 = !DILocation(line: 0, scope: !519)
!522 = !DILocation(line: 135, column: 35, scope: !519)
!523 = distinct !DISubprogram(name: "ff_v_00000020", linkageName: "_ZN2DD13ff_v_00000020Ev", scope: !3, file: !4, line: 136, type: !94, scopeLine: 136, flags: DIFlagPrototyped, spFlags: DISPFlagDefinition, unit: !0, declaration: !150, retainedNodes: !172)
!524 = !DILocalVariable(name: "this", arg: 1, scope: !523, type: !169, flags: DIFlagArtificial | DIFlagObjectPointer)
!525 = !DILocation(line: 0, scope: !523)
!526 = !DILocation(line: 136, column: 35, scope: !523)
!527 = distinct !DISubprogram(name: "ff_v_00000021", linkageName: "_ZN2DD13ff_v_00000021Ev", scope: !3, file: !4, line: 137, type: !94, scopeLine: 137, flags: DIFlagPrototyped, spFlags: DISPFlagDefinition, unit: !0, declaration: !151, retainedNodes: !172)
!528 = !DILocalVariable(name: "this", arg: 1, scope: !527, type: !169, flags: DIFlagArtificial | DIFlagObjectPointer)
!529 = !DILocation(line: 0, scope: !527)
!530 = !DILocation(line: 137, column: 35, scope: !527)
!531 = distinct !DISubprogram(name: "ff_v_00000022", linkageName: "_ZN2DD13ff_v_00000022Ev", scope: !3, file: !4, line: 138, type: !94, scopeLine: 138, flags: DIFlagPrototyped, spFlags: DISPFlagDefinition, unit: !0, declaration: !152, retainedNodes: !172)
!532 = !DILocalVariable(name: "this", arg: 1, scope: !531, type: !169, flags: DIFlagArtificial | DIFlagObjectPointer)
!533 = !DILocation(line: 0, scope: !531)
!534 = !DILocation(line: 138, column: 35, scope: !531)
!535 = distinct !DISubprogram(name: "ff_v_00000023", linkageName: "_ZN2DD13ff_v_00000023Ev", scope: !3, file: !4, line: 139, type: !94, scopeLine: 139, flags: DIFlagPrototyped, spFlags: DISPFlagDefinition, unit: !0, declaration: !153, retainedNodes: !172)
!536 = !DILocalVariable(name: "this", arg: 1, scope: !535, type: !169, flags: DIFlagArtificial | DIFlagObjectPointer)
!537 = !DILocation(line: 0, scope: !535)
!538 = !DILocation(line: 139, column: 35, scope: !535)
!539 = distinct !DISubprogram(name: "ff_v_00000024", linkageName: "_ZN2DD13ff_v_00000024Ev", scope: !3, file: !4, line: 140, type: !94, scopeLine: 140, flags: DIFlagPrototyped, spFlags: DISPFlagDefinition, unit: !0, declaration: !154, retainedNodes: !172)
!540 = !DILocalVariable(name: "this", arg: 1, scope: !539, type: !169, flags: DIFlagArtificial | DIFlagObjectPointer)
!541 = !DILocation(line: 0, scope: !539)
!542 = !DILocation(line: 140, column: 35, scope: !539)
!543 = distinct !DISubprogram(name: "ff_v_00000025", linkageName: "_ZN2DD13ff_v_00000025Ev", scope: !3, file: !4, line: 141, type: !94, scopeLine: 141, flags: DIFlagPrototyped, spFlags: DISPFlagDefinition, unit: !0, declaration: !155, retainedNodes: !172)
!544 = !DILocalVariable(name: "this", arg: 1, scope: !543, type: !169, flags: DIFlagArtificial | DIFlagObjectPointer)
!545 = !DILocation(line: 0, scope: !543)
!546 = !DILocation(line: 141, column: 35, scope: !543)
!547 = distinct !DISubprogram(name: "ff_v_00000026", linkageName: "_ZN2DD13ff_v_00000026Ev", scope: !3, file: !4, line: 142, type: !94, scopeLine: 142, flags: DIFlagPrototyped, spFlags: DISPFlagDefinition, unit: !0, declaration: !156, retainedNodes: !172)
!548 = !DILocalVariable(name: "this", arg: 1, scope: !547, type: !169, flags: DIFlagArtificial | DIFlagObjectPointer)
!549 = !DILocation(line: 0, scope: !547)
!550 = !DILocation(line: 142, column: 35, scope: !547)
!551 = distinct !DISubprogram(name: "ff_v_00000027", linkageName: "_ZN2DD13ff_v_00000027Ev", scope: !3, file: !4, line: 143, type: !94, scopeLine: 143, flags: DIFlagPrototyped, spFlags: DISPFlagDefinition, unit: !0, declaration: !157, retainedNodes: !172)
!552 = !DILocalVariable(name: "this", arg: 1, scope: !551, type: !169, flags: DIFlagArtificial | DIFlagObjectPointer)
!553 = !DILocation(line: 0, scope: !551)
!554 = !DILocation(line: 143, column: 35, scope: !551)
!555 = distinct !DISubprogram(name: "ff_v_00000028", linkageName: "_ZN2DD13ff_v_00000028Ev", scope: !3, file: !4, line: 144, type: !94, scopeLine: 144, flags: DIFlagPrototyped, spFlags: DISPFlagDefinition, unit: !0, declaration: !158, retainedNodes: !172)
!556 = !DILocalVariable(name: "this", arg: 1, scope: !555, type: !169, flags: DIFlagArtificial | DIFlagObjectPointer)
!557 = !DILocation(line: 0, scope: !555)
!558 = !DILocation(line: 144, column: 35, scope: !555)
!559 = distinct !DISubprogram(name: "ff_v_00000029", linkageName: "_ZN2DD13ff_v_00000029Ev", scope: !3, file: !4, line: 145, type: !94, scopeLine: 145, flags: DIFlagPrototyped, spFlags: DISPFlagDefinition, unit: !0, declaration: !159, retainedNodes: !172)
!560 = !DILocalVariable(name: "this", arg: 1, scope: !559, type: !169, flags: DIFlagArtificial | DIFlagObjectPointer)
!561 = !DILocation(line: 0, scope: !559)
!562 = !DILocation(line: 145, column: 35, scope: !559)
!563 = distinct !DISubprogram(linkageName: "_ZThn16_N2DD13hh_v_00000000Ev", scope: !4, file: !4, line: 86, type: !564, flags: DIFlagArtificial | DIFlagThunk, spFlags: DISPFlagDefinition, unit: !0, retainedNodes: !172)
!564 = !DISubroutineType(types: !172)
!565 = !DILocation(line: 0, scope: !563)
!566 = distinct !DISubprogram(linkageName: "_ZThn16_N2DD13hh_v_00000001Ev", scope: !4, file: !4, line: 87, type: !564, flags: DIFlagArtificial | DIFlagThunk, spFlags: DISPFlagDefinition, unit: !0, retainedNodes: !172)
!567 = !DILocation(line: 0, scope: !566)
!568 = distinct !DISubprogram(linkageName: "_ZThn16_N2DD13hh_v_00000002Ev", scope: !4, file: !4, line: 88, type: !564, flags: DIFlagArtificial | DIFlagThunk, spFlags: DISPFlagDefinition, unit: !0, retainedNodes: !172)
!569 = !DILocation(line: 0, scope: !568)
!570 = distinct !DISubprogram(linkageName: "_ZThn16_N2DD13hh_v_00000003Ev", scope: !4, file: !4, line: 89, type: !564, flags: DIFlagArtificial | DIFlagThunk, spFlags: DISPFlagDefinition, unit: !0, retainedNodes: !172)
!571 = !DILocation(line: 0, scope: !570)
!572 = distinct !DISubprogram(linkageName: "_ZThn16_N2DD13hh_v_00000004Ev", scope: !4, file: !4, line: 90, type: !564, flags: DIFlagArtificial | DIFlagThunk, spFlags: DISPFlagDefinition, unit: !0, retainedNodes: !172)
!573 = !DILocation(line: 0, scope: !572)
!574 = distinct !DISubprogram(linkageName: "_ZThn16_N2DD13hh_v_00000005Ev", scope: !4, file: !4, line: 91, type: !564, flags: DIFlagArtificial | DIFlagThunk, spFlags: DISPFlagDefinition, unit: !0, retainedNodes: !172)
!575 = !DILocation(line: 0, scope: !574)
!576 = distinct !DISubprogram(linkageName: "_ZThn16_N2DD13hh_v_00000006Ev", scope: !4, file: !4, line: 92, type: !564, flags: DIFlagArtificial | DIFlagThunk, spFlags: DISPFlagDefinition, unit: !0, retainedNodes: !172)
!577 = !DILocation(line: 0, scope: !576)
!578 = distinct !DISubprogram(linkageName: "_ZThn16_N2DD13hh_v_00000007Ev", scope: !4, file: !4, line: 93, type: !564, flags: DIFlagArtificial | DIFlagThunk, spFlags: DISPFlagDefinition, unit: !0, retainedNodes: !172)
!579 = !DILocation(line: 0, scope: !578)
!580 = distinct !DISubprogram(linkageName: "_ZThn16_N2DD13hh_v_00000008Ev", scope: !4, file: !4, line: 94, type: !564, flags: DIFlagArtificial | DIFlagThunk, spFlags: DISPFlagDefinition, unit: !0, retainedNodes: !172)
!581 = !DILocation(line: 0, scope: !580)
!582 = distinct !DISubprogram(linkageName: "_ZThn16_N2DD13hh_v_00000009Ev", scope: !4, file: !4, line: 95, type: !564, flags: DIFlagArtificial | DIFlagThunk, spFlags: DISPFlagDefinition, unit: !0, retainedNodes: !172)
!583 = !DILocation(line: 0, scope: !582)
!584 = distinct !DISubprogram(linkageName: "_ZThn16_N2DD13hh_v_00000010Ev", scope: !4, file: !4, line: 96, type: !564, flags: DIFlagArtificial | DIFlagThunk, spFlags: DISPFlagDefinition, unit: !0, retainedNodes: !172)
!585 = !DILocation(line: 0, scope: !584)
!586 = distinct !DISubprogram(linkageName: "_ZThn16_N2DD13hh_v_00000011Ev", scope: !4, file: !4, line: 97, type: !564, flags: DIFlagArtificial | DIFlagThunk, spFlags: DISPFlagDefinition, unit: !0, retainedNodes: !172)
!587 = !DILocation(line: 0, scope: !586)
!588 = distinct !DISubprogram(linkageName: "_ZThn16_N2DD13hh_v_00000012Ev", scope: !4, file: !4, line: 98, type: !564, flags: DIFlagArtificial | DIFlagThunk, spFlags: DISPFlagDefinition, unit: !0, retainedNodes: !172)
!589 = !DILocation(line: 0, scope: !588)
!590 = distinct !DISubprogram(linkageName: "_ZThn16_N2DD13hh_v_00000013Ev", scope: !4, file: !4, line: 99, type: !564, flags: DIFlagArtificial | DIFlagThunk, spFlags: DISPFlagDefinition, unit: !0, retainedNodes: !172)
!591 = !DILocation(line: 0, scope: !590)
!592 = distinct !DISubprogram(linkageName: "_ZThn16_N2DD13hh_v_00000014Ev", scope: !4, file: !4, line: 100, type: !564, flags: DIFlagArtificial | DIFlagThunk, spFlags: DISPFlagDefinition, unit: !0, retainedNodes: !172)
!593 = !DILocation(line: 0, scope: !592)
!594 = distinct !DISubprogram(linkageName: "_ZThn16_N2DD13hh_v_00000015Ev", scope: !4, file: !4, line: 101, type: !564, flags: DIFlagArtificial | DIFlagThunk, spFlags: DISPFlagDefinition, unit: !0, retainedNodes: !172)
!595 = !DILocation(line: 0, scope: !594)
!596 = distinct !DISubprogram(linkageName: "_ZThn16_N2DD13hh_v_00000016Ev", scope: !4, file: !4, line: 102, type: !564, flags: DIFlagArtificial | DIFlagThunk, spFlags: DISPFlagDefinition, unit: !0, retainedNodes: !172)
!597 = !DILocation(line: 0, scope: !596)
!598 = distinct !DISubprogram(linkageName: "_ZThn16_N2DD13hh_v_00000017Ev", scope: !4, file: !4, line: 103, type: !564, flags: DIFlagArtificial | DIFlagThunk, spFlags: DISPFlagDefinition, unit: !0, retainedNodes: !172)
!599 = !DILocation(line: 0, scope: !598)
!600 = distinct !DISubprogram(linkageName: "_ZThn16_N2DD13hh_v_00000018Ev", scope: !4, file: !4, line: 104, type: !564, flags: DIFlagArtificial | DIFlagThunk, spFlags: DISPFlagDefinition, unit: !0, retainedNodes: !172)
!601 = !DILocation(line: 0, scope: !600)
!602 = distinct !DISubprogram(linkageName: "_ZThn16_N2DD13hh_v_00000019Ev", scope: !4, file: !4, line: 105, type: !564, flags: DIFlagArtificial | DIFlagThunk, spFlags: DISPFlagDefinition, unit: !0, retainedNodes: !172)
!603 = !DILocation(line: 0, scope: !602)
!604 = distinct !DISubprogram(linkageName: "_ZThn16_N2DD13hh_v_00000020Ev", scope: !4, file: !4, line: 106, type: !564, flags: DIFlagArtificial | DIFlagThunk, spFlags: DISPFlagDefinition, unit: !0, retainedNodes: !172)
!605 = !DILocation(line: 0, scope: !604)
!606 = distinct !DISubprogram(linkageName: "_ZThn16_N2DD13hh_v_00000021Ev", scope: !4, file: !4, line: 107, type: !564, flags: DIFlagArtificial | DIFlagThunk, spFlags: DISPFlagDefinition, unit: !0, retainedNodes: !172)
!607 = !DILocation(line: 0, scope: !606)
!608 = distinct !DISubprogram(linkageName: "_ZThn16_N2DD13hh_v_00000022Ev", scope: !4, file: !4, line: 108, type: !564, flags: DIFlagArtificial | DIFlagThunk, spFlags: DISPFlagDefinition, unit: !0, retainedNodes: !172)
!609 = !DILocation(line: 0, scope: !608)
!610 = distinct !DISubprogram(linkageName: "_ZThn16_N2DD13hh_v_00000023Ev", scope: !4, file: !4, line: 109, type: !564, flags: DIFlagArtificial | DIFlagThunk, spFlags: DISPFlagDefinition, unit: !0, retainedNodes: !172)
!611 = !DILocation(line: 0, scope: !610)
!612 = distinct !DISubprogram(linkageName: "_ZThn16_N2DD13hh_v_00000024Ev", scope: !4, file: !4, line: 110, type: !564, flags: DIFlagArtificial | DIFlagThunk, spFlags: DISPFlagDefinition, unit: !0, retainedNodes: !172)
!613 = !DILocation(line: 0, scope: !612)
!614 = distinct !DISubprogram(linkageName: "_ZThn16_N2DD13hh_v_00000025Ev", scope: !4, file: !4, line: 111, type: !564, flags: DIFlagArtificial | DIFlagThunk, spFlags: DISPFlagDefinition, unit: !0, retainedNodes: !172)
!615 = !DILocation(line: 0, scope: !614)
!616 = distinct !DISubprogram(linkageName: "_ZThn16_N2DD13hh_v_00000026Ev", scope: !4, file: !4, line: 112, type: !564, flags: DIFlagArtificial | DIFlagThunk, spFlags: DISPFlagDefinition, unit: !0, retainedNodes: !172)
!617 = !DILocation(line: 0, scope: !616)
!618 = distinct !DISubprogram(linkageName: "_ZThn16_N2DD13hh_v_00000027Ev", scope: !4, file: !4, line: 113, type: !564, flags: DIFlagArtificial | DIFlagThunk, spFlags: DISPFlagDefinition, unit: !0, retainedNodes: !172)
!619 = !DILocation(line: 0, scope: !618)
!620 = distinct !DISubprogram(linkageName: "_ZThn16_N2DD13hh_v_00000028Ev", scope: !4, file: !4, line: 114, type: !564, flags: DIFlagArtificial | DIFlagThunk, spFlags: DISPFlagDefinition, unit: !0, retainedNodes: !172)
!621 = !DILocation(line: 0, scope: !620)
!622 = distinct !DISubprogram(name: "hh_v_00000029", linkageName: "_ZN2CC13hh_v_00000029Ev", scope: !52, file: !4, line: 72, type: !60, scopeLine: 72, flags: DIFlagPrototyped, spFlags: DISPFlagDefinition, unit: !0, declaration: !91, retainedNodes: !172)
!623 = !DILocalVariable(name: "this", arg: 1, scope: !622, type: !204, flags: DIFlagArtificial | DIFlagObjectPointer)
!624 = !DILocation(line: 0, scope: !622)
!625 = !DILocation(line: 72, column: 35, scope: !622)
!626 = distinct !DISubprogram(name: "hh_v_00000000", linkageName: "_ZN2CC13hh_v_00000000Ev", scope: !52, file: !4, line: 43, type: !60, scopeLine: 43, flags: DIFlagPrototyped, spFlags: DISPFlagDefinition, unit: !0, declaration: !59, retainedNodes: !172)
!627 = !DILocalVariable(name: "this", arg: 1, scope: !626, type: !204, flags: DIFlagArtificial | DIFlagObjectPointer)
!628 = !DILocation(line: 0, scope: !626)
!629 = !DILocation(line: 43, column: 35, scope: !626)
!630 = distinct !DISubprogram(name: "hh_v_00000001", linkageName: "_ZN2CC13hh_v_00000001Ev", scope: !52, file: !4, line: 44, type: !60, scopeLine: 44, flags: DIFlagPrototyped, spFlags: DISPFlagDefinition, unit: !0, declaration: !63, retainedNodes: !172)
!631 = !DILocalVariable(name: "this", arg: 1, scope: !630, type: !204, flags: DIFlagArtificial | DIFlagObjectPointer)
!632 = !DILocation(line: 0, scope: !630)
!633 = !DILocation(line: 44, column: 35, scope: !630)
!634 = distinct !DISubprogram(name: "hh_v_00000002", linkageName: "_ZN2CC13hh_v_00000002Ev", scope: !52, file: !4, line: 45, type: !60, scopeLine: 45, flags: DIFlagPrototyped, spFlags: DISPFlagDefinition, unit: !0, declaration: !64, retainedNodes: !172)
!635 = !DILocalVariable(name: "this", arg: 1, scope: !634, type: !204, flags: DIFlagArtificial | DIFlagObjectPointer)
!636 = !DILocation(line: 0, scope: !634)
!637 = !DILocation(line: 45, column: 35, scope: !634)
!638 = distinct !DISubprogram(name: "hh_v_00000003", linkageName: "_ZN2CC13hh_v_00000003Ev", scope: !52, file: !4, line: 46, type: !60, scopeLine: 46, flags: DIFlagPrototyped, spFlags: DISPFlagDefinition, unit: !0, declaration: !65, retainedNodes: !172)
!639 = !DILocalVariable(name: "this", arg: 1, scope: !638, type: !204, flags: DIFlagArtificial | DIFlagObjectPointer)
!640 = !DILocation(line: 0, scope: !638)
!641 = !DILocation(line: 46, column: 35, scope: !638)
!642 = distinct !DISubprogram(name: "hh_v_00000004", linkageName: "_ZN2CC13hh_v_00000004Ev", scope: !52, file: !4, line: 47, type: !60, scopeLine: 47, flags: DIFlagPrototyped, spFlags: DISPFlagDefinition, unit: !0, declaration: !66, retainedNodes: !172)
!643 = !DILocalVariable(name: "this", arg: 1, scope: !642, type: !204, flags: DIFlagArtificial | DIFlagObjectPointer)
!644 = !DILocation(line: 0, scope: !642)
!645 = !DILocation(line: 47, column: 35, scope: !642)
!646 = distinct !DISubprogram(name: "hh_v_00000005", linkageName: "_ZN2CC13hh_v_00000005Ev", scope: !52, file: !4, line: 48, type: !60, scopeLine: 48, flags: DIFlagPrototyped, spFlags: DISPFlagDefinition, unit: !0, declaration: !67, retainedNodes: !172)
!647 = !DILocalVariable(name: "this", arg: 1, scope: !646, type: !204, flags: DIFlagArtificial | DIFlagObjectPointer)
!648 = !DILocation(line: 0, scope: !646)
!649 = !DILocation(line: 48, column: 35, scope: !646)
!650 = distinct !DISubprogram(name: "hh_v_00000006", linkageName: "_ZN2CC13hh_v_00000006Ev", scope: !52, file: !4, line: 49, type: !60, scopeLine: 49, flags: DIFlagPrototyped, spFlags: DISPFlagDefinition, unit: !0, declaration: !68, retainedNodes: !172)
!651 = !DILocalVariable(name: "this", arg: 1, scope: !650, type: !204, flags: DIFlagArtificial | DIFlagObjectPointer)
!652 = !DILocation(line: 0, scope: !650)
!653 = !DILocation(line: 49, column: 35, scope: !650)
!654 = distinct !DISubprogram(name: "hh_v_00000007", linkageName: "_ZN2CC13hh_v_00000007Ev", scope: !52, file: !4, line: 50, type: !60, scopeLine: 50, flags: DIFlagPrototyped, spFlags: DISPFlagDefinition, unit: !0, declaration: !69, retainedNodes: !172)
!655 = !DILocalVariable(name: "this", arg: 1, scope: !654, type: !204, flags: DIFlagArtificial | DIFlagObjectPointer)
!656 = !DILocation(line: 0, scope: !654)
!657 = !DILocation(line: 50, column: 35, scope: !654)
!658 = distinct !DISubprogram(name: "hh_v_00000008", linkageName: "_ZN2CC13hh_v_00000008Ev", scope: !52, file: !4, line: 51, type: !60, scopeLine: 51, flags: DIFlagPrototyped, spFlags: DISPFlagDefinition, unit: !0, declaration: !70, retainedNodes: !172)
!659 = !DILocalVariable(name: "this", arg: 1, scope: !658, type: !204, flags: DIFlagArtificial | DIFlagObjectPointer)
!660 = !DILocation(line: 0, scope: !658)
!661 = !DILocation(line: 51, column: 35, scope: !658)
!662 = distinct !DISubprogram(name: "hh_v_00000009", linkageName: "_ZN2CC13hh_v_00000009Ev", scope: !52, file: !4, line: 52, type: !60, scopeLine: 52, flags: DIFlagPrototyped, spFlags: DISPFlagDefinition, unit: !0, declaration: !71, retainedNodes: !172)
!663 = !DILocalVariable(name: "this", arg: 1, scope: !662, type: !204, flags: DIFlagArtificial | DIFlagObjectPointer)
!664 = !DILocation(line: 0, scope: !662)
!665 = !DILocation(line: 52, column: 35, scope: !662)
!666 = distinct !DISubprogram(name: "hh_v_00000010", linkageName: "_ZN2CC13hh_v_00000010Ev", scope: !52, file: !4, line: 53, type: !60, scopeLine: 53, flags: DIFlagPrototyped, spFlags: DISPFlagDefinition, unit: !0, declaration: !72, retainedNodes: !172)
!667 = !DILocalVariable(name: "this", arg: 1, scope: !666, type: !204, flags: DIFlagArtificial | DIFlagObjectPointer)
!668 = !DILocation(line: 0, scope: !666)
!669 = !DILocation(line: 53, column: 35, scope: !666)
!670 = distinct !DISubprogram(name: "hh_v_00000011", linkageName: "_ZN2CC13hh_v_00000011Ev", scope: !52, file: !4, line: 54, type: !60, scopeLine: 54, flags: DIFlagPrototyped, spFlags: DISPFlagDefinition, unit: !0, declaration: !73, retainedNodes: !172)
!671 = !DILocalVariable(name: "this", arg: 1, scope: !670, type: !204, flags: DIFlagArtificial | DIFlagObjectPointer)
!672 = !DILocation(line: 0, scope: !670)
!673 = !DILocation(line: 54, column: 35, scope: !670)
!674 = distinct !DISubprogram(name: "hh_v_00000012", linkageName: "_ZN2CC13hh_v_00000012Ev", scope: !52, file: !4, line: 55, type: !60, scopeLine: 55, flags: DIFlagPrototyped, spFlags: DISPFlagDefinition, unit: !0, declaration: !74, retainedNodes: !172)
!675 = !DILocalVariable(name: "this", arg: 1, scope: !674, type: !204, flags: DIFlagArtificial | DIFlagObjectPointer)
!676 = !DILocation(line: 0, scope: !674)
!677 = !DILocation(line: 55, column: 35, scope: !674)
!678 = distinct !DISubprogram(name: "hh_v_00000013", linkageName: "_ZN2CC13hh_v_00000013Ev", scope: !52, file: !4, line: 56, type: !60, scopeLine: 56, flags: DIFlagPrototyped, spFlags: DISPFlagDefinition, unit: !0, declaration: !75, retainedNodes: !172)
!679 = !DILocalVariable(name: "this", arg: 1, scope: !678, type: !204, flags: DIFlagArtificial | DIFlagObjectPointer)
!680 = !DILocation(line: 0, scope: !678)
!681 = !DILocation(line: 56, column: 35, scope: !678)
!682 = distinct !DISubprogram(name: "hh_v_00000014", linkageName: "_ZN2CC13hh_v_00000014Ev", scope: !52, file: !4, line: 57, type: !60, scopeLine: 57, flags: DIFlagPrototyped, spFlags: DISPFlagDefinition, unit: !0, declaration: !76, retainedNodes: !172)
!683 = !DILocalVariable(name: "this", arg: 1, scope: !682, type: !204, flags: DIFlagArtificial | DIFlagObjectPointer)
!684 = !DILocation(line: 0, scope: !682)
!685 = !DILocation(line: 57, column: 35, scope: !682)
!686 = distinct !DISubprogram(name: "hh_v_00000015", linkageName: "_ZN2CC13hh_v_00000015Ev", scope: !52, file: !4, line: 58, type: !60, scopeLine: 58, flags: DIFlagPrototyped, spFlags: DISPFlagDefinition, unit: !0, declaration: !77, retainedNodes: !172)
!687 = !DILocalVariable(name: "this", arg: 1, scope: !686, type: !204, flags: DIFlagArtificial | DIFlagObjectPointer)
!688 = !DILocation(line: 0, scope: !686)
!689 = !DILocation(line: 58, column: 35, scope: !686)
!690 = distinct !DISubprogram(name: "hh_v_00000016", linkageName: "_ZN2CC13hh_v_00000016Ev", scope: !52, file: !4, line: 59, type: !60, scopeLine: 59, flags: DIFlagPrototyped, spFlags: DISPFlagDefinition, unit: !0, declaration: !78, retainedNodes: !172)
!691 = !DILocalVariable(name: "this", arg: 1, scope: !690, type: !204, flags: DIFlagArtificial | DIFlagObjectPointer)
!692 = !DILocation(line: 0, scope: !690)
!693 = !DILocation(line: 59, column: 35, scope: !690)
!694 = distinct !DISubprogram(name: "hh_v_00000017", linkageName: "_ZN2CC13hh_v_00000017Ev", scope: !52, file: !4, line: 60, type: !60, scopeLine: 60, flags: DIFlagPrototyped, spFlags: DISPFlagDefinition, unit: !0, declaration: !79, retainedNodes: !172)
!695 = !DILocalVariable(name: "this", arg: 1, scope: !694, type: !204, flags: DIFlagArtificial | DIFlagObjectPointer)
!696 = !DILocation(line: 0, scope: !694)
!697 = !DILocation(line: 60, column: 35, scope: !694)
!698 = distinct !DISubprogram(name: "hh_v_00000018", linkageName: "_ZN2CC13hh_v_00000018Ev", scope: !52, file: !4, line: 61, type: !60, scopeLine: 61, flags: DIFlagPrototyped, spFlags: DISPFlagDefinition, unit: !0, declaration: !80, retainedNodes: !172)
!699 = !DILocalVariable(name: "this", arg: 1, scope: !698, type: !204, flags: DIFlagArtificial | DIFlagObjectPointer)
!700 = !DILocation(line: 0, scope: !698)
!701 = !DILocation(line: 61, column: 35, scope: !698)
!702 = distinct !DISubprogram(name: "hh_v_00000019", linkageName: "_ZN2CC13hh_v_00000019Ev", scope: !52, file: !4, line: 62, type: !60, scopeLine: 62, flags: DIFlagPrototyped, spFlags: DISPFlagDefinition, unit: !0, declaration: !81, retainedNodes: !172)
!703 = !DILocalVariable(name: "this", arg: 1, scope: !702, type: !204, flags: DIFlagArtificial | DIFlagObjectPointer)
!704 = !DILocation(line: 0, scope: !702)
!705 = !DILocation(line: 62, column: 35, scope: !702)
!706 = distinct !DISubprogram(name: "hh_v_00000020", linkageName: "_ZN2CC13hh_v_00000020Ev", scope: !52, file: !4, line: 63, type: !60, scopeLine: 63, flags: DIFlagPrototyped, spFlags: DISPFlagDefinition, unit: !0, declaration: !82, retainedNodes: !172)
!707 = !DILocalVariable(name: "this", arg: 1, scope: !706, type: !204, flags: DIFlagArtificial | DIFlagObjectPointer)
!708 = !DILocation(line: 0, scope: !706)
!709 = !DILocation(line: 63, column: 35, scope: !706)
!710 = distinct !DISubprogram(name: "hh_v_00000021", linkageName: "_ZN2CC13hh_v_00000021Ev", scope: !52, file: !4, line: 64, type: !60, scopeLine: 64, flags: DIFlagPrototyped, spFlags: DISPFlagDefinition, unit: !0, declaration: !83, retainedNodes: !172)
!711 = !DILocalVariable(name: "this", arg: 1, scope: !710, type: !204, flags: DIFlagArtificial | DIFlagObjectPointer)
!712 = !DILocation(line: 0, scope: !710)
!713 = !DILocation(line: 64, column: 35, scope: !710)
!714 = distinct !DISubprogram(name: "hh_v_00000022", linkageName: "_ZN2CC13hh_v_00000022Ev", scope: !52, file: !4, line: 65, type: !60, scopeLine: 65, flags: DIFlagPrototyped, spFlags: DISPFlagDefinition, unit: !0, declaration: !84, retainedNodes: !172)
!715 = !DILocalVariable(name: "this", arg: 1, scope: !714, type: !204, flags: DIFlagArtificial | DIFlagObjectPointer)
!716 = !DILocation(line: 0, scope: !714)
!717 = !DILocation(line: 65, column: 35, scope: !714)
!718 = distinct !DISubprogram(name: "hh_v_00000023", linkageName: "_ZN2CC13hh_v_00000023Ev", scope: !52, file: !4, line: 66, type: !60, scopeLine: 66, flags: DIFlagPrototyped, spFlags: DISPFlagDefinition, unit: !0, declaration: !85, retainedNodes: !172)
!719 = !DILocalVariable(name: "this", arg: 1, scope: !718, type: !204, flags: DIFlagArtificial | DIFlagObjectPointer)
!720 = !DILocation(line: 0, scope: !718)
!721 = !DILocation(line: 66, column: 35, scope: !718)
!722 = distinct !DISubprogram(name: "hh_v_00000024", linkageName: "_ZN2CC13hh_v_00000024Ev", scope: !52, file: !4, line: 67, type: !60, scopeLine: 67, flags: DIFlagPrototyped, spFlags: DISPFlagDefinition, unit: !0, declaration: !86, retainedNodes: !172)
!723 = !DILocalVariable(name: "this", arg: 1, scope: !722, type: !204, flags: DIFlagArtificial | DIFlagObjectPointer)
!724 = !DILocation(line: 0, scope: !722)
!725 = !DILocation(line: 67, column: 35, scope: !722)
!726 = distinct !DISubprogram(name: "hh_v_00000025", linkageName: "_ZN2CC13hh_v_00000025Ev", scope: !52, file: !4, line: 68, type: !60, scopeLine: 68, flags: DIFlagPrototyped, spFlags: DISPFlagDefinition, unit: !0, declaration: !87, retainedNodes: !172)
!727 = !DILocalVariable(name: "this", arg: 1, scope: !726, type: !204, flags: DIFlagArtificial | DIFlagObjectPointer)
!728 = !DILocation(line: 0, scope: !726)
!729 = !DILocation(line: 68, column: 35, scope: !726)
!730 = distinct !DISubprogram(name: "hh_v_00000026", linkageName: "_ZN2CC13hh_v_00000026Ev", scope: !52, file: !4, line: 69, type: !60, scopeLine: 69, flags: DIFlagPrototyped, spFlags: DISPFlagDefinition, unit: !0, declaration: !88, retainedNodes: !172)
!731 = !DILocalVariable(name: "this", arg: 1, scope: !730, type: !204, flags: DIFlagArtificial | DIFlagObjectPointer)
!732 = !DILocation(line: 0, scope: !730)
!733 = !DILocation(line: 69, column: 35, scope: !730)
!734 = distinct !DISubprogram(name: "hh_v_00000027", linkageName: "_ZN2CC13hh_v_00000027Ev", scope: !52, file: !4, line: 70, type: !60, scopeLine: 70, flags: DIFlagPrototyped, spFlags: DISPFlagDefinition, unit: !0, declaration: !89, retainedNodes: !172)
!735 = !DILocalVariable(name: "this", arg: 1, scope: !734, type: !204, flags: DIFlagArtificial | DIFlagObjectPointer)
!736 = !DILocation(line: 0, scope: !734)
!737 = !DILocation(line: 70, column: 35, scope: !734)
!738 = distinct !DISubprogram(name: "hh_v_00000028", linkageName: "_ZN2CC13hh_v_00000028Ev", scope: !52, file: !4, line: 71, type: !60, scopeLine: 71, flags: DIFlagPrototyped, spFlags: DISPFlagDefinition, unit: !0, declaration: !90, retainedNodes: !172)
!739 = !DILocalVariable(name: "this", arg: 1, scope: !738, type: !204, flags: DIFlagArtificial | DIFlagObjectPointer)
!740 = !DILocation(line: 0, scope: !738)
!741 = !DILocation(line: 71, column: 35, scope: !738)
!742 = distinct !DISubprogram(name: "gg_v_00000000", linkageName: "_ZN2BB13gg_v_00000000Ev", scope: !7, file: !4, line: 6, type: !19, scopeLine: 6, flags: DIFlagPrototyped, spFlags: DISPFlagDefinition, unit: !0, declaration: !18, retainedNodes: !172)
!743 = !DILocalVariable(name: "this", arg: 1, scope: !742, type: !198, flags: DIFlagArtificial | DIFlagObjectPointer)
!744 = !DILocation(line: 0, scope: !742)
!745 = !DILocation(line: 6, column: 35, scope: !742)
!746 = distinct !DISubprogram(name: "gg_v_00000001", linkageName: "_ZN2BB13gg_v_00000001Ev", scope: !7, file: !4, line: 7, type: !19, scopeLine: 7, flags: DIFlagPrototyped, spFlags: DISPFlagDefinition, unit: !0, declaration: !22, retainedNodes: !172)
!747 = !DILocalVariable(name: "this", arg: 1, scope: !746, type: !198, flags: DIFlagArtificial | DIFlagObjectPointer)
!748 = !DILocation(line: 0, scope: !746)
!749 = !DILocation(line: 7, column: 35, scope: !746)
!750 = distinct !DISubprogram(name: "gg_v_00000002", linkageName: "_ZN2BB13gg_v_00000002Ev", scope: !7, file: !4, line: 8, type: !19, scopeLine: 8, flags: DIFlagPrototyped, spFlags: DISPFlagDefinition, unit: !0, declaration: !23, retainedNodes: !172)
!751 = !DILocalVariable(name: "this", arg: 1, scope: !750, type: !198, flags: DIFlagArtificial | DIFlagObjectPointer)
!752 = !DILocation(line: 0, scope: !750)
!753 = !DILocation(line: 8, column: 35, scope: !750)
!754 = distinct !DISubprogram(name: "gg_v_00000003", linkageName: "_ZN2BB13gg_v_00000003Ev", scope: !7, file: !4, line: 9, type: !19, scopeLine: 9, flags: DIFlagPrototyped, spFlags: DISPFlagDefinition, unit: !0, declaration: !24, retainedNodes: !172)
!755 = !DILocalVariable(name: "this", arg: 1, scope: !754, type: !198, flags: DIFlagArtificial | DIFlagObjectPointer)
!756 = !DILocation(line: 0, scope: !754)
!757 = !DILocation(line: 9, column: 35, scope: !754)
!758 = distinct !DISubprogram(name: "gg_v_00000004", linkageName: "_ZN2BB13gg_v_00000004Ev", scope: !7, file: !4, line: 10, type: !19, scopeLine: 10, flags: DIFlagPrototyped, spFlags: DISPFlagDefinition, unit: !0, declaration: !25, retainedNodes: !172)
!759 = !DILocalVariable(name: "this", arg: 1, scope: !758, type: !198, flags: DIFlagArtificial | DIFlagObjectPointer)
!760 = !DILocation(line: 0, scope: !758)
!761 = !DILocation(line: 10, column: 35, scope: !758)
