; ModuleID = './MicroBenchmark/virtual_v1_nv1/pre_bc/virtual_v1_nv1_30_2.pre.bc'
source_filename = "llvm-link"
target datalayout = "e-m:e-p270:32:32-p271:32:32-p272:64:64-i64:64-f80:128-n8:16:32:64-S128"
target triple = "x86_64-unknown-linux-gnu"

%class.DD = type { %class.BB.base, %class.CC.base, i64, %class.AA }
%class.BB.base = type { i32 (...)**, i64* }
%class.CC.base = type { i32 (...)**, [2 x i32] }
%class.AA = type { i32 (...)**, i8* }
%class.BB = type { i32 (...)**, i64*, %class.AA }
%class.CC = type { i32 (...)**, [2 x i32], %class.AA }

$_ZN2DDC1Ev = comdat any

$_ZN2DD14ff_nv_00000000Ev = comdat any

$_ZN2AAC2Ev = comdat any

$_ZN2BBC2Ev = comdat any

$_ZN2CCC2Ev = comdat any

$_ZN2DD13gg_v_00000000Ev = comdat any

$_ZN2DD13gg_v_00000001Ev = comdat any

$_ZN2DD13gg_v_00000002Ev = comdat any

$_ZN2BB13gg_v_00000003Ev = comdat any

$_ZN2BB13gg_v_00000004Ev = comdat any

$_ZN2BB13gg_v_00000005Ev = comdat any

$_ZN2BB13gg_v_00000006Ev = comdat any

$_ZN2BB13gg_v_00000007Ev = comdat any

$_ZN2BB13gg_v_00000008Ev = comdat any

$_ZN2BB13gg_v_00000009Ev = comdat any

$_ZN2BB13gg_v_00000010Ev = comdat any

$_ZN2BB13gg_v_00000011Ev = comdat any

$_ZN2BB13gg_v_00000012Ev = comdat any

$_ZN2BB13gg_v_00000013Ev = comdat any

$_ZN2BB13gg_v_00000014Ev = comdat any

$_ZN2BB13gg_v_00000015Ev = comdat any

$_ZN2BB13gg_v_00000016Ev = comdat any

$_ZN2BB13gg_v_00000017Ev = comdat any

$_ZN2BB13gg_v_00000018Ev = comdat any

$_ZN2BB13gg_v_00000019Ev = comdat any

$_ZN2BB13gg_v_00000020Ev = comdat any

$_ZN2BB13gg_v_00000021Ev = comdat any

$_ZN2BB13gg_v_00000022Ev = comdat any

$_ZN2BB13gg_v_00000023Ev = comdat any

$_ZN2BB13gg_v_00000024Ev = comdat any

$_ZN2BB13gg_v_00000025Ev = comdat any

$_ZN2BB13gg_v_00000026Ev = comdat any

$_ZN2BB13gg_v_00000027Ev = comdat any

$_ZN2BB13gg_v_00000028Ev = comdat any

$_ZN2BB13gg_v_00000029Ev = comdat any

$_ZN2DD13kk_v_00000000Ev = comdat any

$_ZN2DD13kk_v_00000001Ev = comdat any

$_ZN2DD13kk_v_00000002Ev = comdat any

$_ZN2DD13kk_v_00000003Ev = comdat any

$_ZN2DD13kk_v_00000004Ev = comdat any

$_ZN2DD13kk_v_00000005Ev = comdat any

$_ZN2DD13kk_v_00000006Ev = comdat any

$_ZN2DD13kk_v_00000007Ev = comdat any

$_ZN2DD13kk_v_00000008Ev = comdat any

$_ZN2DD13kk_v_00000009Ev = comdat any

$_ZN2DD13kk_v_00000010Ev = comdat any

$_ZN2DD13kk_v_00000011Ev = comdat any

$_ZN2DD13kk_v_00000012Ev = comdat any

$_ZN2DD13kk_v_00000013Ev = comdat any

$_ZN2DD13kk_v_00000014Ev = comdat any

$_ZN2DD13kk_v_00000015Ev = comdat any

$_ZN2DD13kk_v_00000016Ev = comdat any

$_ZN2DD13kk_v_00000017Ev = comdat any

$_ZN2DD13kk_v_00000018Ev = comdat any

$_ZN2DD13kk_v_00000019Ev = comdat any

$_ZN2DD13kk_v_00000020Ev = comdat any

$_ZN2DD13kk_v_00000021Ev = comdat any

$_ZN2DD13kk_v_00000022Ev = comdat any

$_ZN2DD13kk_v_00000023Ev = comdat any

$_ZN2DD13kk_v_00000024Ev = comdat any

$_ZN2DD13kk_v_00000025Ev = comdat any

$_ZN2DD13hh_v_00000000Ev = comdat any

$_ZN2DD13hh_v_00000001Ev = comdat any

$_ZN2DD13hh_v_00000002Ev = comdat any

$_ZN2DD13hh_v_00000003Ev = comdat any

$_ZN2DD13hh_v_00000004Ev = comdat any

$_ZN2DD13hh_v_00000005Ev = comdat any

$_ZN2DD13ff_v_00000000Ev = comdat any

$_ZN2DD13ff_v_00000001Ev = comdat any

$_ZN2DD13ff_v_00000002Ev = comdat any

$_ZN2DD13ff_v_00000003Ev = comdat any

$_ZN2DD13ff_v_00000004Ev = comdat any

$_ZN2DD13ff_v_00000005Ev = comdat any

$_ZN2DD13ff_v_00000006Ev = comdat any

$_ZN2DD13ff_v_00000007Ev = comdat any

$_ZN2DD13ff_v_00000008Ev = comdat any

$_ZN2DD13ff_v_00000009Ev = comdat any

$_ZN2DD13ff_v_00000010Ev = comdat any

$_ZN2DD13ff_v_00000011Ev = comdat any

$_ZN2DD13ff_v_00000012Ev = comdat any

$_ZN2DD13ff_v_00000013Ev = comdat any

$_ZN2DD13ff_v_00000014Ev = comdat any

$_ZN2DD13ff_v_00000015Ev = comdat any

$_ZN2DD13ff_v_00000016Ev = comdat any

$_ZN2DD13ff_v_00000017Ev = comdat any

$_ZN2DD13ff_v_00000018Ev = comdat any

$_ZN2DD13ff_v_00000019Ev = comdat any

$_ZN2DD13ff_v_00000020Ev = comdat any

$_ZN2DD13ff_v_00000021Ev = comdat any

$_ZN2DD13ff_v_00000022Ev = comdat any

$_ZN2DD13ff_v_00000023Ev = comdat any

$_ZN2DD13ff_v_00000024Ev = comdat any

$_ZN2DD13ff_v_00000025Ev = comdat any

$_ZN2DD13ff_v_00000026Ev = comdat any

$_ZN2DD13ff_v_00000027Ev = comdat any

$_ZN2DD13ff_v_00000028Ev = comdat any

$_ZN2DD13ff_v_00000029Ev = comdat any

$_ZThn16_N2DD13hh_v_00000000Ev = comdat any

$_ZThn16_N2DD13hh_v_00000001Ev = comdat any

$_ZThn16_N2DD13hh_v_00000002Ev = comdat any

$_ZThn16_N2DD13hh_v_00000003Ev = comdat any

$_ZThn16_N2DD13hh_v_00000004Ev = comdat any

$_ZThn16_N2DD13hh_v_00000005Ev = comdat any

$_ZN2CC13hh_v_00000006Ev = comdat any

$_ZN2CC13hh_v_00000007Ev = comdat any

$_ZN2CC13hh_v_00000008Ev = comdat any

$_ZN2CC13hh_v_00000009Ev = comdat any

$_ZN2CC13hh_v_00000010Ev = comdat any

$_ZN2CC13hh_v_00000011Ev = comdat any

$_ZN2CC13hh_v_00000012Ev = comdat any

$_ZN2CC13hh_v_00000013Ev = comdat any

$_ZN2CC13hh_v_00000014Ev = comdat any

$_ZN2CC13hh_v_00000015Ev = comdat any

$_ZN2CC13hh_v_00000016Ev = comdat any

$_ZN2CC13hh_v_00000017Ev = comdat any

$_ZN2CC13hh_v_00000018Ev = comdat any

$_ZN2CC13hh_v_00000019Ev = comdat any

$_ZN2CC13hh_v_00000020Ev = comdat any

$_ZN2CC13hh_v_00000021Ev = comdat any

$_ZN2CC13hh_v_00000022Ev = comdat any

$_ZN2CC13hh_v_00000023Ev = comdat any

$_ZN2CC13hh_v_00000024Ev = comdat any

$_ZN2CC13hh_v_00000025Ev = comdat any

$_ZN2CC13hh_v_00000026Ev = comdat any

$_ZN2CC13hh_v_00000027Ev = comdat any

$_ZN2CC13hh_v_00000028Ev = comdat any

$_ZN2CC13hh_v_00000029Ev = comdat any

$_ZTv0_n24_N2DD13kk_v_00000000Ev = comdat any

$_ZTv0_n32_N2DD13kk_v_00000001Ev = comdat any

$_ZTv0_n40_N2DD13kk_v_00000002Ev = comdat any

$_ZTv0_n48_N2DD13kk_v_00000003Ev = comdat any

$_ZTv0_n56_N2DD13kk_v_00000004Ev = comdat any

$_ZTv0_n64_N2DD13kk_v_00000005Ev = comdat any

$_ZTv0_n72_N2DD13kk_v_00000006Ev = comdat any

$_ZTv0_n80_N2DD13kk_v_00000007Ev = comdat any

$_ZTv0_n88_N2DD13kk_v_00000008Ev = comdat any

$_ZTv0_n96_N2DD13kk_v_00000009Ev = comdat any

$_ZTv0_n104_N2DD13kk_v_00000010Ev = comdat any

$_ZTv0_n112_N2DD13kk_v_00000011Ev = comdat any

$_ZTv0_n120_N2DD13kk_v_00000012Ev = comdat any

$_ZTv0_n128_N2DD13kk_v_00000013Ev = comdat any

$_ZTv0_n136_N2DD13kk_v_00000014Ev = comdat any

$_ZTv0_n144_N2DD13kk_v_00000015Ev = comdat any

$_ZTv0_n152_N2DD13kk_v_00000016Ev = comdat any

$_ZTv0_n160_N2DD13kk_v_00000017Ev = comdat any

$_ZTv0_n168_N2DD13kk_v_00000018Ev = comdat any

$_ZTv0_n176_N2DD13kk_v_00000019Ev = comdat any

$_ZTv0_n184_N2DD13kk_v_00000020Ev = comdat any

$_ZTv0_n192_N2DD13kk_v_00000021Ev = comdat any

$_ZTv0_n200_N2DD13kk_v_00000022Ev = comdat any

$_ZTv0_n208_N2DD13kk_v_00000023Ev = comdat any

$_ZTv0_n216_N2DD13kk_v_00000024Ev = comdat any

$_ZTv0_n224_N2DD13kk_v_00000025Ev = comdat any

$_ZN2AA13kk_v_00000026Ev = comdat any

$_ZN2AA13kk_v_00000027Ev = comdat any

$_ZN2AA13kk_v_00000028Ev = comdat any

$_ZN2AA13kk_v_00000029Ev = comdat any

$_ZN2CC13hh_v_00000000Ev = comdat any

$_ZN2CC13hh_v_00000001Ev = comdat any

$_ZN2CC13hh_v_00000002Ev = comdat any

$_ZN2CC13hh_v_00000003Ev = comdat any

$_ZN2CC13hh_v_00000004Ev = comdat any

$_ZN2CC13hh_v_00000005Ev = comdat any

$_ZN2AA13kk_v_00000000Ev = comdat any

$_ZN2AA13kk_v_00000001Ev = comdat any

$_ZN2AA13kk_v_00000002Ev = comdat any

$_ZN2AA13kk_v_00000003Ev = comdat any

$_ZN2AA13kk_v_00000004Ev = comdat any

$_ZN2AA13kk_v_00000005Ev = comdat any

$_ZN2AA13kk_v_00000006Ev = comdat any

$_ZN2AA13kk_v_00000007Ev = comdat any

$_ZN2AA13kk_v_00000008Ev = comdat any

$_ZN2AA13kk_v_00000009Ev = comdat any

$_ZN2AA13kk_v_00000010Ev = comdat any

$_ZN2AA13kk_v_00000011Ev = comdat any

$_ZN2AA13kk_v_00000012Ev = comdat any

$_ZN2AA13kk_v_00000013Ev = comdat any

$_ZN2AA13kk_v_00000014Ev = comdat any

$_ZN2AA13kk_v_00000015Ev = comdat any

$_ZN2AA13kk_v_00000016Ev = comdat any

$_ZN2AA13kk_v_00000017Ev = comdat any

$_ZN2AA13kk_v_00000018Ev = comdat any

$_ZN2AA13kk_v_00000019Ev = comdat any

$_ZN2AA13kk_v_00000020Ev = comdat any

$_ZN2AA13kk_v_00000021Ev = comdat any

$_ZN2AA13kk_v_00000022Ev = comdat any

$_ZN2AA13kk_v_00000023Ev = comdat any

$_ZN2AA13kk_v_00000024Ev = comdat any

$_ZN2AA13kk_v_00000025Ev = comdat any

$_ZN2BB13gg_v_00000000Ev = comdat any

$_ZN2BB13gg_v_00000001Ev = comdat any

$_ZN2BB13gg_v_00000002Ev = comdat any

$_ZTV2DD = comdat any

$_ZTT2DD = comdat any

$_ZTC2DD0_2BB = comdat any

$_ZTS2BB = comdat any

$_ZTS2AA = comdat any

$_ZTI2AA = comdat any

$_ZTI2BB = comdat any

$_ZTC2DD16_2CC = comdat any

$_ZTS2CC = comdat any

$_ZTI2CC = comdat any

$_ZTS2DD = comdat any

$_ZTI2DD = comdat any

$_ZTV2AA = comdat any

@_ZTV2DD = linkonce_odr dso_local unnamed_addr constant { [95 x i8*], [33 x i8*], [62 x i8*] } { [95 x i8*] [i8* inttoptr (i64 40 to i8*), i8* null, i8* bitcast ({ i8*, i8*, i32, i32, i8*, i64, i8*, i64 }* @_ZTI2DD to i8*), i8* bitcast (void (%class.DD*)* @_ZN2DD13gg_v_00000000Ev to i8*), i8* bitcast (void (%class.DD*)* @_ZN2DD13gg_v_00000001Ev to i8*), i8* bitcast (void (%class.DD*)* @_ZN2DD13gg_v_00000002Ev to i8*), i8* bitcast (void (%class.BB*)* @_ZN2BB13gg_v_00000003Ev to i8*), i8* bitcast (void (%class.BB*)* @_ZN2BB13gg_v_00000004Ev to i8*), i8* bitcast (void (%class.BB*)* @_ZN2BB13gg_v_00000005Ev to i8*), i8* bitcast (void (%class.BB*)* @_ZN2BB13gg_v_00000006Ev to i8*), i8* bitcast (void (%class.BB*)* @_ZN2BB13gg_v_00000007Ev to i8*), i8* bitcast (void (%class.BB*)* @_ZN2BB13gg_v_00000008Ev to i8*), i8* bitcast (void (%class.BB*)* @_ZN2BB13gg_v_00000009Ev to i8*), i8* bitcast (void (%class.BB*)* @_ZN2BB13gg_v_00000010Ev to i8*), i8* bitcast (void (%class.BB*)* @_ZN2BB13gg_v_00000011Ev to i8*), i8* bitcast (void (%class.BB*)* @_ZN2BB13gg_v_00000012Ev to i8*), i8* bitcast (void (%class.BB*)* @_ZN2BB13gg_v_00000013Ev to i8*), i8* bitcast (void (%class.BB*)* @_ZN2BB13gg_v_00000014Ev to i8*), i8* bitcast (void (%class.BB*)* @_ZN2BB13gg_v_00000015Ev to i8*), i8* bitcast (void (%class.BB*)* @_ZN2BB13gg_v_00000016Ev to i8*), i8* bitcast (void (%class.BB*)* @_ZN2BB13gg_v_00000017Ev to i8*), i8* bitcast (void (%class.BB*)* @_ZN2BB13gg_v_00000018Ev to i8*), i8* bitcast (void (%class.BB*)* @_ZN2BB13gg_v_00000019Ev to i8*), i8* bitcast (void (%class.BB*)* @_ZN2BB13gg_v_00000020Ev to i8*), i8* bitcast (void (%class.BB*)* @_ZN2BB13gg_v_00000021Ev to i8*), i8* bitcast (void (%class.BB*)* @_ZN2BB13gg_v_00000022Ev to i8*), i8* bitcast (void (%class.BB*)* @_ZN2BB13gg_v_00000023Ev to i8*), i8* bitcast (void (%class.BB*)* @_ZN2BB13gg_v_00000024Ev to i8*), i8* bitcast (void (%class.BB*)* @_ZN2BB13gg_v_00000025Ev to i8*), i8* bitcast (void (%class.BB*)* @_ZN2BB13gg_v_00000026Ev to i8*), i8* bitcast (void (%class.BB*)* @_ZN2BB13gg_v_00000027Ev to i8*), i8* bitcast (void (%class.BB*)* @_ZN2BB13gg_v_00000028Ev to i8*), i8* bitcast (void (%class.BB*)* @_ZN2BB13gg_v_00000029Ev to i8*), i8* bitcast (void (%class.DD*)* @_ZN2DD13kk_v_00000000Ev to i8*), i8* bitcast (void (%class.DD*)* @_ZN2DD13kk_v_00000001Ev to i8*), i8* bitcast (void (%class.DD*)* @_ZN2DD13kk_v_00000002Ev to i8*), i8* bitcast (void (%class.DD*)* @_ZN2DD13kk_v_00000003Ev to i8*), i8* bitcast (void (%class.DD*)* @_ZN2DD13kk_v_00000004Ev to i8*), i8* bitcast (void (%class.DD*)* @_ZN2DD13kk_v_00000005Ev to i8*), i8* bitcast (void (%class.DD*)* @_ZN2DD13kk_v_00000006Ev to i8*), i8* bitcast (void (%class.DD*)* @_ZN2DD13kk_v_00000007Ev to i8*), i8* bitcast (void (%class.DD*)* @_ZN2DD13kk_v_00000008Ev to i8*), i8* bitcast (void (%class.DD*)* @_ZN2DD13kk_v_00000009Ev to i8*), i8* bitcast (void (%class.DD*)* @_ZN2DD13kk_v_00000010Ev to i8*), i8* bitcast (void (%class.DD*)* @_ZN2DD13kk_v_00000011Ev to i8*), i8* bitcast (void (%class.DD*)* @_ZN2DD13kk_v_00000012Ev to i8*), i8* bitcast (void (%class.DD*)* @_ZN2DD13kk_v_00000013Ev to i8*), i8* bitcast (void (%class.DD*)* @_ZN2DD13kk_v_00000014Ev to i8*), i8* bitcast (void (%class.DD*)* @_ZN2DD13kk_v_00000015Ev to i8*), i8* bitcast (void (%class.DD*)* @_ZN2DD13kk_v_00000016Ev to i8*), i8* bitcast (void (%class.DD*)* @_ZN2DD13kk_v_00000017Ev to i8*), i8* bitcast (void (%class.DD*)* @_ZN2DD13kk_v_00000018Ev to i8*), i8* bitcast (void (%class.DD*)* @_ZN2DD13kk_v_00000019Ev to i8*), i8* bitcast (void (%class.DD*)* @_ZN2DD13kk_v_00000020Ev to i8*), i8* bitcast (void (%class.DD*)* @_ZN2DD13kk_v_00000021Ev to i8*), i8* bitcast (void (%class.DD*)* @_ZN2DD13kk_v_00000022Ev to i8*), i8* bitcast (void (%class.DD*)* @_ZN2DD13kk_v_00000023Ev to i8*), i8* bitcast (void (%class.DD*)* @_ZN2DD13kk_v_00000024Ev to i8*), i8* bitcast (void (%class.DD*)* @_ZN2DD13kk_v_00000025Ev to i8*), i8* bitcast (void (%class.DD*)* @_ZN2DD13hh_v_00000000Ev to i8*), i8* bitcast (void (%class.DD*)* @_ZN2DD13hh_v_00000001Ev to i8*), i8* bitcast (void (%class.DD*)* @_ZN2DD13hh_v_00000002Ev to i8*), i8* bitcast (void (%class.DD*)* @_ZN2DD13hh_v_00000003Ev to i8*), i8* bitcast (void (%class.DD*)* @_ZN2DD13hh_v_00000004Ev to i8*), i8* bitcast (void (%class.DD*)* @_ZN2DD13hh_v_00000005Ev to i8*), i8* bitcast (void (%class.DD*)* @_ZN2DD13ff_v_00000000Ev to i8*), i8* bitcast (void (%class.DD*)* @_ZN2DD13ff_v_00000001Ev to i8*), i8* bitcast (void (%class.DD*)* @_ZN2DD13ff_v_00000002Ev to i8*), i8* bitcast (void (%class.DD*)* @_ZN2DD13ff_v_00000003Ev to i8*), i8* bitcast (void (%class.DD*)* @_ZN2DD13ff_v_00000004Ev to i8*), i8* bitcast (void (%class.DD*)* @_ZN2DD13ff_v_00000005Ev to i8*), i8* bitcast (void (%class.DD*)* @_ZN2DD13ff_v_00000006Ev to i8*), i8* bitcast (void (%class.DD*)* @_ZN2DD13ff_v_00000007Ev to i8*), i8* bitcast (void (%class.DD*)* @_ZN2DD13ff_v_00000008Ev to i8*), i8* bitcast (void (%class.DD*)* @_ZN2DD13ff_v_00000009Ev to i8*), i8* bitcast (void (%class.DD*)* @_ZN2DD13ff_v_00000010Ev to i8*), i8* bitcast (void (%class.DD*)* @_ZN2DD13ff_v_00000011Ev to i8*), i8* bitcast (void (%class.DD*)* @_ZN2DD13ff_v_00000012Ev to i8*), i8* bitcast (void (%class.DD*)* @_ZN2DD13ff_v_00000013Ev to i8*), i8* bitcast (void (%class.DD*)* @_ZN2DD13ff_v_00000014Ev to i8*), i8* bitcast (void (%class.DD*)* @_ZN2DD13ff_v_00000015Ev to i8*), i8* bitcast (void (%class.DD*)* @_ZN2DD13ff_v_00000016Ev to i8*), i8* bitcast (void (%class.DD*)* @_ZN2DD13ff_v_00000017Ev to i8*), i8* bitcast (void (%class.DD*)* @_ZN2DD13ff_v_00000018Ev to i8*), i8* bitcast (void (%class.DD*)* @_ZN2DD13ff_v_00000019Ev to i8*), i8* bitcast (void (%class.DD*)* @_ZN2DD13ff_v_00000020Ev to i8*), i8* bitcast (void (%class.DD*)* @_ZN2DD13ff_v_00000021Ev to i8*), i8* bitcast (void (%class.DD*)* @_ZN2DD13ff_v_00000022Ev to i8*), i8* bitcast (void (%class.DD*)* @_ZN2DD13ff_v_00000023Ev to i8*), i8* bitcast (void (%class.DD*)* @_ZN2DD13ff_v_00000024Ev to i8*), i8* bitcast (void (%class.DD*)* @_ZN2DD13ff_v_00000025Ev to i8*), i8* bitcast (void (%class.DD*)* @_ZN2DD13ff_v_00000026Ev to i8*), i8* bitcast (void (%class.DD*)* @_ZN2DD13ff_v_00000027Ev to i8*), i8* bitcast (void (%class.DD*)* @_ZN2DD13ff_v_00000028Ev to i8*), i8* bitcast (void (%class.DD*)* @_ZN2DD13ff_v_00000029Ev to i8*)], [33 x i8*] [i8* inttoptr (i64 24 to i8*), i8* inttoptr (i64 -16 to i8*), i8* bitcast ({ i8*, i8*, i32, i32, i8*, i64, i8*, i64 }* @_ZTI2DD to i8*), i8* bitcast (void (%class.DD*)* @_ZThn16_N2DD13hh_v_00000000Ev to i8*), i8* bitcast (void (%class.DD*)* @_ZThn16_N2DD13hh_v_00000001Ev to i8*), i8* bitcast (void (%class.DD*)* @_ZThn16_N2DD13hh_v_00000002Ev to i8*), i8* bitcast (void (%class.DD*)* @_ZThn16_N2DD13hh_v_00000003Ev to i8*), i8* bitcast (void (%class.DD*)* @_ZThn16_N2DD13hh_v_00000004Ev to i8*), i8* bitcast (void (%class.DD*)* @_ZThn16_N2DD13hh_v_00000005Ev to i8*), i8* bitcast (void (%class.CC*)* @_ZN2CC13hh_v_00000006Ev to i8*), i8* bitcast (void (%class.CC*)* @_ZN2CC13hh_v_00000007Ev to i8*), i8* bitcast (void (%class.CC*)* @_ZN2CC13hh_v_00000008Ev to i8*), i8* bitcast (void (%class.CC*)* @_ZN2CC13hh_v_00000009Ev to i8*), i8* bitcast (void (%class.CC*)* @_ZN2CC13hh_v_00000010Ev to i8*), i8* bitcast (void (%class.CC*)* @_ZN2CC13hh_v_00000011Ev to i8*), i8* bitcast (void (%class.CC*)* @_ZN2CC13hh_v_00000012Ev to i8*), i8* bitcast (void (%class.CC*)* @_ZN2CC13hh_v_00000013Ev to i8*), i8* bitcast (void (%class.CC*)* @_ZN2CC13hh_v_00000014Ev to i8*), i8* bitcast (void (%class.CC*)* @_ZN2CC13hh_v_00000015Ev to i8*), i8* bitcast (void (%class.CC*)* @_ZN2CC13hh_v_00000016Ev to i8*), i8* bitcast (void (%class.CC*)* @_ZN2CC13hh_v_00000017Ev to i8*), i8* bitcast (void (%class.CC*)* @_ZN2CC13hh_v_00000018Ev to i8*), i8* bitcast (void (%class.CC*)* @_ZN2CC13hh_v_00000019Ev to i8*), i8* bitcast (void (%class.CC*)* @_ZN2CC13hh_v_00000020Ev to i8*), i8* bitcast (void (%class.CC*)* @_ZN2CC13hh_v_00000021Ev to i8*), i8* bitcast (void (%class.CC*)* @_ZN2CC13hh_v_00000022Ev to i8*), i8* bitcast (void (%class.CC*)* @_ZN2CC13hh_v_00000023Ev to i8*), i8* bitcast (void (%class.CC*)* @_ZN2CC13hh_v_00000024Ev to i8*), i8* bitcast (void (%class.CC*)* @_ZN2CC13hh_v_00000025Ev to i8*), i8* bitcast (void (%class.CC*)* @_ZN2CC13hh_v_00000026Ev to i8*), i8* bitcast (void (%class.CC*)* @_ZN2CC13hh_v_00000027Ev to i8*), i8* bitcast (void (%class.CC*)* @_ZN2CC13hh_v_00000028Ev to i8*), i8* bitcast (void (%class.CC*)* @_ZN2CC13hh_v_00000029Ev to i8*)], [62 x i8*] [i8* null, i8* null, i8* null, i8* null, i8* inttoptr (i64 -40 to i8*), i8* inttoptr (i64 -40 to i8*), i8* inttoptr (i64 -40 to i8*), i8* inttoptr (i64 -40 to i8*), i8* inttoptr (i64 -40 to i8*), i8* inttoptr (i64 -40 to i8*), i8* inttoptr (i64 -40 to i8*), i8* inttoptr (i64 -40 to i8*), i8* inttoptr (i64 -40 to i8*), i8* inttoptr (i64 -40 to i8*), i8* inttoptr (i64 -40 to i8*), i8* inttoptr (i64 -40 to i8*), i8* inttoptr (i64 -40 to i8*), i8* inttoptr (i64 -40 to i8*), i8* inttoptr (i64 -40 to i8*), i8* inttoptr (i64 -40 to i8*), i8* inttoptr (i64 -40 to i8*), i8* inttoptr (i64 -40 to i8*), i8* inttoptr (i64 -40 to i8*), i8* inttoptr (i64 -40 to i8*), i8* inttoptr (i64 -40 to i8*), i8* inttoptr (i64 -40 to i8*), i8* inttoptr (i64 -40 to i8*), i8* inttoptr (i64 -40 to i8*), i8* inttoptr (i64 -40 to i8*), i8* inttoptr (i64 -40 to i8*), i8* inttoptr (i64 -40 to i8*), i8* bitcast ({ i8*, i8*, i32, i32, i8*, i64, i8*, i64 }* @_ZTI2DD to i8*), i8* bitcast (void (%class.DD*)* @_ZTv0_n24_N2DD13kk_v_00000000Ev to i8*), i8* bitcast (void (%class.DD*)* @_ZTv0_n32_N2DD13kk_v_00000001Ev to i8*), i8* bitcast (void (%class.DD*)* @_ZTv0_n40_N2DD13kk_v_00000002Ev to i8*), i8* bitcast (void (%class.DD*)* @_ZTv0_n48_N2DD13kk_v_00000003Ev to i8*), i8* bitcast (void (%class.DD*)* @_ZTv0_n56_N2DD13kk_v_00000004Ev to i8*), i8* bitcast (void (%class.DD*)* @_ZTv0_n64_N2DD13kk_v_00000005Ev to i8*), i8* bitcast (void (%class.DD*)* @_ZTv0_n72_N2DD13kk_v_00000006Ev to i8*), i8* bitcast (void (%class.DD*)* @_ZTv0_n80_N2DD13kk_v_00000007Ev to i8*), i8* bitcast (void (%class.DD*)* @_ZTv0_n88_N2DD13kk_v_00000008Ev to i8*), i8* bitcast (void (%class.DD*)* @_ZTv0_n96_N2DD13kk_v_00000009Ev to i8*), i8* bitcast (void (%class.DD*)* @_ZTv0_n104_N2DD13kk_v_00000010Ev to i8*), i8* bitcast (void (%class.DD*)* @_ZTv0_n112_N2DD13kk_v_00000011Ev to i8*), i8* bitcast (void (%class.DD*)* @_ZTv0_n120_N2DD13kk_v_00000012Ev to i8*), i8* bitcast (void (%class.DD*)* @_ZTv0_n128_N2DD13kk_v_00000013Ev to i8*), i8* bitcast (void (%class.DD*)* @_ZTv0_n136_N2DD13kk_v_00000014Ev to i8*), i8* bitcast (void (%class.DD*)* @_ZTv0_n144_N2DD13kk_v_00000015Ev to i8*), i8* bitcast (void (%class.DD*)* @_ZTv0_n152_N2DD13kk_v_00000016Ev to i8*), i8* bitcast (void (%class.DD*)* @_ZTv0_n160_N2DD13kk_v_00000017Ev to i8*), i8* bitcast (void (%class.DD*)* @_ZTv0_n168_N2DD13kk_v_00000018Ev to i8*), i8* bitcast (void (%class.DD*)* @_ZTv0_n176_N2DD13kk_v_00000019Ev to i8*), i8* bitcast (void (%class.DD*)* @_ZTv0_n184_N2DD13kk_v_00000020Ev to i8*), i8* bitcast (void (%class.DD*)* @_ZTv0_n192_N2DD13kk_v_00000021Ev to i8*), i8* bitcast (void (%class.DD*)* @_ZTv0_n200_N2DD13kk_v_00000022Ev to i8*), i8* bitcast (void (%class.DD*)* @_ZTv0_n208_N2DD13kk_v_00000023Ev to i8*), i8* bitcast (void (%class.DD*)* @_ZTv0_n216_N2DD13kk_v_00000024Ev to i8*), i8* bitcast (void (%class.DD*)* @_ZTv0_n224_N2DD13kk_v_00000025Ev to i8*), i8* bitcast (void (%class.AA*)* @_ZN2AA13kk_v_00000026Ev to i8*), i8* bitcast (void (%class.AA*)* @_ZN2AA13kk_v_00000027Ev to i8*), i8* bitcast (void (%class.AA*)* @_ZN2AA13kk_v_00000028Ev to i8*), i8* bitcast (void (%class.AA*)* @_ZN2AA13kk_v_00000029Ev to i8*)] }, comdat, align 8
@_ZTT2DD = linkonce_odr dso_local unnamed_addr constant [7 x i8*] [i8* bitcast (i8** getelementptr inbounds ({ [95 x i8*], [33 x i8*], [62 x i8*] }, { [95 x i8*], [33 x i8*], [62 x i8*] }* @_ZTV2DD, i32 0, inrange i32 0, i32 3) to i8*), i8* bitcast (i8** getelementptr inbounds ({ [33 x i8*], [62 x i8*] }, { [33 x i8*], [62 x i8*] }* @_ZTC2DD0_2BB, i32 0, inrange i32 0, i32 3) to i8*), i8* bitcast (i8** getelementptr inbounds ({ [33 x i8*], [62 x i8*] }, { [33 x i8*], [62 x i8*] }* @_ZTC2DD0_2BB, i32 0, inrange i32 1, i32 32) to i8*), i8* bitcast (i8** getelementptr inbounds ({ [33 x i8*], [62 x i8*] }, { [33 x i8*], [62 x i8*] }* @_ZTC2DD16_2CC, i32 0, inrange i32 0, i32 3) to i8*), i8* bitcast (i8** getelementptr inbounds ({ [33 x i8*], [62 x i8*] }, { [33 x i8*], [62 x i8*] }* @_ZTC2DD16_2CC, i32 0, inrange i32 1, i32 32) to i8*), i8* bitcast (i8** getelementptr inbounds ({ [95 x i8*], [33 x i8*], [62 x i8*] }, { [95 x i8*], [33 x i8*], [62 x i8*] }* @_ZTV2DD, i32 0, inrange i32 2, i32 32) to i8*), i8* bitcast (i8** getelementptr inbounds ({ [95 x i8*], [33 x i8*], [62 x i8*] }, { [95 x i8*], [33 x i8*], [62 x i8*] }* @_ZTV2DD, i32 0, inrange i32 1, i32 3) to i8*)], comdat, align 8
@_ZTC2DD0_2BB = linkonce_odr dso_local unnamed_addr constant { [33 x i8*], [62 x i8*] } { [33 x i8*] [i8* inttoptr (i64 40 to i8*), i8* null, i8* bitcast ({ i8*, i8*, i32, i32, i8*, i64 }* @_ZTI2BB to i8*), i8* bitcast (void (%class.BB*)* @_ZN2BB13gg_v_00000000Ev to i8*), i8* bitcast (void (%class.BB*)* @_ZN2BB13gg_v_00000001Ev to i8*), i8* bitcast (void (%class.BB*)* @_ZN2BB13gg_v_00000002Ev to i8*), i8* bitcast (void (%class.BB*)* @_ZN2BB13gg_v_00000003Ev to i8*), i8* bitcast (void (%class.BB*)* @_ZN2BB13gg_v_00000004Ev to i8*), i8* bitcast (void (%class.BB*)* @_ZN2BB13gg_v_00000005Ev to i8*), i8* bitcast (void (%class.BB*)* @_ZN2BB13gg_v_00000006Ev to i8*), i8* bitcast (void (%class.BB*)* @_ZN2BB13gg_v_00000007Ev to i8*), i8* bitcast (void (%class.BB*)* @_ZN2BB13gg_v_00000008Ev to i8*), i8* bitcast (void (%class.BB*)* @_ZN2BB13gg_v_00000009Ev to i8*), i8* bitcast (void (%class.BB*)* @_ZN2BB13gg_v_00000010Ev to i8*), i8* bitcast (void (%class.BB*)* @_ZN2BB13gg_v_00000011Ev to i8*), i8* bitcast (void (%class.BB*)* @_ZN2BB13gg_v_00000012Ev to i8*), i8* bitcast (void (%class.BB*)* @_ZN2BB13gg_v_00000013Ev to i8*), i8* bitcast (void (%class.BB*)* @_ZN2BB13gg_v_00000014Ev to i8*), i8* bitcast (void (%class.BB*)* @_ZN2BB13gg_v_00000015Ev to i8*), i8* bitcast (void (%class.BB*)* @_ZN2BB13gg_v_00000016Ev to i8*), i8* bitcast (void (%class.BB*)* @_ZN2BB13gg_v_00000017Ev to i8*), i8* bitcast (void (%class.BB*)* @_ZN2BB13gg_v_00000018Ev to i8*), i8* bitcast (void (%class.BB*)* @_ZN2BB13gg_v_00000019Ev to i8*), i8* bitcast (void (%class.BB*)* @_ZN2BB13gg_v_00000020Ev to i8*), i8* bitcast (void (%class.BB*)* @_ZN2BB13gg_v_00000021Ev to i8*), i8* bitcast (void (%class.BB*)* @_ZN2BB13gg_v_00000022Ev to i8*), i8* bitcast (void (%class.BB*)* @_ZN2BB13gg_v_00000023Ev to i8*), i8* bitcast (void (%class.BB*)* @_ZN2BB13gg_v_00000024Ev to i8*), i8* bitcast (void (%class.BB*)* @_ZN2BB13gg_v_00000025Ev to i8*), i8* bitcast (void (%class.BB*)* @_ZN2BB13gg_v_00000026Ev to i8*), i8* bitcast (void (%class.BB*)* @_ZN2BB13gg_v_00000027Ev to i8*), i8* bitcast (void (%class.BB*)* @_ZN2BB13gg_v_00000028Ev to i8*), i8* bitcast (void (%class.BB*)* @_ZN2BB13gg_v_00000029Ev to i8*)], [62 x i8*] [i8* null, i8* null, i8* null, i8* null, i8* null, i8* null, i8* null, i8* null, i8* null, i8* null, i8* null, i8* null, i8* null, i8* null, i8* null, i8* null, i8* null, i8* null, i8* null, i8* null, i8* null, i8* null, i8* null, i8* null, i8* null, i8* null, i8* null, i8* null, i8* null, i8* null, i8* inttoptr (i64 -40 to i8*), i8* bitcast ({ i8*, i8*, i32, i32, i8*, i64 }* @_ZTI2BB to i8*), i8* bitcast (void (%class.AA*)* @_ZN2AA13kk_v_00000000Ev to i8*), i8* bitcast (void (%class.AA*)* @_ZN2AA13kk_v_00000001Ev to i8*), i8* bitcast (void (%class.AA*)* @_ZN2AA13kk_v_00000002Ev to i8*), i8* bitcast (void (%class.AA*)* @_ZN2AA13kk_v_00000003Ev to i8*), i8* bitcast (void (%class.AA*)* @_ZN2AA13kk_v_00000004Ev to i8*), i8* bitcast (void (%class.AA*)* @_ZN2AA13kk_v_00000005Ev to i8*), i8* bitcast (void (%class.AA*)* @_ZN2AA13kk_v_00000006Ev to i8*), i8* bitcast (void (%class.AA*)* @_ZN2AA13kk_v_00000007Ev to i8*), i8* bitcast (void (%class.AA*)* @_ZN2AA13kk_v_00000008Ev to i8*), i8* bitcast (void (%class.AA*)* @_ZN2AA13kk_v_00000009Ev to i8*), i8* bitcast (void (%class.AA*)* @_ZN2AA13kk_v_00000010Ev to i8*), i8* bitcast (void (%class.AA*)* @_ZN2AA13kk_v_00000011Ev to i8*), i8* bitcast (void (%class.AA*)* @_ZN2AA13kk_v_00000012Ev to i8*), i8* bitcast (void (%class.AA*)* @_ZN2AA13kk_v_00000013Ev to i8*), i8* bitcast (void (%class.AA*)* @_ZN2AA13kk_v_00000014Ev to i8*), i8* bitcast (void (%class.AA*)* @_ZN2AA13kk_v_00000015Ev to i8*), i8* bitcast (void (%class.AA*)* @_ZN2AA13kk_v_00000016Ev to i8*), i8* bitcast (void (%class.AA*)* @_ZN2AA13kk_v_00000017Ev to i8*), i8* bitcast (void (%class.AA*)* @_ZN2AA13kk_v_00000018Ev to i8*), i8* bitcast (void (%class.AA*)* @_ZN2AA13kk_v_00000019Ev to i8*), i8* bitcast (void (%class.AA*)* @_ZN2AA13kk_v_00000020Ev to i8*), i8* bitcast (void (%class.AA*)* @_ZN2AA13kk_v_00000021Ev to i8*), i8* bitcast (void (%class.AA*)* @_ZN2AA13kk_v_00000022Ev to i8*), i8* bitcast (void (%class.AA*)* @_ZN2AA13kk_v_00000023Ev to i8*), i8* bitcast (void (%class.AA*)* @_ZN2AA13kk_v_00000024Ev to i8*), i8* bitcast (void (%class.AA*)* @_ZN2AA13kk_v_00000025Ev to i8*), i8* bitcast (void (%class.AA*)* @_ZN2AA13kk_v_00000026Ev to i8*), i8* bitcast (void (%class.AA*)* @_ZN2AA13kk_v_00000027Ev to i8*), i8* bitcast (void (%class.AA*)* @_ZN2AA13kk_v_00000028Ev to i8*), i8* bitcast (void (%class.AA*)* @_ZN2AA13kk_v_00000029Ev to i8*)] }, comdat, align 8
@_ZTVN10__cxxabiv121__vmi_class_type_infoE = external dso_local global i8*
@_ZTS2BB = linkonce_odr dso_local constant [4 x i8] c"2BB\00", comdat, align 1
@_ZTVN10__cxxabiv117__class_type_infoE = external dso_local global i8*
@_ZTS2AA = linkonce_odr dso_local constant [4 x i8] c"2AA\00", comdat, align 1
@_ZTI2AA = linkonce_odr dso_local constant { i8*, i8* } { i8* bitcast (i8** getelementptr inbounds (i8*, i8** @_ZTVN10__cxxabiv117__class_type_infoE, i64 2) to i8*), i8* getelementptr inbounds ([4 x i8], [4 x i8]* @_ZTS2AA, i32 0, i32 0) }, comdat, align 8
@_ZTI2BB = linkonce_odr dso_local constant { i8*, i8*, i32, i32, i8*, i64 } { i8* bitcast (i8** getelementptr inbounds (i8*, i8** @_ZTVN10__cxxabiv121__vmi_class_type_infoE, i64 2) to i8*), i8* getelementptr inbounds ([4 x i8], [4 x i8]* @_ZTS2BB, i32 0, i32 0), i32 0, i32 1, i8* bitcast ({ i8*, i8* }* @_ZTI2AA to i8*), i64 -6141 }, comdat, align 8
@_ZTC2DD16_2CC = linkonce_odr dso_local unnamed_addr constant { [33 x i8*], [62 x i8*] } { [33 x i8*] [i8* inttoptr (i64 24 to i8*), i8* null, i8* bitcast ({ i8*, i8*, i32, i32, i8*, i64 }* @_ZTI2CC to i8*), i8* bitcast (void (%class.CC*)* @_ZN2CC13hh_v_00000000Ev to i8*), i8* bitcast (void (%class.CC*)* @_ZN2CC13hh_v_00000001Ev to i8*), i8* bitcast (void (%class.CC*)* @_ZN2CC13hh_v_00000002Ev to i8*), i8* bitcast (void (%class.CC*)* @_ZN2CC13hh_v_00000003Ev to i8*), i8* bitcast (void (%class.CC*)* @_ZN2CC13hh_v_00000004Ev to i8*), i8* bitcast (void (%class.CC*)* @_ZN2CC13hh_v_00000005Ev to i8*), i8* bitcast (void (%class.CC*)* @_ZN2CC13hh_v_00000006Ev to i8*), i8* bitcast (void (%class.CC*)* @_ZN2CC13hh_v_00000007Ev to i8*), i8* bitcast (void (%class.CC*)* @_ZN2CC13hh_v_00000008Ev to i8*), i8* bitcast (void (%class.CC*)* @_ZN2CC13hh_v_00000009Ev to i8*), i8* bitcast (void (%class.CC*)* @_ZN2CC13hh_v_00000010Ev to i8*), i8* bitcast (void (%class.CC*)* @_ZN2CC13hh_v_00000011Ev to i8*), i8* bitcast (void (%class.CC*)* @_ZN2CC13hh_v_00000012Ev to i8*), i8* bitcast (void (%class.CC*)* @_ZN2CC13hh_v_00000013Ev to i8*), i8* bitcast (void (%class.CC*)* @_ZN2CC13hh_v_00000014Ev to i8*), i8* bitcast (void (%class.CC*)* @_ZN2CC13hh_v_00000015Ev to i8*), i8* bitcast (void (%class.CC*)* @_ZN2CC13hh_v_00000016Ev to i8*), i8* bitcast (void (%class.CC*)* @_ZN2CC13hh_v_00000017Ev to i8*), i8* bitcast (void (%class.CC*)* @_ZN2CC13hh_v_00000018Ev to i8*), i8* bitcast (void (%class.CC*)* @_ZN2CC13hh_v_00000019Ev to i8*), i8* bitcast (void (%class.CC*)* @_ZN2CC13hh_v_00000020Ev to i8*), i8* bitcast (void (%class.CC*)* @_ZN2CC13hh_v_00000021Ev to i8*), i8* bitcast (void (%class.CC*)* @_ZN2CC13hh_v_00000022Ev to i8*), i8* bitcast (void (%class.CC*)* @_ZN2CC13hh_v_00000023Ev to i8*), i8* bitcast (void (%class.CC*)* @_ZN2CC13hh_v_00000024Ev to i8*), i8* bitcast (void (%class.CC*)* @_ZN2CC13hh_v_00000025Ev to i8*), i8* bitcast (void (%class.CC*)* @_ZN2CC13hh_v_00000026Ev to i8*), i8* bitcast (void (%class.CC*)* @_ZN2CC13hh_v_00000027Ev to i8*), i8* bitcast (void (%class.CC*)* @_ZN2CC13hh_v_00000028Ev to i8*), i8* bitcast (void (%class.CC*)* @_ZN2CC13hh_v_00000029Ev to i8*)], [62 x i8*] [i8* null, i8* null, i8* null, i8* null, i8* null, i8* null, i8* null, i8* null, i8* null, i8* null, i8* null, i8* null, i8* null, i8* null, i8* null, i8* null, i8* null, i8* null, i8* null, i8* null, i8* null, i8* null, i8* null, i8* null, i8* null, i8* null, i8* null, i8* null, i8* null, i8* null, i8* inttoptr (i64 -24 to i8*), i8* bitcast ({ i8*, i8*, i32, i32, i8*, i64 }* @_ZTI2CC to i8*), i8* bitcast (void (%class.AA*)* @_ZN2AA13kk_v_00000000Ev to i8*), i8* bitcast (void (%class.AA*)* @_ZN2AA13kk_v_00000001Ev to i8*), i8* bitcast (void (%class.AA*)* @_ZN2AA13kk_v_00000002Ev to i8*), i8* bitcast (void (%class.AA*)* @_ZN2AA13kk_v_00000003Ev to i8*), i8* bitcast (void (%class.AA*)* @_ZN2AA13kk_v_00000004Ev to i8*), i8* bitcast (void (%class.AA*)* @_ZN2AA13kk_v_00000005Ev to i8*), i8* bitcast (void (%class.AA*)* @_ZN2AA13kk_v_00000006Ev to i8*), i8* bitcast (void (%class.AA*)* @_ZN2AA13kk_v_00000007Ev to i8*), i8* bitcast (void (%class.AA*)* @_ZN2AA13kk_v_00000008Ev to i8*), i8* bitcast (void (%class.AA*)* @_ZN2AA13kk_v_00000009Ev to i8*), i8* bitcast (void (%class.AA*)* @_ZN2AA13kk_v_00000010Ev to i8*), i8* bitcast (void (%class.AA*)* @_ZN2AA13kk_v_00000011Ev to i8*), i8* bitcast (void (%class.AA*)* @_ZN2AA13kk_v_00000012Ev to i8*), i8* bitcast (void (%class.AA*)* @_ZN2AA13kk_v_00000013Ev to i8*), i8* bitcast (void (%class.AA*)* @_ZN2AA13kk_v_00000014Ev to i8*), i8* bitcast (void (%class.AA*)* @_ZN2AA13kk_v_00000015Ev to i8*), i8* bitcast (void (%class.AA*)* @_ZN2AA13kk_v_00000016Ev to i8*), i8* bitcast (void (%class.AA*)* @_ZN2AA13kk_v_00000017Ev to i8*), i8* bitcast (void (%class.AA*)* @_ZN2AA13kk_v_00000018Ev to i8*), i8* bitcast (void (%class.AA*)* @_ZN2AA13kk_v_00000019Ev to i8*), i8* bitcast (void (%class.AA*)* @_ZN2AA13kk_v_00000020Ev to i8*), i8* bitcast (void (%class.AA*)* @_ZN2AA13kk_v_00000021Ev to i8*), i8* bitcast (void (%class.AA*)* @_ZN2AA13kk_v_00000022Ev to i8*), i8* bitcast (void (%class.AA*)* @_ZN2AA13kk_v_00000023Ev to i8*), i8* bitcast (void (%class.AA*)* @_ZN2AA13kk_v_00000024Ev to i8*), i8* bitcast (void (%class.AA*)* @_ZN2AA13kk_v_00000025Ev to i8*), i8* bitcast (void (%class.AA*)* @_ZN2AA13kk_v_00000026Ev to i8*), i8* bitcast (void (%class.AA*)* @_ZN2AA13kk_v_00000027Ev to i8*), i8* bitcast (void (%class.AA*)* @_ZN2AA13kk_v_00000028Ev to i8*), i8* bitcast (void (%class.AA*)* @_ZN2AA13kk_v_00000029Ev to i8*)] }, comdat, align 8
@_ZTS2CC = linkonce_odr dso_local constant [4 x i8] c"2CC\00", comdat, align 1
@_ZTI2CC = linkonce_odr dso_local constant { i8*, i8*, i32, i32, i8*, i64 } { i8* bitcast (i8** getelementptr inbounds (i8*, i8** @_ZTVN10__cxxabiv121__vmi_class_type_infoE, i64 2) to i8*), i8* getelementptr inbounds ([4 x i8], [4 x i8]* @_ZTS2CC, i32 0, i32 0), i32 0, i32 1, i8* bitcast ({ i8*, i8* }* @_ZTI2AA to i8*), i64 -6141 }, comdat, align 8
@_ZTS2DD = linkonce_odr dso_local constant [4 x i8] c"2DD\00", comdat, align 1
@_ZTI2DD = linkonce_odr dso_local constant { i8*, i8*, i32, i32, i8*, i64, i8*, i64 } { i8* bitcast (i8** getelementptr inbounds (i8*, i8** @_ZTVN10__cxxabiv121__vmi_class_type_infoE, i64 2) to i8*), i8* getelementptr inbounds ([4 x i8], [4 x i8]* @_ZTS2DD, i32 0, i32 0), i32 2, i32 2, i8* bitcast ({ i8*, i8*, i32, i32, i8*, i64 }* @_ZTI2BB to i8*), i64 2, i8* bitcast ({ i8*, i8*, i32, i32, i8*, i64 }* @_ZTI2CC to i8*), i64 4098 }, comdat, align 8
@_ZTV2AA = linkonce_odr dso_local unnamed_addr constant { [32 x i8*] } { [32 x i8*] [i8* null, i8* bitcast ({ i8*, i8* }* @_ZTI2AA to i8*), i8* bitcast (void (%class.AA*)* @_ZN2AA13kk_v_00000000Ev to i8*), i8* bitcast (void (%class.AA*)* @_ZN2AA13kk_v_00000001Ev to i8*), i8* bitcast (void (%class.AA*)* @_ZN2AA13kk_v_00000002Ev to i8*), i8* bitcast (void (%class.AA*)* @_ZN2AA13kk_v_00000003Ev to i8*), i8* bitcast (void (%class.AA*)* @_ZN2AA13kk_v_00000004Ev to i8*), i8* bitcast (void (%class.AA*)* @_ZN2AA13kk_v_00000005Ev to i8*), i8* bitcast (void (%class.AA*)* @_ZN2AA13kk_v_00000006Ev to i8*), i8* bitcast (void (%class.AA*)* @_ZN2AA13kk_v_00000007Ev to i8*), i8* bitcast (void (%class.AA*)* @_ZN2AA13kk_v_00000008Ev to i8*), i8* bitcast (void (%class.AA*)* @_ZN2AA13kk_v_00000009Ev to i8*), i8* bitcast (void (%class.AA*)* @_ZN2AA13kk_v_00000010Ev to i8*), i8* bitcast (void (%class.AA*)* @_ZN2AA13kk_v_00000011Ev to i8*), i8* bitcast (void (%class.AA*)* @_ZN2AA13kk_v_00000012Ev to i8*), i8* bitcast (void (%class.AA*)* @_ZN2AA13kk_v_00000013Ev to i8*), i8* bitcast (void (%class.AA*)* @_ZN2AA13kk_v_00000014Ev to i8*), i8* bitcast (void (%class.AA*)* @_ZN2AA13kk_v_00000015Ev to i8*), i8* bitcast (void (%class.AA*)* @_ZN2AA13kk_v_00000016Ev to i8*), i8* bitcast (void (%class.AA*)* @_ZN2AA13kk_v_00000017Ev to i8*), i8* bitcast (void (%class.AA*)* @_ZN2AA13kk_v_00000018Ev to i8*), i8* bitcast (void (%class.AA*)* @_ZN2AA13kk_v_00000019Ev to i8*), i8* bitcast (void (%class.AA*)* @_ZN2AA13kk_v_00000020Ev to i8*), i8* bitcast (void (%class.AA*)* @_ZN2AA13kk_v_00000021Ev to i8*), i8* bitcast (void (%class.AA*)* @_ZN2AA13kk_v_00000022Ev to i8*), i8* bitcast (void (%class.AA*)* @_ZN2AA13kk_v_00000023Ev to i8*), i8* bitcast (void (%class.AA*)* @_ZN2AA13kk_v_00000024Ev to i8*), i8* bitcast (void (%class.AA*)* @_ZN2AA13kk_v_00000025Ev to i8*), i8* bitcast (void (%class.AA*)* @_ZN2AA13kk_v_00000026Ev to i8*), i8* bitcast (void (%class.AA*)* @_ZN2AA13kk_v_00000027Ev to i8*), i8* bitcast (void (%class.AA*)* @_ZN2AA13kk_v_00000028Ev to i8*), i8* bitcast (void (%class.AA*)* @_ZN2AA13kk_v_00000029Ev to i8*)] }, comdat, align 8

; Function Attrs: mustprogress noinline uwtable
define dso_local void @_Z4testP2DDMS_FvvE(%class.DD* noundef %dptr, i64 %mfptr.coerce0, i64 %mfptr.coerce1) #0 !dbg !328 {
entry:
  %mfptr = alloca { i64, i64 }, align 8
  %0 = getelementptr inbounds { i64, i64 }, { i64, i64 }* %mfptr, i32 0, i32 0
  store i64 %mfptr.coerce0, i64* %0, align 8
  %1 = getelementptr inbounds { i64, i64 }, { i64, i64 }* %mfptr, i32 0, i32 1
  store i64 %mfptr.coerce1, i64* %1, align 8
  %TIPS_gep_00 = getelementptr { i64, i64 }, { i64, i64 }* %mfptr, i32 0, i32 0
  %TIPS_load_00 = load i64, i64* %TIPS_gep_00, align 8
  %TIPS_gep_01 = getelementptr { i64, i64 }, { i64, i64 }* %mfptr, i32 0, i32 1
  %TIPS_load_01 = load i64, i64* %TIPS_gep_01, align 8
  %mfptr1 = load { i64, i64 }, { i64, i64 }* %mfptr, align 8
  call void @llvm.dbg.value(metadata %class.DD* %dptr, metadata !335, metadata !DIExpression()), !dbg !336
  call void @llvm.dbg.value(metadata { i64, i64 } %mfptr1, metadata !337, metadata !DIExpression()), !dbg !336
  %memptr.adj = extractvalue { i64, i64 } %mfptr1, 1, !dbg !338
  %2 = bitcast %class.DD* %dptr to i8*, !dbg !338
  %3 = getelementptr inbounds i8, i8* %2, i64 %TIPS_load_01, !dbg !338
  %this.adjusted = bitcast i8* %3 to %class.DD*, !dbg !338
  %memptr.ptr = extractvalue { i64, i64 } %mfptr1, 0, !dbg !338
  %4 = and i64 %TIPS_load_00, 1, !dbg !338
  %memptr.isvirtual = icmp ne i64 %4, 0, !dbg !338
  br i1 %memptr.isvirtual, label %memptr.virtual, label %memptr.nonvirtual, !dbg !338

memptr.virtual:                                   ; preds = %entry
  %5 = bitcast %class.DD* %this.adjusted to i8**, !dbg !338
  %vtable = load i8*, i8** %5, align 8, !dbg !338
  %6 = sub i64 %TIPS_load_00, 1, !dbg !338
  %7 = getelementptr i8, i8* %vtable, i64 %6, !dbg !338, !nosanitize !334
  %8 = bitcast i8* %7 to void (%class.DD*)**, !dbg !338, !nosanitize !334
  %memptr.virtualfn = load void (%class.DD*)*, void (%class.DD*)** %8, align 8, !dbg !338, !nosanitize !334
  br label %memptr.end, !dbg !338

memptr.nonvirtual:                                ; preds = %entry
  %memptr.nonvirtualfn = inttoptr i64 %TIPS_load_00 to void (%class.DD*)*, !dbg !338
  br label %memptr.end, !dbg !338

memptr.end:                                       ; preds = %memptr.nonvirtual, %memptr.virtual
  %9 = phi void (%class.DD*)* [ %memptr.virtualfn, %memptr.virtual ], [ %memptr.nonvirtualfn, %memptr.nonvirtual ], !dbg !338
  call void %9(%class.DD* noundef nonnull align 8 dereferenceable(40) %this.adjusted) #6, !dbg !338
  ret void, !dbg !339
}

; Function Attrs: nofree nosync nounwind readnone speculatable willreturn
declare void @llvm.dbg.declare(metadata, metadata, metadata) #1

; Function Attrs: mustprogress noinline norecurse uwtable
define dso_local noundef i32 @main() #2 !dbg !340 {
entry:
  %dobj = alloca %class.DD, align 8
  %coerce = alloca { i64, i64 }, align 8
  %coerce1 = alloca { i64, i64 }, align 8
  call void @llvm.dbg.declare(metadata %class.DD* %dobj, metadata !341, metadata !DIExpression()), !dbg !342
  call void @_ZN2DDC1Ev(%class.DD* noundef nonnull align 8 dereferenceable(40) %dobj) #7, !dbg !342
  %0 = ptrtoint void (%class.DD*)* @_ZN2DD14ff_nv_00000000Ev to i64
  %TIPS_gep_00 = getelementptr { i64, i64 }, { i64, i64 }* %coerce, i32 0, i32 0
  %TIPS_gep_01 = getelementptr { i64, i64 }, { i64, i64 }* %coerce, i32 0, i32 1
  store i64 %0, i64* %TIPS_gep_00, align 8
  store i64 0, i64* %TIPS_gep_01, align 8
  store { i64, i64 } { i64 ptrtoint (void (%class.DD*)* @_ZN2DD14ff_nv_00000000Ev to i64), i64 0 }, { i64, i64 }* %coerce, align 8, !dbg !343
  %1 = getelementptr inbounds { i64, i64 }, { i64, i64 }* %coerce, i32 0, i32 0, !dbg !343
  %2 = load i64, i64* %1, align 8, !dbg !343
  %3 = getelementptr inbounds { i64, i64 }, { i64, i64 }* %coerce, i32 0, i32 1, !dbg !343
  %4 = load i64, i64* %3, align 8, !dbg !343
  call void @_Z4testP2DDMS_FvvE(%class.DD* noundef %dobj, i64 %2, i64 %4) #6, !dbg !343
  %TIPS_gep_001 = getelementptr { i64, i64 }, { i64, i64 }* %coerce1, i32 0, i32 0
  %TIPS_gep_012 = getelementptr { i64, i64 }, { i64, i64 }* %coerce1, i32 0, i32 1
  store i64 497, i64* %TIPS_gep_001, align 8
  store i64 0, i64* %TIPS_gep_012, align 8
  store { i64, i64 } { i64 497, i64 0 }, { i64, i64 }* %coerce1, align 8, !dbg !344
  %5 = getelementptr inbounds { i64, i64 }, { i64, i64 }* %coerce1, i32 0, i32 0, !dbg !344
  %6 = load i64, i64* %5, align 8, !dbg !344
  %7 = getelementptr inbounds { i64, i64 }, { i64, i64 }* %coerce1, i32 0, i32 1, !dbg !344
  %8 = load i64, i64* %7, align 8, !dbg !344
  call void @_Z4testP2DDMS_FvvE(%class.DD* noundef %dobj, i64 %6, i64 %8) #6, !dbg !344
  ret i32 0, !dbg !345
}

; Function Attrs: noinline nounwind uwtable
define linkonce_odr dso_local void @_ZN2DDC1Ev(%class.DD* noundef nonnull align 8 dereferenceable(40) %this) unnamed_addr #3 comdat align 2 !dbg !346 {
entry:
  call void @llvm.dbg.value(metadata %class.DD* %this, metadata !348, metadata !DIExpression()), !dbg !349
  %0 = bitcast %class.DD* %this to i8*, !dbg !350
  %1 = getelementptr inbounds i8, i8* %0, i64 40, !dbg !350
  %2 = bitcast i8* %1 to %class.AA*, !dbg !350
  call void @_ZN2AAC2Ev(%class.AA* noundef nonnull align 8 dereferenceable(16) %2) #7, !dbg !350
  %3 = bitcast %class.DD* %this to %class.BB*, !dbg !350
  %4 = getelementptr inbounds [7 x i8*], [7 x i8*]* @_ZTT2DD, i64 0, i64 1
  call void @_ZN2BBC2Ev(%class.BB* noundef nonnull align 8 dereferenceable(16) %3, i8** noundef %4) #7, !dbg !350
  %5 = bitcast %class.DD* %this to i8*, !dbg !350
  %6 = getelementptr inbounds i8, i8* %5, i64 16, !dbg !350
  %7 = bitcast i8* %6 to %class.CC*, !dbg !350
  %8 = getelementptr inbounds [7 x i8*], [7 x i8*]* @_ZTT2DD, i64 0, i64 3
  call void @_ZN2CCC2Ev(%class.CC* noundef nonnull align 8 dereferenceable(16) %7, i8** noundef %8) #7, !dbg !350
  %9 = bitcast %class.DD* %this to i32 (...)***, !dbg !350
  %10 = getelementptr inbounds { [95 x i8*], [33 x i8*], [62 x i8*] }, { [95 x i8*], [33 x i8*], [62 x i8*] }* @_ZTV2DD, i32 0, i32 0, i32 3
  %11 = bitcast i8** %10 to i32 (...)**
  store i32 (...)** %11, i32 (...)*** %9, align 8, !dbg !350
  %12 = bitcast %class.DD* %this to i8*, !dbg !350
  %add.ptr = getelementptr inbounds i8, i8* %12, i64 40, !dbg !350
  %13 = bitcast i8* %add.ptr to i32 (...)***, !dbg !350
  %14 = getelementptr inbounds { [95 x i8*], [33 x i8*], [62 x i8*] }, { [95 x i8*], [33 x i8*], [62 x i8*] }* @_ZTV2DD, i32 0, i32 2, i32 32
  %15 = bitcast i8** %14 to i32 (...)**
  store i32 (...)** %15, i32 (...)*** %13, align 8, !dbg !350
  %16 = bitcast %class.DD* %this to i8*, !dbg !350
  %add.ptr2 = getelementptr inbounds i8, i8* %16, i64 16, !dbg !350
  %17 = bitcast i8* %add.ptr2 to i32 (...)***, !dbg !350
  %18 = getelementptr inbounds { [95 x i8*], [33 x i8*], [62 x i8*] }, { [95 x i8*], [33 x i8*], [62 x i8*] }* @_ZTV2DD, i32 0, i32 1, i32 3
  %19 = bitcast i8** %18 to i32 (...)**
  store i32 (...)** %19, i32 (...)*** %17, align 8, !dbg !350
  ret void, !dbg !350
}

; Function Attrs: mustprogress noinline nounwind uwtable
define linkonce_odr dso_local void @_ZN2DD14ff_nv_00000000Ev(%class.DD* noundef nonnull align 8 dereferenceable(40) %this) #4 comdat align 2 !dbg !351 {
entry:
  call void @llvm.dbg.value(metadata %class.DD* %this, metadata !352, metadata !DIExpression()), !dbg !353
  ret void, !dbg !354
}

; Function Attrs: noinline nounwind uwtable
define linkonce_odr dso_local void @_ZN2AAC2Ev(%class.AA* noundef nonnull align 8 dereferenceable(16) %this) unnamed_addr #3 comdat align 2 !dbg !355 {
entry:
  call void @llvm.dbg.value(metadata %class.AA* %this, metadata !357, metadata !DIExpression()), !dbg !359
  %0 = bitcast %class.AA* %this to i32 (...)***, !dbg !360
  %1 = getelementptr inbounds { [32 x i8*] }, { [32 x i8*] }* @_ZTV2AA, i32 0, i32 0, i32 2
  %2 = bitcast i8** %1 to i32 (...)**
  store i32 (...)** %2, i32 (...)*** %0, align 8, !dbg !360
  ret void, !dbg !360
}

; Function Attrs: noinline nounwind uwtable
define linkonce_odr dso_local void @_ZN2BBC2Ev(%class.BB* noundef nonnull align 8 dereferenceable(16) %this, i8** noundef %vtt) unnamed_addr #3 comdat align 2 !dbg !361 {
entry:
  call void @llvm.dbg.value(metadata %class.BB* %this, metadata !363, metadata !DIExpression()), !dbg !365
  call void @llvm.dbg.value(metadata i8** %vtt, metadata !366, metadata !DIExpression()), !dbg !365
  %0 = load i8*, i8** %vtt, align 8, !dbg !369
  %1 = bitcast %class.BB* %this to i32 (...)***, !dbg !369
  %2 = bitcast i8* %0 to i32 (...)**, !dbg !369
  store i32 (...)** %2, i32 (...)*** %1, align 8, !dbg !369
  %3 = getelementptr inbounds i8*, i8** %vtt, i64 1, !dbg !369
  %4 = load i8*, i8** %3, align 8, !dbg !369
  %5 = bitcast %class.BB* %this to i8**, !dbg !369
  %vtable = load i8*, i8** %5, align 8, !dbg !369
  %vbase.offset.ptr = getelementptr i8, i8* %vtable, i64 -24, !dbg !369
  %6 = bitcast i8* %vbase.offset.ptr to i64*, !dbg !369
  %vbase.offset = load i64, i64* %6, align 8, !dbg !369
  %7 = bitcast %class.BB* %this to i8*, !dbg !369
  %add.ptr = getelementptr inbounds i8, i8* %7, i64 %vbase.offset, !dbg !369
  %8 = bitcast i8* %add.ptr to i32 (...)***, !dbg !369
  %9 = bitcast i8* %4 to i32 (...)**, !dbg !369
  store i32 (...)** %9, i32 (...)*** %8, align 8, !dbg !369
  ret void, !dbg !369
}

; Function Attrs: noinline nounwind uwtable
define linkonce_odr dso_local void @_ZN2CCC2Ev(%class.CC* noundef nonnull align 8 dereferenceable(16) %this, i8** noundef %vtt) unnamed_addr #3 comdat align 2 !dbg !370 {
entry:
  call void @llvm.dbg.value(metadata %class.CC* %this, metadata !372, metadata !DIExpression()), !dbg !374
  call void @llvm.dbg.value(metadata i8** %vtt, metadata !375, metadata !DIExpression()), !dbg !374
  %0 = load i8*, i8** %vtt, align 8, !dbg !376
  %1 = bitcast %class.CC* %this to i32 (...)***, !dbg !376
  %2 = bitcast i8* %0 to i32 (...)**, !dbg !376
  store i32 (...)** %2, i32 (...)*** %1, align 8, !dbg !376
  %3 = getelementptr inbounds i8*, i8** %vtt, i64 1, !dbg !376
  %4 = load i8*, i8** %3, align 8, !dbg !376
  %5 = bitcast %class.CC* %this to i8**, !dbg !376
  %vtable = load i8*, i8** %5, align 8, !dbg !376
  %vbase.offset.ptr = getelementptr i8, i8* %vtable, i64 -24, !dbg !376
  %6 = bitcast i8* %vbase.offset.ptr to i64*, !dbg !376
  %vbase.offset = load i64, i64* %6, align 8, !dbg !376
  %7 = bitcast %class.CC* %this to i8*, !dbg !376
  %add.ptr = getelementptr inbounds i8, i8* %7, i64 %vbase.offset, !dbg !376
  %8 = bitcast i8* %add.ptr to i32 (...)***, !dbg !376
  %9 = bitcast i8* %4 to i32 (...)**, !dbg !376
  store i32 (...)** %9, i32 (...)*** %8, align 8, !dbg !376
  ret void, !dbg !376
}

; Function Attrs: mustprogress noinline nounwind uwtable
define linkonce_odr dso_local void @_ZN2DD13gg_v_00000000Ev(%class.DD* noundef nonnull align 8 dereferenceable(40) %this) unnamed_addr #4 comdat align 2 !dbg !377 {
entry:
  call void @llvm.dbg.value(metadata %class.DD* %this, metadata !378, metadata !DIExpression()), !dbg !379
  ret void, !dbg !380
}

; Function Attrs: mustprogress noinline nounwind uwtable
define linkonce_odr dso_local void @_ZN2DD13gg_v_00000001Ev(%class.DD* noundef nonnull align 8 dereferenceable(40) %this) unnamed_addr #4 comdat align 2 !dbg !381 {
entry:
  call void @llvm.dbg.value(metadata %class.DD* %this, metadata !382, metadata !DIExpression()), !dbg !383
  ret void, !dbg !384
}

; Function Attrs: mustprogress noinline nounwind uwtable
define linkonce_odr dso_local void @_ZN2DD13gg_v_00000002Ev(%class.DD* noundef nonnull align 8 dereferenceable(40) %this) unnamed_addr #4 comdat align 2 !dbg !385 {
entry:
  call void @llvm.dbg.value(metadata %class.DD* %this, metadata !386, metadata !DIExpression()), !dbg !387
  ret void, !dbg !388
}

; Function Attrs: mustprogress noinline nounwind uwtable
define linkonce_odr dso_local void @_ZN2BB13gg_v_00000003Ev(%class.BB* noundef nonnull align 8 dereferenceable(16) %this) unnamed_addr #4 comdat align 2 !dbg !389 {
entry:
  call void @llvm.dbg.value(metadata %class.BB* %this, metadata !390, metadata !DIExpression()), !dbg !391
  ret void, !dbg !392
}

; Function Attrs: mustprogress noinline nounwind uwtable
define linkonce_odr dso_local void @_ZN2BB13gg_v_00000004Ev(%class.BB* noundef nonnull align 8 dereferenceable(16) %this) unnamed_addr #4 comdat align 2 !dbg !393 {
entry:
  call void @llvm.dbg.value(metadata %class.BB* %this, metadata !394, metadata !DIExpression()), !dbg !395
  ret void, !dbg !396
}

; Function Attrs: mustprogress noinline nounwind uwtable
define linkonce_odr dso_local void @_ZN2BB13gg_v_00000005Ev(%class.BB* noundef nonnull align 8 dereferenceable(16) %this) unnamed_addr #4 comdat align 2 !dbg !397 {
entry:
  call void @llvm.dbg.value(metadata %class.BB* %this, metadata !398, metadata !DIExpression()), !dbg !399
  ret void, !dbg !400
}

; Function Attrs: mustprogress noinline nounwind uwtable
define linkonce_odr dso_local void @_ZN2BB13gg_v_00000006Ev(%class.BB* noundef nonnull align 8 dereferenceable(16) %this) unnamed_addr #4 comdat align 2 !dbg !401 {
entry:
  call void @llvm.dbg.value(metadata %class.BB* %this, metadata !402, metadata !DIExpression()), !dbg !403
  ret void, !dbg !404
}

; Function Attrs: mustprogress noinline nounwind uwtable
define linkonce_odr dso_local void @_ZN2BB13gg_v_00000007Ev(%class.BB* noundef nonnull align 8 dereferenceable(16) %this) unnamed_addr #4 comdat align 2 !dbg !405 {
entry:
  call void @llvm.dbg.value(metadata %class.BB* %this, metadata !406, metadata !DIExpression()), !dbg !407
  ret void, !dbg !408
}

; Function Attrs: mustprogress noinline nounwind uwtable
define linkonce_odr dso_local void @_ZN2BB13gg_v_00000008Ev(%class.BB* noundef nonnull align 8 dereferenceable(16) %this) unnamed_addr #4 comdat align 2 !dbg !409 {
entry:
  call void @llvm.dbg.value(metadata %class.BB* %this, metadata !410, metadata !DIExpression()), !dbg !411
  ret void, !dbg !412
}

; Function Attrs: mustprogress noinline nounwind uwtable
define linkonce_odr dso_local void @_ZN2BB13gg_v_00000009Ev(%class.BB* noundef nonnull align 8 dereferenceable(16) %this) unnamed_addr #4 comdat align 2 !dbg !413 {
entry:
  call void @llvm.dbg.value(metadata %class.BB* %this, metadata !414, metadata !DIExpression()), !dbg !415
  ret void, !dbg !416
}

; Function Attrs: mustprogress noinline nounwind uwtable
define linkonce_odr dso_local void @_ZN2BB13gg_v_00000010Ev(%class.BB* noundef nonnull align 8 dereferenceable(16) %this) unnamed_addr #4 comdat align 2 !dbg !417 {
entry:
  call void @llvm.dbg.value(metadata %class.BB* %this, metadata !418, metadata !DIExpression()), !dbg !419
  ret void, !dbg !420
}

; Function Attrs: mustprogress noinline nounwind uwtable
define linkonce_odr dso_local void @_ZN2BB13gg_v_00000011Ev(%class.BB* noundef nonnull align 8 dereferenceable(16) %this) unnamed_addr #4 comdat align 2 !dbg !421 {
entry:
  call void @llvm.dbg.value(metadata %class.BB* %this, metadata !422, metadata !DIExpression()), !dbg !423
  ret void, !dbg !424
}

; Function Attrs: mustprogress noinline nounwind uwtable
define linkonce_odr dso_local void @_ZN2BB13gg_v_00000012Ev(%class.BB* noundef nonnull align 8 dereferenceable(16) %this) unnamed_addr #4 comdat align 2 !dbg !425 {
entry:
  call void @llvm.dbg.value(metadata %class.BB* %this, metadata !426, metadata !DIExpression()), !dbg !427
  ret void, !dbg !428
}

; Function Attrs: mustprogress noinline nounwind uwtable
define linkonce_odr dso_local void @_ZN2BB13gg_v_00000013Ev(%class.BB* noundef nonnull align 8 dereferenceable(16) %this) unnamed_addr #4 comdat align 2 !dbg !429 {
entry:
  call void @llvm.dbg.value(metadata %class.BB* %this, metadata !430, metadata !DIExpression()), !dbg !431
  ret void, !dbg !432
}

; Function Attrs: mustprogress noinline nounwind uwtable
define linkonce_odr dso_local void @_ZN2BB13gg_v_00000014Ev(%class.BB* noundef nonnull align 8 dereferenceable(16) %this) unnamed_addr #4 comdat align 2 !dbg !433 {
entry:
  call void @llvm.dbg.value(metadata %class.BB* %this, metadata !434, metadata !DIExpression()), !dbg !435
  ret void, !dbg !436
}

; Function Attrs: mustprogress noinline nounwind uwtable
define linkonce_odr dso_local void @_ZN2BB13gg_v_00000015Ev(%class.BB* noundef nonnull align 8 dereferenceable(16) %this) unnamed_addr #4 comdat align 2 !dbg !437 {
entry:
  call void @llvm.dbg.value(metadata %class.BB* %this, metadata !438, metadata !DIExpression()), !dbg !439
  ret void, !dbg !440
}

; Function Attrs: mustprogress noinline nounwind uwtable
define linkonce_odr dso_local void @_ZN2BB13gg_v_00000016Ev(%class.BB* noundef nonnull align 8 dereferenceable(16) %this) unnamed_addr #4 comdat align 2 !dbg !441 {
entry:
  call void @llvm.dbg.value(metadata %class.BB* %this, metadata !442, metadata !DIExpression()), !dbg !443
  ret void, !dbg !444
}

; Function Attrs: mustprogress noinline nounwind uwtable
define linkonce_odr dso_local void @_ZN2BB13gg_v_00000017Ev(%class.BB* noundef nonnull align 8 dereferenceable(16) %this) unnamed_addr #4 comdat align 2 !dbg !445 {
entry:
  call void @llvm.dbg.value(metadata %class.BB* %this, metadata !446, metadata !DIExpression()), !dbg !447
  ret void, !dbg !448
}

; Function Attrs: mustprogress noinline nounwind uwtable
define linkonce_odr dso_local void @_ZN2BB13gg_v_00000018Ev(%class.BB* noundef nonnull align 8 dereferenceable(16) %this) unnamed_addr #4 comdat align 2 !dbg !449 {
entry:
  call void @llvm.dbg.value(metadata %class.BB* %this, metadata !450, metadata !DIExpression()), !dbg !451
  ret void, !dbg !452
}

; Function Attrs: mustprogress noinline nounwind uwtable
define linkonce_odr dso_local void @_ZN2BB13gg_v_00000019Ev(%class.BB* noundef nonnull align 8 dereferenceable(16) %this) unnamed_addr #4 comdat align 2 !dbg !453 {
entry:
  call void @llvm.dbg.value(metadata %class.BB* %this, metadata !454, metadata !DIExpression()), !dbg !455
  ret void, !dbg !456
}

; Function Attrs: mustprogress noinline nounwind uwtable
define linkonce_odr dso_local void @_ZN2BB13gg_v_00000020Ev(%class.BB* noundef nonnull align 8 dereferenceable(16) %this) unnamed_addr #4 comdat align 2 !dbg !457 {
entry:
  call void @llvm.dbg.value(metadata %class.BB* %this, metadata !458, metadata !DIExpression()), !dbg !459
  ret void, !dbg !460
}

; Function Attrs: mustprogress noinline nounwind uwtable
define linkonce_odr dso_local void @_ZN2BB13gg_v_00000021Ev(%class.BB* noundef nonnull align 8 dereferenceable(16) %this) unnamed_addr #4 comdat align 2 !dbg !461 {
entry:
  call void @llvm.dbg.value(metadata %class.BB* %this, metadata !462, metadata !DIExpression()), !dbg !463
  ret void, !dbg !464
}

; Function Attrs: mustprogress noinline nounwind uwtable
define linkonce_odr dso_local void @_ZN2BB13gg_v_00000022Ev(%class.BB* noundef nonnull align 8 dereferenceable(16) %this) unnamed_addr #4 comdat align 2 !dbg !465 {
entry:
  call void @llvm.dbg.value(metadata %class.BB* %this, metadata !466, metadata !DIExpression()), !dbg !467
  ret void, !dbg !468
}

; Function Attrs: mustprogress noinline nounwind uwtable
define linkonce_odr dso_local void @_ZN2BB13gg_v_00000023Ev(%class.BB* noundef nonnull align 8 dereferenceable(16) %this) unnamed_addr #4 comdat align 2 !dbg !469 {
entry:
  call void @llvm.dbg.value(metadata %class.BB* %this, metadata !470, metadata !DIExpression()), !dbg !471
  ret void, !dbg !472
}

; Function Attrs: mustprogress noinline nounwind uwtable
define linkonce_odr dso_local void @_ZN2BB13gg_v_00000024Ev(%class.BB* noundef nonnull align 8 dereferenceable(16) %this) unnamed_addr #4 comdat align 2 !dbg !473 {
entry:
  call void @llvm.dbg.value(metadata %class.BB* %this, metadata !474, metadata !DIExpression()), !dbg !475
  ret void, !dbg !476
}

; Function Attrs: mustprogress noinline nounwind uwtable
define linkonce_odr dso_local void @_ZN2BB13gg_v_00000025Ev(%class.BB* noundef nonnull align 8 dereferenceable(16) %this) unnamed_addr #4 comdat align 2 !dbg !477 {
entry:
  call void @llvm.dbg.value(metadata %class.BB* %this, metadata !478, metadata !DIExpression()), !dbg !479
  ret void, !dbg !480
}

; Function Attrs: mustprogress noinline nounwind uwtable
define linkonce_odr dso_local void @_ZN2BB13gg_v_00000026Ev(%class.BB* noundef nonnull align 8 dereferenceable(16) %this) unnamed_addr #4 comdat align 2 !dbg !481 {
entry:
  call void @llvm.dbg.value(metadata %class.BB* %this, metadata !482, metadata !DIExpression()), !dbg !483
  ret void, !dbg !484
}

; Function Attrs: mustprogress noinline nounwind uwtable
define linkonce_odr dso_local void @_ZN2BB13gg_v_00000027Ev(%class.BB* noundef nonnull align 8 dereferenceable(16) %this) unnamed_addr #4 comdat align 2 !dbg !485 {
entry:
  call void @llvm.dbg.value(metadata %class.BB* %this, metadata !486, metadata !DIExpression()), !dbg !487
  ret void, !dbg !488
}

; Function Attrs: mustprogress noinline nounwind uwtable
define linkonce_odr dso_local void @_ZN2BB13gg_v_00000028Ev(%class.BB* noundef nonnull align 8 dereferenceable(16) %this) unnamed_addr #4 comdat align 2 !dbg !489 {
entry:
  call void @llvm.dbg.value(metadata %class.BB* %this, metadata !490, metadata !DIExpression()), !dbg !491
  ret void, !dbg !492
}

; Function Attrs: mustprogress noinline nounwind uwtable
define linkonce_odr dso_local void @_ZN2BB13gg_v_00000029Ev(%class.BB* noundef nonnull align 8 dereferenceable(16) %this) unnamed_addr #4 comdat align 2 !dbg !493 {
entry:
  call void @llvm.dbg.value(metadata %class.BB* %this, metadata !494, metadata !DIExpression()), !dbg !495
  ret void, !dbg !496
}

; Function Attrs: mustprogress noinline nounwind uwtable
define linkonce_odr dso_local void @_ZN2DD13kk_v_00000000Ev(%class.DD* noundef nonnull align 8 dereferenceable(40) %this) unnamed_addr #4 comdat align 2 !dbg !497 {
entry:
  call void @llvm.dbg.value(metadata %class.DD* %this, metadata !498, metadata !DIExpression()), !dbg !499
  ret void, !dbg !500
}

; Function Attrs: mustprogress noinline nounwind uwtable
define linkonce_odr dso_local void @_ZN2DD13kk_v_00000001Ev(%class.DD* noundef nonnull align 8 dereferenceable(40) %this) unnamed_addr #4 comdat align 2 !dbg !501 {
entry:
  call void @llvm.dbg.value(metadata %class.DD* %this, metadata !502, metadata !DIExpression()), !dbg !503
  ret void, !dbg !504
}

; Function Attrs: mustprogress noinline nounwind uwtable
define linkonce_odr dso_local void @_ZN2DD13kk_v_00000002Ev(%class.DD* noundef nonnull align 8 dereferenceable(40) %this) unnamed_addr #4 comdat align 2 !dbg !505 {
entry:
  call void @llvm.dbg.value(metadata %class.DD* %this, metadata !506, metadata !DIExpression()), !dbg !507
  ret void, !dbg !508
}

; Function Attrs: mustprogress noinline nounwind uwtable
define linkonce_odr dso_local void @_ZN2DD13kk_v_00000003Ev(%class.DD* noundef nonnull align 8 dereferenceable(40) %this) unnamed_addr #4 comdat align 2 !dbg !509 {
entry:
  call void @llvm.dbg.value(metadata %class.DD* %this, metadata !510, metadata !DIExpression()), !dbg !511
  ret void, !dbg !512
}

; Function Attrs: mustprogress noinline nounwind uwtable
define linkonce_odr dso_local void @_ZN2DD13kk_v_00000004Ev(%class.DD* noundef nonnull align 8 dereferenceable(40) %this) unnamed_addr #4 comdat align 2 !dbg !513 {
entry:
  call void @llvm.dbg.value(metadata %class.DD* %this, metadata !514, metadata !DIExpression()), !dbg !515
  ret void, !dbg !516
}

; Function Attrs: mustprogress noinline nounwind uwtable
define linkonce_odr dso_local void @_ZN2DD13kk_v_00000005Ev(%class.DD* noundef nonnull align 8 dereferenceable(40) %this) unnamed_addr #4 comdat align 2 !dbg !517 {
entry:
  call void @llvm.dbg.value(metadata %class.DD* %this, metadata !518, metadata !DIExpression()), !dbg !519
  ret void, !dbg !520
}

; Function Attrs: mustprogress noinline nounwind uwtable
define linkonce_odr dso_local void @_ZN2DD13kk_v_00000006Ev(%class.DD* noundef nonnull align 8 dereferenceable(40) %this) unnamed_addr #4 comdat align 2 !dbg !521 {
entry:
  call void @llvm.dbg.value(metadata %class.DD* %this, metadata !522, metadata !DIExpression()), !dbg !523
  ret void, !dbg !524
}

; Function Attrs: mustprogress noinline nounwind uwtable
define linkonce_odr dso_local void @_ZN2DD13kk_v_00000007Ev(%class.DD* noundef nonnull align 8 dereferenceable(40) %this) unnamed_addr #4 comdat align 2 !dbg !525 {
entry:
  call void @llvm.dbg.value(metadata %class.DD* %this, metadata !526, metadata !DIExpression()), !dbg !527
  ret void, !dbg !528
}

; Function Attrs: mustprogress noinline nounwind uwtable
define linkonce_odr dso_local void @_ZN2DD13kk_v_00000008Ev(%class.DD* noundef nonnull align 8 dereferenceable(40) %this) unnamed_addr #4 comdat align 2 !dbg !529 {
entry:
  call void @llvm.dbg.value(metadata %class.DD* %this, metadata !530, metadata !DIExpression()), !dbg !531
  ret void, !dbg !532
}

; Function Attrs: mustprogress noinline nounwind uwtable
define linkonce_odr dso_local void @_ZN2DD13kk_v_00000009Ev(%class.DD* noundef nonnull align 8 dereferenceable(40) %this) unnamed_addr #4 comdat align 2 !dbg !533 {
entry:
  call void @llvm.dbg.value(metadata %class.DD* %this, metadata !534, metadata !DIExpression()), !dbg !535
  ret void, !dbg !536
}

; Function Attrs: mustprogress noinline nounwind uwtable
define linkonce_odr dso_local void @_ZN2DD13kk_v_00000010Ev(%class.DD* noundef nonnull align 8 dereferenceable(40) %this) unnamed_addr #4 comdat align 2 !dbg !537 {
entry:
  call void @llvm.dbg.value(metadata %class.DD* %this, metadata !538, metadata !DIExpression()), !dbg !539
  ret void, !dbg !540
}

; Function Attrs: mustprogress noinline nounwind uwtable
define linkonce_odr dso_local void @_ZN2DD13kk_v_00000011Ev(%class.DD* noundef nonnull align 8 dereferenceable(40) %this) unnamed_addr #4 comdat align 2 !dbg !541 {
entry:
  call void @llvm.dbg.value(metadata %class.DD* %this, metadata !542, metadata !DIExpression()), !dbg !543
  ret void, !dbg !544
}

; Function Attrs: mustprogress noinline nounwind uwtable
define linkonce_odr dso_local void @_ZN2DD13kk_v_00000012Ev(%class.DD* noundef nonnull align 8 dereferenceable(40) %this) unnamed_addr #4 comdat align 2 !dbg !545 {
entry:
  call void @llvm.dbg.value(metadata %class.DD* %this, metadata !546, metadata !DIExpression()), !dbg !547
  ret void, !dbg !548
}

; Function Attrs: mustprogress noinline nounwind uwtable
define linkonce_odr dso_local void @_ZN2DD13kk_v_00000013Ev(%class.DD* noundef nonnull align 8 dereferenceable(40) %this) unnamed_addr #4 comdat align 2 !dbg !549 {
entry:
  call void @llvm.dbg.value(metadata %class.DD* %this, metadata !550, metadata !DIExpression()), !dbg !551
  ret void, !dbg !552
}

; Function Attrs: mustprogress noinline nounwind uwtable
define linkonce_odr dso_local void @_ZN2DD13kk_v_00000014Ev(%class.DD* noundef nonnull align 8 dereferenceable(40) %this) unnamed_addr #4 comdat align 2 !dbg !553 {
entry:
  call void @llvm.dbg.value(metadata %class.DD* %this, metadata !554, metadata !DIExpression()), !dbg !555
  ret void, !dbg !556
}

; Function Attrs: mustprogress noinline nounwind uwtable
define linkonce_odr dso_local void @_ZN2DD13kk_v_00000015Ev(%class.DD* noundef nonnull align 8 dereferenceable(40) %this) unnamed_addr #4 comdat align 2 !dbg !557 {
entry:
  call void @llvm.dbg.value(metadata %class.DD* %this, metadata !558, metadata !DIExpression()), !dbg !559
  ret void, !dbg !560
}

; Function Attrs: mustprogress noinline nounwind uwtable
define linkonce_odr dso_local void @_ZN2DD13kk_v_00000016Ev(%class.DD* noundef nonnull align 8 dereferenceable(40) %this) unnamed_addr #4 comdat align 2 !dbg !561 {
entry:
  call void @llvm.dbg.value(metadata %class.DD* %this, metadata !562, metadata !DIExpression()), !dbg !563
  ret void, !dbg !564
}

; Function Attrs: mustprogress noinline nounwind uwtable
define linkonce_odr dso_local void @_ZN2DD13kk_v_00000017Ev(%class.DD* noundef nonnull align 8 dereferenceable(40) %this) unnamed_addr #4 comdat align 2 !dbg !565 {
entry:
  call void @llvm.dbg.value(metadata %class.DD* %this, metadata !566, metadata !DIExpression()), !dbg !567
  ret void, !dbg !568
}

; Function Attrs: mustprogress noinline nounwind uwtable
define linkonce_odr dso_local void @_ZN2DD13kk_v_00000018Ev(%class.DD* noundef nonnull align 8 dereferenceable(40) %this) unnamed_addr #4 comdat align 2 !dbg !569 {
entry:
  call void @llvm.dbg.value(metadata %class.DD* %this, metadata !570, metadata !DIExpression()), !dbg !571
  ret void, !dbg !572
}

; Function Attrs: mustprogress noinline nounwind uwtable
define linkonce_odr dso_local void @_ZN2DD13kk_v_00000019Ev(%class.DD* noundef nonnull align 8 dereferenceable(40) %this) unnamed_addr #4 comdat align 2 !dbg !573 {
entry:
  call void @llvm.dbg.value(metadata %class.DD* %this, metadata !574, metadata !DIExpression()), !dbg !575
  ret void, !dbg !576
}

; Function Attrs: mustprogress noinline nounwind uwtable
define linkonce_odr dso_local void @_ZN2DD13kk_v_00000020Ev(%class.DD* noundef nonnull align 8 dereferenceable(40) %this) unnamed_addr #4 comdat align 2 !dbg !577 {
entry:
  call void @llvm.dbg.value(metadata %class.DD* %this, metadata !578, metadata !DIExpression()), !dbg !579
  ret void, !dbg !580
}

; Function Attrs: mustprogress noinline nounwind uwtable
define linkonce_odr dso_local void @_ZN2DD13kk_v_00000021Ev(%class.DD* noundef nonnull align 8 dereferenceable(40) %this) unnamed_addr #4 comdat align 2 !dbg !581 {
entry:
  call void @llvm.dbg.value(metadata %class.DD* %this, metadata !582, metadata !DIExpression()), !dbg !583
  ret void, !dbg !584
}

; Function Attrs: mustprogress noinline nounwind uwtable
define linkonce_odr dso_local void @_ZN2DD13kk_v_00000022Ev(%class.DD* noundef nonnull align 8 dereferenceable(40) %this) unnamed_addr #4 comdat align 2 !dbg !585 {
entry:
  call void @llvm.dbg.value(metadata %class.DD* %this, metadata !586, metadata !DIExpression()), !dbg !587
  ret void, !dbg !588
}

; Function Attrs: mustprogress noinline nounwind uwtable
define linkonce_odr dso_local void @_ZN2DD13kk_v_00000023Ev(%class.DD* noundef nonnull align 8 dereferenceable(40) %this) unnamed_addr #4 comdat align 2 !dbg !589 {
entry:
  call void @llvm.dbg.value(metadata %class.DD* %this, metadata !590, metadata !DIExpression()), !dbg !591
  ret void, !dbg !592
}

; Function Attrs: mustprogress noinline nounwind uwtable
define linkonce_odr dso_local void @_ZN2DD13kk_v_00000024Ev(%class.DD* noundef nonnull align 8 dereferenceable(40) %this) unnamed_addr #4 comdat align 2 !dbg !593 {
entry:
  call void @llvm.dbg.value(metadata %class.DD* %this, metadata !594, metadata !DIExpression()), !dbg !595
  ret void, !dbg !596
}

; Function Attrs: mustprogress noinline nounwind uwtable
define linkonce_odr dso_local void @_ZN2DD13kk_v_00000025Ev(%class.DD* noundef nonnull align 8 dereferenceable(40) %this) unnamed_addr #4 comdat align 2 !dbg !597 {
entry:
  call void @llvm.dbg.value(metadata %class.DD* %this, metadata !598, metadata !DIExpression()), !dbg !599
  ret void, !dbg !600
}

; Function Attrs: mustprogress noinline nounwind uwtable
define linkonce_odr dso_local void @_ZN2DD13hh_v_00000000Ev(%class.DD* noundef nonnull align 8 dereferenceable(40) %this) unnamed_addr #4 comdat align 2 !dbg !601 {
entry:
  call void @llvm.dbg.value(metadata %class.DD* %this, metadata !602, metadata !DIExpression()), !dbg !603
  ret void, !dbg !604
}

; Function Attrs: mustprogress noinline nounwind uwtable
define linkonce_odr dso_local void @_ZN2DD13hh_v_00000001Ev(%class.DD* noundef nonnull align 8 dereferenceable(40) %this) unnamed_addr #4 comdat align 2 !dbg !605 {
entry:
  call void @llvm.dbg.value(metadata %class.DD* %this, metadata !606, metadata !DIExpression()), !dbg !607
  ret void, !dbg !608
}

; Function Attrs: mustprogress noinline nounwind uwtable
define linkonce_odr dso_local void @_ZN2DD13hh_v_00000002Ev(%class.DD* noundef nonnull align 8 dereferenceable(40) %this) unnamed_addr #4 comdat align 2 !dbg !609 {
entry:
  call void @llvm.dbg.value(metadata %class.DD* %this, metadata !610, metadata !DIExpression()), !dbg !611
  ret void, !dbg !612
}

; Function Attrs: mustprogress noinline nounwind uwtable
define linkonce_odr dso_local void @_ZN2DD13hh_v_00000003Ev(%class.DD* noundef nonnull align 8 dereferenceable(40) %this) unnamed_addr #4 comdat align 2 !dbg !613 {
entry:
  call void @llvm.dbg.value(metadata %class.DD* %this, metadata !614, metadata !DIExpression()), !dbg !615
  ret void, !dbg !616
}

; Function Attrs: mustprogress noinline nounwind uwtable
define linkonce_odr dso_local void @_ZN2DD13hh_v_00000004Ev(%class.DD* noundef nonnull align 8 dereferenceable(40) %this) unnamed_addr #4 comdat align 2 !dbg !617 {
entry:
  call void @llvm.dbg.value(metadata %class.DD* %this, metadata !618, metadata !DIExpression()), !dbg !619
  ret void, !dbg !620
}

; Function Attrs: mustprogress noinline nounwind uwtable
define linkonce_odr dso_local void @_ZN2DD13hh_v_00000005Ev(%class.DD* noundef nonnull align 8 dereferenceable(40) %this) unnamed_addr #4 comdat align 2 !dbg !621 {
entry:
  call void @llvm.dbg.value(metadata %class.DD* %this, metadata !622, metadata !DIExpression()), !dbg !623
  ret void, !dbg !624
}

; Function Attrs: mustprogress noinline nounwind uwtable
define linkonce_odr dso_local void @_ZN2DD13ff_v_00000000Ev(%class.DD* noundef nonnull align 8 dereferenceable(40) %this) unnamed_addr #4 comdat align 2 !dbg !625 {
entry:
  call void @llvm.dbg.value(metadata %class.DD* %this, metadata !626, metadata !DIExpression()), !dbg !627
  ret void, !dbg !628
}

; Function Attrs: mustprogress noinline nounwind uwtable
define linkonce_odr dso_local void @_ZN2DD13ff_v_00000001Ev(%class.DD* noundef nonnull align 8 dereferenceable(40) %this) unnamed_addr #4 comdat align 2 !dbg !629 {
entry:
  call void @llvm.dbg.value(metadata %class.DD* %this, metadata !630, metadata !DIExpression()), !dbg !631
  ret void, !dbg !632
}

; Function Attrs: mustprogress noinline nounwind uwtable
define linkonce_odr dso_local void @_ZN2DD13ff_v_00000002Ev(%class.DD* noundef nonnull align 8 dereferenceable(40) %this) unnamed_addr #4 comdat align 2 !dbg !633 {
entry:
  call void @llvm.dbg.value(metadata %class.DD* %this, metadata !634, metadata !DIExpression()), !dbg !635
  ret void, !dbg !636
}

; Function Attrs: mustprogress noinline nounwind uwtable
define linkonce_odr dso_local void @_ZN2DD13ff_v_00000003Ev(%class.DD* noundef nonnull align 8 dereferenceable(40) %this) unnamed_addr #4 comdat align 2 !dbg !637 {
entry:
  call void @llvm.dbg.value(metadata %class.DD* %this, metadata !638, metadata !DIExpression()), !dbg !639
  ret void, !dbg !640
}

; Function Attrs: mustprogress noinline nounwind uwtable
define linkonce_odr dso_local void @_ZN2DD13ff_v_00000004Ev(%class.DD* noundef nonnull align 8 dereferenceable(40) %this) unnamed_addr #4 comdat align 2 !dbg !641 {
entry:
  call void @llvm.dbg.value(metadata %class.DD* %this, metadata !642, metadata !DIExpression()), !dbg !643
  ret void, !dbg !644
}

; Function Attrs: mustprogress noinline nounwind uwtable
define linkonce_odr dso_local void @_ZN2DD13ff_v_00000005Ev(%class.DD* noundef nonnull align 8 dereferenceable(40) %this) unnamed_addr #4 comdat align 2 !dbg !645 {
entry:
  call void @llvm.dbg.value(metadata %class.DD* %this, metadata !646, metadata !DIExpression()), !dbg !647
  ret void, !dbg !648
}

; Function Attrs: mustprogress noinline nounwind uwtable
define linkonce_odr dso_local void @_ZN2DD13ff_v_00000006Ev(%class.DD* noundef nonnull align 8 dereferenceable(40) %this) unnamed_addr #4 comdat align 2 !dbg !649 {
entry:
  call void @llvm.dbg.value(metadata %class.DD* %this, metadata !650, metadata !DIExpression()), !dbg !651
  ret void, !dbg !652
}

; Function Attrs: mustprogress noinline nounwind uwtable
define linkonce_odr dso_local void @_ZN2DD13ff_v_00000007Ev(%class.DD* noundef nonnull align 8 dereferenceable(40) %this) unnamed_addr #4 comdat align 2 !dbg !653 {
entry:
  call void @llvm.dbg.value(metadata %class.DD* %this, metadata !654, metadata !DIExpression()), !dbg !655
  ret void, !dbg !656
}

; Function Attrs: mustprogress noinline nounwind uwtable
define linkonce_odr dso_local void @_ZN2DD13ff_v_00000008Ev(%class.DD* noundef nonnull align 8 dereferenceable(40) %this) unnamed_addr #4 comdat align 2 !dbg !657 {
entry:
  call void @llvm.dbg.value(metadata %class.DD* %this, metadata !658, metadata !DIExpression()), !dbg !659
  ret void, !dbg !660
}

; Function Attrs: mustprogress noinline nounwind uwtable
define linkonce_odr dso_local void @_ZN2DD13ff_v_00000009Ev(%class.DD* noundef nonnull align 8 dereferenceable(40) %this) unnamed_addr #4 comdat align 2 !dbg !661 {
entry:
  call void @llvm.dbg.value(metadata %class.DD* %this, metadata !662, metadata !DIExpression()), !dbg !663
  ret void, !dbg !664
}

; Function Attrs: mustprogress noinline nounwind uwtable
define linkonce_odr dso_local void @_ZN2DD13ff_v_00000010Ev(%class.DD* noundef nonnull align 8 dereferenceable(40) %this) unnamed_addr #4 comdat align 2 !dbg !665 {
entry:
  call void @llvm.dbg.value(metadata %class.DD* %this, metadata !666, metadata !DIExpression()), !dbg !667
  ret void, !dbg !668
}

; Function Attrs: mustprogress noinline nounwind uwtable
define linkonce_odr dso_local void @_ZN2DD13ff_v_00000011Ev(%class.DD* noundef nonnull align 8 dereferenceable(40) %this) unnamed_addr #4 comdat align 2 !dbg !669 {
entry:
  call void @llvm.dbg.value(metadata %class.DD* %this, metadata !670, metadata !DIExpression()), !dbg !671
  ret void, !dbg !672
}

; Function Attrs: mustprogress noinline nounwind uwtable
define linkonce_odr dso_local void @_ZN2DD13ff_v_00000012Ev(%class.DD* noundef nonnull align 8 dereferenceable(40) %this) unnamed_addr #4 comdat align 2 !dbg !673 {
entry:
  call void @llvm.dbg.value(metadata %class.DD* %this, metadata !674, metadata !DIExpression()), !dbg !675
  ret void, !dbg !676
}

; Function Attrs: mustprogress noinline nounwind uwtable
define linkonce_odr dso_local void @_ZN2DD13ff_v_00000013Ev(%class.DD* noundef nonnull align 8 dereferenceable(40) %this) unnamed_addr #4 comdat align 2 !dbg !677 {
entry:
  call void @llvm.dbg.value(metadata %class.DD* %this, metadata !678, metadata !DIExpression()), !dbg !679
  ret void, !dbg !680
}

; Function Attrs: mustprogress noinline nounwind uwtable
define linkonce_odr dso_local void @_ZN2DD13ff_v_00000014Ev(%class.DD* noundef nonnull align 8 dereferenceable(40) %this) unnamed_addr #4 comdat align 2 !dbg !681 {
entry:
  call void @llvm.dbg.value(metadata %class.DD* %this, metadata !682, metadata !DIExpression()), !dbg !683
  ret void, !dbg !684
}

; Function Attrs: mustprogress noinline nounwind uwtable
define linkonce_odr dso_local void @_ZN2DD13ff_v_00000015Ev(%class.DD* noundef nonnull align 8 dereferenceable(40) %this) unnamed_addr #4 comdat align 2 !dbg !685 {
entry:
  call void @llvm.dbg.value(metadata %class.DD* %this, metadata !686, metadata !DIExpression()), !dbg !687
  ret void, !dbg !688
}

; Function Attrs: mustprogress noinline nounwind uwtable
define linkonce_odr dso_local void @_ZN2DD13ff_v_00000016Ev(%class.DD* noundef nonnull align 8 dereferenceable(40) %this) unnamed_addr #4 comdat align 2 !dbg !689 {
entry:
  call void @llvm.dbg.value(metadata %class.DD* %this, metadata !690, metadata !DIExpression()), !dbg !691
  ret void, !dbg !692
}

; Function Attrs: mustprogress noinline nounwind uwtable
define linkonce_odr dso_local void @_ZN2DD13ff_v_00000017Ev(%class.DD* noundef nonnull align 8 dereferenceable(40) %this) unnamed_addr #4 comdat align 2 !dbg !693 {
entry:
  call void @llvm.dbg.value(metadata %class.DD* %this, metadata !694, metadata !DIExpression()), !dbg !695
  ret void, !dbg !696
}

; Function Attrs: mustprogress noinline nounwind uwtable
define linkonce_odr dso_local void @_ZN2DD13ff_v_00000018Ev(%class.DD* noundef nonnull align 8 dereferenceable(40) %this) unnamed_addr #4 comdat align 2 !dbg !697 {
entry:
  call void @llvm.dbg.value(metadata %class.DD* %this, metadata !698, metadata !DIExpression()), !dbg !699
  ret void, !dbg !700
}

; Function Attrs: mustprogress noinline nounwind uwtable
define linkonce_odr dso_local void @_ZN2DD13ff_v_00000019Ev(%class.DD* noundef nonnull align 8 dereferenceable(40) %this) unnamed_addr #4 comdat align 2 !dbg !701 {
entry:
  call void @llvm.dbg.value(metadata %class.DD* %this, metadata !702, metadata !DIExpression()), !dbg !703
  ret void, !dbg !704
}

; Function Attrs: mustprogress noinline nounwind uwtable
define linkonce_odr dso_local void @_ZN2DD13ff_v_00000020Ev(%class.DD* noundef nonnull align 8 dereferenceable(40) %this) unnamed_addr #4 comdat align 2 !dbg !705 {
entry:
  call void @llvm.dbg.value(metadata %class.DD* %this, metadata !706, metadata !DIExpression()), !dbg !707
  ret void, !dbg !708
}

; Function Attrs: mustprogress noinline nounwind uwtable
define linkonce_odr dso_local void @_ZN2DD13ff_v_00000021Ev(%class.DD* noundef nonnull align 8 dereferenceable(40) %this) unnamed_addr #4 comdat align 2 !dbg !709 {
entry:
  call void @llvm.dbg.value(metadata %class.DD* %this, metadata !710, metadata !DIExpression()), !dbg !711
  ret void, !dbg !712
}

; Function Attrs: mustprogress noinline nounwind uwtable
define linkonce_odr dso_local void @_ZN2DD13ff_v_00000022Ev(%class.DD* noundef nonnull align 8 dereferenceable(40) %this) unnamed_addr #4 comdat align 2 !dbg !713 {
entry:
  call void @llvm.dbg.value(metadata %class.DD* %this, metadata !714, metadata !DIExpression()), !dbg !715
  ret void, !dbg !716
}

; Function Attrs: mustprogress noinline nounwind uwtable
define linkonce_odr dso_local void @_ZN2DD13ff_v_00000023Ev(%class.DD* noundef nonnull align 8 dereferenceable(40) %this) unnamed_addr #4 comdat align 2 !dbg !717 {
entry:
  call void @llvm.dbg.value(metadata %class.DD* %this, metadata !718, metadata !DIExpression()), !dbg !719
  ret void, !dbg !720
}

; Function Attrs: mustprogress noinline nounwind uwtable
define linkonce_odr dso_local void @_ZN2DD13ff_v_00000024Ev(%class.DD* noundef nonnull align 8 dereferenceable(40) %this) unnamed_addr #4 comdat align 2 !dbg !721 {
entry:
  call void @llvm.dbg.value(metadata %class.DD* %this, metadata !722, metadata !DIExpression()), !dbg !723
  ret void, !dbg !724
}

; Function Attrs: mustprogress noinline nounwind uwtable
define linkonce_odr dso_local void @_ZN2DD13ff_v_00000025Ev(%class.DD* noundef nonnull align 8 dereferenceable(40) %this) unnamed_addr #4 comdat align 2 !dbg !725 {
entry:
  call void @llvm.dbg.value(metadata %class.DD* %this, metadata !726, metadata !DIExpression()), !dbg !727
  ret void, !dbg !728
}

; Function Attrs: mustprogress noinline nounwind uwtable
define linkonce_odr dso_local void @_ZN2DD13ff_v_00000026Ev(%class.DD* noundef nonnull align 8 dereferenceable(40) %this) unnamed_addr #4 comdat align 2 !dbg !729 {
entry:
  call void @llvm.dbg.value(metadata %class.DD* %this, metadata !730, metadata !DIExpression()), !dbg !731
  ret void, !dbg !732
}

; Function Attrs: mustprogress noinline nounwind uwtable
define linkonce_odr dso_local void @_ZN2DD13ff_v_00000027Ev(%class.DD* noundef nonnull align 8 dereferenceable(40) %this) unnamed_addr #4 comdat align 2 !dbg !733 {
entry:
  call void @llvm.dbg.value(metadata %class.DD* %this, metadata !734, metadata !DIExpression()), !dbg !735
  ret void, !dbg !736
}

; Function Attrs: mustprogress noinline nounwind uwtable
define linkonce_odr dso_local void @_ZN2DD13ff_v_00000028Ev(%class.DD* noundef nonnull align 8 dereferenceable(40) %this) unnamed_addr #4 comdat align 2 !dbg !737 {
entry:
  call void @llvm.dbg.value(metadata %class.DD* %this, metadata !738, metadata !DIExpression()), !dbg !739
  ret void, !dbg !740
}

; Function Attrs: mustprogress noinline nounwind uwtable
define linkonce_odr dso_local void @_ZN2DD13ff_v_00000029Ev(%class.DD* noundef nonnull align 8 dereferenceable(40) %this) unnamed_addr #4 comdat align 2 !dbg !741 {
entry:
  call void @llvm.dbg.value(metadata %class.DD* %this, metadata !742, metadata !DIExpression()), !dbg !743
  ret void, !dbg !744
}

; Function Attrs: noinline uwtable
define linkonce_odr dso_local void @_ZThn16_N2DD13hh_v_00000000Ev(%class.DD* noundef %this) unnamed_addr #5 comdat align 2 !dbg !745 {
entry:
  %0 = bitcast %class.DD* %this to i8*, !dbg !747
  %1 = getelementptr inbounds i8, i8* %0, i64 -16, !dbg !747
  %2 = bitcast i8* %1 to %class.DD*, !dbg !747
  tail call void @_ZN2DD13hh_v_00000000Ev(%class.DD* noundef nonnull align 8 dereferenceable(40) %2) #6, !dbg !747
  ret void, !dbg !747
}

; Function Attrs: noinline uwtable
define linkonce_odr dso_local void @_ZThn16_N2DD13hh_v_00000001Ev(%class.DD* noundef %this) unnamed_addr #5 comdat align 2 !dbg !748 {
entry:
  %0 = bitcast %class.DD* %this to i8*, !dbg !749
  %1 = getelementptr inbounds i8, i8* %0, i64 -16, !dbg !749
  %2 = bitcast i8* %1 to %class.DD*, !dbg !749
  tail call void @_ZN2DD13hh_v_00000001Ev(%class.DD* noundef nonnull align 8 dereferenceable(40) %2) #6, !dbg !749
  ret void, !dbg !749
}

; Function Attrs: noinline uwtable
define linkonce_odr dso_local void @_ZThn16_N2DD13hh_v_00000002Ev(%class.DD* noundef %this) unnamed_addr #5 comdat align 2 !dbg !750 {
entry:
  %0 = bitcast %class.DD* %this to i8*, !dbg !751
  %1 = getelementptr inbounds i8, i8* %0, i64 -16, !dbg !751
  %2 = bitcast i8* %1 to %class.DD*, !dbg !751
  tail call void @_ZN2DD13hh_v_00000002Ev(%class.DD* noundef nonnull align 8 dereferenceable(40) %2) #6, !dbg !751
  ret void, !dbg !751
}

; Function Attrs: noinline uwtable
define linkonce_odr dso_local void @_ZThn16_N2DD13hh_v_00000003Ev(%class.DD* noundef %this) unnamed_addr #5 comdat align 2 !dbg !752 {
entry:
  %0 = bitcast %class.DD* %this to i8*, !dbg !753
  %1 = getelementptr inbounds i8, i8* %0, i64 -16, !dbg !753
  %2 = bitcast i8* %1 to %class.DD*, !dbg !753
  tail call void @_ZN2DD13hh_v_00000003Ev(%class.DD* noundef nonnull align 8 dereferenceable(40) %2) #6, !dbg !753
  ret void, !dbg !753
}

; Function Attrs: noinline uwtable
define linkonce_odr dso_local void @_ZThn16_N2DD13hh_v_00000004Ev(%class.DD* noundef %this) unnamed_addr #5 comdat align 2 !dbg !754 {
entry:
  %0 = bitcast %class.DD* %this to i8*, !dbg !755
  %1 = getelementptr inbounds i8, i8* %0, i64 -16, !dbg !755
  %2 = bitcast i8* %1 to %class.DD*, !dbg !755
  tail call void @_ZN2DD13hh_v_00000004Ev(%class.DD* noundef nonnull align 8 dereferenceable(40) %2) #6, !dbg !755
  ret void, !dbg !755
}

; Function Attrs: noinline uwtable
define linkonce_odr dso_local void @_ZThn16_N2DD13hh_v_00000005Ev(%class.DD* noundef %this) unnamed_addr #5 comdat align 2 !dbg !756 {
entry:
  %0 = bitcast %class.DD* %this to i8*, !dbg !757
  %1 = getelementptr inbounds i8, i8* %0, i64 -16, !dbg !757
  %2 = bitcast i8* %1 to %class.DD*, !dbg !757
  tail call void @_ZN2DD13hh_v_00000005Ev(%class.DD* noundef nonnull align 8 dereferenceable(40) %2) #6, !dbg !757
  ret void, !dbg !757
}

; Function Attrs: mustprogress noinline nounwind uwtable
define linkonce_odr dso_local void @_ZN2CC13hh_v_00000006Ev(%class.CC* noundef nonnull align 8 dereferenceable(16) %this) unnamed_addr #4 comdat align 2 !dbg !758 {
entry:
  call void @llvm.dbg.value(metadata %class.CC* %this, metadata !759, metadata !DIExpression()), !dbg !760
  ret void, !dbg !761
}

; Function Attrs: mustprogress noinline nounwind uwtable
define linkonce_odr dso_local void @_ZN2CC13hh_v_00000007Ev(%class.CC* noundef nonnull align 8 dereferenceable(16) %this) unnamed_addr #4 comdat align 2 !dbg !762 {
entry:
  call void @llvm.dbg.value(metadata %class.CC* %this, metadata !763, metadata !DIExpression()), !dbg !764
  ret void, !dbg !765
}

; Function Attrs: mustprogress noinline nounwind uwtable
define linkonce_odr dso_local void @_ZN2CC13hh_v_00000008Ev(%class.CC* noundef nonnull align 8 dereferenceable(16) %this) unnamed_addr #4 comdat align 2 !dbg !766 {
entry:
  call void @llvm.dbg.value(metadata %class.CC* %this, metadata !767, metadata !DIExpression()), !dbg !768
  ret void, !dbg !769
}

; Function Attrs: mustprogress noinline nounwind uwtable
define linkonce_odr dso_local void @_ZN2CC13hh_v_00000009Ev(%class.CC* noundef nonnull align 8 dereferenceable(16) %this) unnamed_addr #4 comdat align 2 !dbg !770 {
entry:
  call void @llvm.dbg.value(metadata %class.CC* %this, metadata !771, metadata !DIExpression()), !dbg !772
  ret void, !dbg !773
}

; Function Attrs: mustprogress noinline nounwind uwtable
define linkonce_odr dso_local void @_ZN2CC13hh_v_00000010Ev(%class.CC* noundef nonnull align 8 dereferenceable(16) %this) unnamed_addr #4 comdat align 2 !dbg !774 {
entry:
  call void @llvm.dbg.value(metadata %class.CC* %this, metadata !775, metadata !DIExpression()), !dbg !776
  ret void, !dbg !777
}

; Function Attrs: mustprogress noinline nounwind uwtable
define linkonce_odr dso_local void @_ZN2CC13hh_v_00000011Ev(%class.CC* noundef nonnull align 8 dereferenceable(16) %this) unnamed_addr #4 comdat align 2 !dbg !778 {
entry:
  call void @llvm.dbg.value(metadata %class.CC* %this, metadata !779, metadata !DIExpression()), !dbg !780
  ret void, !dbg !781
}

; Function Attrs: mustprogress noinline nounwind uwtable
define linkonce_odr dso_local void @_ZN2CC13hh_v_00000012Ev(%class.CC* noundef nonnull align 8 dereferenceable(16) %this) unnamed_addr #4 comdat align 2 !dbg !782 {
entry:
  call void @llvm.dbg.value(metadata %class.CC* %this, metadata !783, metadata !DIExpression()), !dbg !784
  ret void, !dbg !785
}

; Function Attrs: mustprogress noinline nounwind uwtable
define linkonce_odr dso_local void @_ZN2CC13hh_v_00000013Ev(%class.CC* noundef nonnull align 8 dereferenceable(16) %this) unnamed_addr #4 comdat align 2 !dbg !786 {
entry:
  call void @llvm.dbg.value(metadata %class.CC* %this, metadata !787, metadata !DIExpression()), !dbg !788
  ret void, !dbg !789
}

; Function Attrs: mustprogress noinline nounwind uwtable
define linkonce_odr dso_local void @_ZN2CC13hh_v_00000014Ev(%class.CC* noundef nonnull align 8 dereferenceable(16) %this) unnamed_addr #4 comdat align 2 !dbg !790 {
entry:
  call void @llvm.dbg.value(metadata %class.CC* %this, metadata !791, metadata !DIExpression()), !dbg !792
  ret void, !dbg !793
}

; Function Attrs: mustprogress noinline nounwind uwtable
define linkonce_odr dso_local void @_ZN2CC13hh_v_00000015Ev(%class.CC* noundef nonnull align 8 dereferenceable(16) %this) unnamed_addr #4 comdat align 2 !dbg !794 {
entry:
  call void @llvm.dbg.value(metadata %class.CC* %this, metadata !795, metadata !DIExpression()), !dbg !796
  ret void, !dbg !797
}

; Function Attrs: mustprogress noinline nounwind uwtable
define linkonce_odr dso_local void @_ZN2CC13hh_v_00000016Ev(%class.CC* noundef nonnull align 8 dereferenceable(16) %this) unnamed_addr #4 comdat align 2 !dbg !798 {
entry:
  call void @llvm.dbg.value(metadata %class.CC* %this, metadata !799, metadata !DIExpression()), !dbg !800
  ret void, !dbg !801
}

; Function Attrs: mustprogress noinline nounwind uwtable
define linkonce_odr dso_local void @_ZN2CC13hh_v_00000017Ev(%class.CC* noundef nonnull align 8 dereferenceable(16) %this) unnamed_addr #4 comdat align 2 !dbg !802 {
entry:
  call void @llvm.dbg.value(metadata %class.CC* %this, metadata !803, metadata !DIExpression()), !dbg !804
  ret void, !dbg !805
}

; Function Attrs: mustprogress noinline nounwind uwtable
define linkonce_odr dso_local void @_ZN2CC13hh_v_00000018Ev(%class.CC* noundef nonnull align 8 dereferenceable(16) %this) unnamed_addr #4 comdat align 2 !dbg !806 {
entry:
  call void @llvm.dbg.value(metadata %class.CC* %this, metadata !807, metadata !DIExpression()), !dbg !808
  ret void, !dbg !809
}

; Function Attrs: mustprogress noinline nounwind uwtable
define linkonce_odr dso_local void @_ZN2CC13hh_v_00000019Ev(%class.CC* noundef nonnull align 8 dereferenceable(16) %this) unnamed_addr #4 comdat align 2 !dbg !810 {
entry:
  call void @llvm.dbg.value(metadata %class.CC* %this, metadata !811, metadata !DIExpression()), !dbg !812
  ret void, !dbg !813
}

; Function Attrs: mustprogress noinline nounwind uwtable
define linkonce_odr dso_local void @_ZN2CC13hh_v_00000020Ev(%class.CC* noundef nonnull align 8 dereferenceable(16) %this) unnamed_addr #4 comdat align 2 !dbg !814 {
entry:
  call void @llvm.dbg.value(metadata %class.CC* %this, metadata !815, metadata !DIExpression()), !dbg !816
  ret void, !dbg !817
}

; Function Attrs: mustprogress noinline nounwind uwtable
define linkonce_odr dso_local void @_ZN2CC13hh_v_00000021Ev(%class.CC* noundef nonnull align 8 dereferenceable(16) %this) unnamed_addr #4 comdat align 2 !dbg !818 {
entry:
  call void @llvm.dbg.value(metadata %class.CC* %this, metadata !819, metadata !DIExpression()), !dbg !820
  ret void, !dbg !821
}

; Function Attrs: mustprogress noinline nounwind uwtable
define linkonce_odr dso_local void @_ZN2CC13hh_v_00000022Ev(%class.CC* noundef nonnull align 8 dereferenceable(16) %this) unnamed_addr #4 comdat align 2 !dbg !822 {
entry:
  call void @llvm.dbg.value(metadata %class.CC* %this, metadata !823, metadata !DIExpression()), !dbg !824
  ret void, !dbg !825
}

; Function Attrs: mustprogress noinline nounwind uwtable
define linkonce_odr dso_local void @_ZN2CC13hh_v_00000023Ev(%class.CC* noundef nonnull align 8 dereferenceable(16) %this) unnamed_addr #4 comdat align 2 !dbg !826 {
entry:
  call void @llvm.dbg.value(metadata %class.CC* %this, metadata !827, metadata !DIExpression()), !dbg !828
  ret void, !dbg !829
}

; Function Attrs: mustprogress noinline nounwind uwtable
define linkonce_odr dso_local void @_ZN2CC13hh_v_00000024Ev(%class.CC* noundef nonnull align 8 dereferenceable(16) %this) unnamed_addr #4 comdat align 2 !dbg !830 {
entry:
  call void @llvm.dbg.value(metadata %class.CC* %this, metadata !831, metadata !DIExpression()), !dbg !832
  ret void, !dbg !833
}

; Function Attrs: mustprogress noinline nounwind uwtable
define linkonce_odr dso_local void @_ZN2CC13hh_v_00000025Ev(%class.CC* noundef nonnull align 8 dereferenceable(16) %this) unnamed_addr #4 comdat align 2 !dbg !834 {
entry:
  call void @llvm.dbg.value(metadata %class.CC* %this, metadata !835, metadata !DIExpression()), !dbg !836
  ret void, !dbg !837
}

; Function Attrs: mustprogress noinline nounwind uwtable
define linkonce_odr dso_local void @_ZN2CC13hh_v_00000026Ev(%class.CC* noundef nonnull align 8 dereferenceable(16) %this) unnamed_addr #4 comdat align 2 !dbg !838 {
entry:
  call void @llvm.dbg.value(metadata %class.CC* %this, metadata !839, metadata !DIExpression()), !dbg !840
  ret void, !dbg !841
}

; Function Attrs: mustprogress noinline nounwind uwtable
define linkonce_odr dso_local void @_ZN2CC13hh_v_00000027Ev(%class.CC* noundef nonnull align 8 dereferenceable(16) %this) unnamed_addr #4 comdat align 2 !dbg !842 {
entry:
  call void @llvm.dbg.value(metadata %class.CC* %this, metadata !843, metadata !DIExpression()), !dbg !844
  ret void, !dbg !845
}

; Function Attrs: mustprogress noinline nounwind uwtable
define linkonce_odr dso_local void @_ZN2CC13hh_v_00000028Ev(%class.CC* noundef nonnull align 8 dereferenceable(16) %this) unnamed_addr #4 comdat align 2 !dbg !846 {
entry:
  call void @llvm.dbg.value(metadata %class.CC* %this, metadata !847, metadata !DIExpression()), !dbg !848
  ret void, !dbg !849
}

; Function Attrs: mustprogress noinline nounwind uwtable
define linkonce_odr dso_local void @_ZN2CC13hh_v_00000029Ev(%class.CC* noundef nonnull align 8 dereferenceable(16) %this) unnamed_addr #4 comdat align 2 !dbg !850 {
entry:
  call void @llvm.dbg.value(metadata %class.CC* %this, metadata !851, metadata !DIExpression()), !dbg !852
  ret void, !dbg !853
}

; Function Attrs: noinline uwtable
define linkonce_odr dso_local void @_ZTv0_n24_N2DD13kk_v_00000000Ev(%class.DD* noundef %this) unnamed_addr #5 comdat align 2 !dbg !854 {
entry:
  %0 = bitcast %class.DD* %this to i8*, !dbg !855
  %1 = bitcast i8* %0 to i8**, !dbg !855
  %2 = load i8*, i8** %1, align 8, !dbg !855
  %3 = getelementptr inbounds i8, i8* %2, i64 -24, !dbg !855
  %4 = bitcast i8* %3 to i64*, !dbg !855
  %5 = load i64, i64* %4, align 8, !dbg !855
  %6 = getelementptr inbounds i8, i8* %0, i64 %5, !dbg !855
  %7 = bitcast i8* %6 to %class.DD*, !dbg !855
  tail call void @_ZN2DD13kk_v_00000000Ev(%class.DD* noundef nonnull align 8 dereferenceable(40) %7) #6, !dbg !855
  ret void, !dbg !855
}

; Function Attrs: noinline uwtable
define linkonce_odr dso_local void @_ZTv0_n32_N2DD13kk_v_00000001Ev(%class.DD* noundef %this) unnamed_addr #5 comdat align 2 !dbg !856 {
entry:
  %0 = bitcast %class.DD* %this to i8*, !dbg !857
  %1 = bitcast i8* %0 to i8**, !dbg !857
  %2 = load i8*, i8** %1, align 8, !dbg !857
  %3 = getelementptr inbounds i8, i8* %2, i64 -32, !dbg !857
  %4 = bitcast i8* %3 to i64*, !dbg !857
  %5 = load i64, i64* %4, align 8, !dbg !857
  %6 = getelementptr inbounds i8, i8* %0, i64 %5, !dbg !857
  %7 = bitcast i8* %6 to %class.DD*, !dbg !857
  tail call void @_ZN2DD13kk_v_00000001Ev(%class.DD* noundef nonnull align 8 dereferenceable(40) %7) #6, !dbg !857
  ret void, !dbg !857
}

; Function Attrs: noinline uwtable
define linkonce_odr dso_local void @_ZTv0_n40_N2DD13kk_v_00000002Ev(%class.DD* noundef %this) unnamed_addr #5 comdat align 2 !dbg !858 {
entry:
  %0 = bitcast %class.DD* %this to i8*, !dbg !859
  %1 = bitcast i8* %0 to i8**, !dbg !859
  %2 = load i8*, i8** %1, align 8, !dbg !859
  %3 = getelementptr inbounds i8, i8* %2, i64 -40, !dbg !859
  %4 = bitcast i8* %3 to i64*, !dbg !859
  %5 = load i64, i64* %4, align 8, !dbg !859
  %6 = getelementptr inbounds i8, i8* %0, i64 %5, !dbg !859
  %7 = bitcast i8* %6 to %class.DD*, !dbg !859
  tail call void @_ZN2DD13kk_v_00000002Ev(%class.DD* noundef nonnull align 8 dereferenceable(40) %7) #6, !dbg !859
  ret void, !dbg !859
}

; Function Attrs: noinline uwtable
define linkonce_odr dso_local void @_ZTv0_n48_N2DD13kk_v_00000003Ev(%class.DD* noundef %this) unnamed_addr #5 comdat align 2 !dbg !860 {
entry:
  %0 = bitcast %class.DD* %this to i8*, !dbg !861
  %1 = bitcast i8* %0 to i8**, !dbg !861
  %2 = load i8*, i8** %1, align 8, !dbg !861
  %3 = getelementptr inbounds i8, i8* %2, i64 -48, !dbg !861
  %4 = bitcast i8* %3 to i64*, !dbg !861
  %5 = load i64, i64* %4, align 8, !dbg !861
  %6 = getelementptr inbounds i8, i8* %0, i64 %5, !dbg !861
  %7 = bitcast i8* %6 to %class.DD*, !dbg !861
  tail call void @_ZN2DD13kk_v_00000003Ev(%class.DD* noundef nonnull align 8 dereferenceable(40) %7) #6, !dbg !861
  ret void, !dbg !861
}

; Function Attrs: noinline uwtable
define linkonce_odr dso_local void @_ZTv0_n56_N2DD13kk_v_00000004Ev(%class.DD* noundef %this) unnamed_addr #5 comdat align 2 !dbg !862 {
entry:
  %0 = bitcast %class.DD* %this to i8*, !dbg !863
  %1 = bitcast i8* %0 to i8**, !dbg !863
  %2 = load i8*, i8** %1, align 8, !dbg !863
  %3 = getelementptr inbounds i8, i8* %2, i64 -56, !dbg !863
  %4 = bitcast i8* %3 to i64*, !dbg !863
  %5 = load i64, i64* %4, align 8, !dbg !863
  %6 = getelementptr inbounds i8, i8* %0, i64 %5, !dbg !863
  %7 = bitcast i8* %6 to %class.DD*, !dbg !863
  tail call void @_ZN2DD13kk_v_00000004Ev(%class.DD* noundef nonnull align 8 dereferenceable(40) %7) #6, !dbg !863
  ret void, !dbg !863
}

; Function Attrs: noinline uwtable
define linkonce_odr dso_local void @_ZTv0_n64_N2DD13kk_v_00000005Ev(%class.DD* noundef %this) unnamed_addr #5 comdat align 2 !dbg !864 {
entry:
  %0 = bitcast %class.DD* %this to i8*, !dbg !865
  %1 = bitcast i8* %0 to i8**, !dbg !865
  %2 = load i8*, i8** %1, align 8, !dbg !865
  %3 = getelementptr inbounds i8, i8* %2, i64 -64, !dbg !865
  %4 = bitcast i8* %3 to i64*, !dbg !865
  %5 = load i64, i64* %4, align 8, !dbg !865
  %6 = getelementptr inbounds i8, i8* %0, i64 %5, !dbg !865
  %7 = bitcast i8* %6 to %class.DD*, !dbg !865
  tail call void @_ZN2DD13kk_v_00000005Ev(%class.DD* noundef nonnull align 8 dereferenceable(40) %7) #6, !dbg !865
  ret void, !dbg !865
}

; Function Attrs: noinline uwtable
define linkonce_odr dso_local void @_ZTv0_n72_N2DD13kk_v_00000006Ev(%class.DD* noundef %this) unnamed_addr #5 comdat align 2 !dbg !866 {
entry:
  %0 = bitcast %class.DD* %this to i8*, !dbg !867
  %1 = bitcast i8* %0 to i8**, !dbg !867
  %2 = load i8*, i8** %1, align 8, !dbg !867
  %3 = getelementptr inbounds i8, i8* %2, i64 -72, !dbg !867
  %4 = bitcast i8* %3 to i64*, !dbg !867
  %5 = load i64, i64* %4, align 8, !dbg !867
  %6 = getelementptr inbounds i8, i8* %0, i64 %5, !dbg !867
  %7 = bitcast i8* %6 to %class.DD*, !dbg !867
  tail call void @_ZN2DD13kk_v_00000006Ev(%class.DD* noundef nonnull align 8 dereferenceable(40) %7) #6, !dbg !867
  ret void, !dbg !867
}

; Function Attrs: noinline uwtable
define linkonce_odr dso_local void @_ZTv0_n80_N2DD13kk_v_00000007Ev(%class.DD* noundef %this) unnamed_addr #5 comdat align 2 !dbg !868 {
entry:
  %0 = bitcast %class.DD* %this to i8*, !dbg !869
  %1 = bitcast i8* %0 to i8**, !dbg !869
  %2 = load i8*, i8** %1, align 8, !dbg !869
  %3 = getelementptr inbounds i8, i8* %2, i64 -80, !dbg !869
  %4 = bitcast i8* %3 to i64*, !dbg !869
  %5 = load i64, i64* %4, align 8, !dbg !869
  %6 = getelementptr inbounds i8, i8* %0, i64 %5, !dbg !869
  %7 = bitcast i8* %6 to %class.DD*, !dbg !869
  tail call void @_ZN2DD13kk_v_00000007Ev(%class.DD* noundef nonnull align 8 dereferenceable(40) %7) #6, !dbg !869
  ret void, !dbg !869
}

; Function Attrs: noinline uwtable
define linkonce_odr dso_local void @_ZTv0_n88_N2DD13kk_v_00000008Ev(%class.DD* noundef %this) unnamed_addr #5 comdat align 2 !dbg !870 {
entry:
  %0 = bitcast %class.DD* %this to i8*, !dbg !871
  %1 = bitcast i8* %0 to i8**, !dbg !871
  %2 = load i8*, i8** %1, align 8, !dbg !871
  %3 = getelementptr inbounds i8, i8* %2, i64 -88, !dbg !871
  %4 = bitcast i8* %3 to i64*, !dbg !871
  %5 = load i64, i64* %4, align 8, !dbg !871
  %6 = getelementptr inbounds i8, i8* %0, i64 %5, !dbg !871
  %7 = bitcast i8* %6 to %class.DD*, !dbg !871
  tail call void @_ZN2DD13kk_v_00000008Ev(%class.DD* noundef nonnull align 8 dereferenceable(40) %7) #6, !dbg !871
  ret void, !dbg !871
}

; Function Attrs: noinline uwtable
define linkonce_odr dso_local void @_ZTv0_n96_N2DD13kk_v_00000009Ev(%class.DD* noundef %this) unnamed_addr #5 comdat align 2 !dbg !872 {
entry:
  %0 = bitcast %class.DD* %this to i8*, !dbg !873
  %1 = bitcast i8* %0 to i8**, !dbg !873
  %2 = load i8*, i8** %1, align 8, !dbg !873
  %3 = getelementptr inbounds i8, i8* %2, i64 -96, !dbg !873
  %4 = bitcast i8* %3 to i64*, !dbg !873
  %5 = load i64, i64* %4, align 8, !dbg !873
  %6 = getelementptr inbounds i8, i8* %0, i64 %5, !dbg !873
  %7 = bitcast i8* %6 to %class.DD*, !dbg !873
  tail call void @_ZN2DD13kk_v_00000009Ev(%class.DD* noundef nonnull align 8 dereferenceable(40) %7) #6, !dbg !873
  ret void, !dbg !873
}

; Function Attrs: noinline uwtable
define linkonce_odr dso_local void @_ZTv0_n104_N2DD13kk_v_00000010Ev(%class.DD* noundef %this) unnamed_addr #5 comdat align 2 !dbg !874 {
entry:
  %0 = bitcast %class.DD* %this to i8*, !dbg !875
  %1 = bitcast i8* %0 to i8**, !dbg !875
  %2 = load i8*, i8** %1, align 8, !dbg !875
  %3 = getelementptr inbounds i8, i8* %2, i64 -104, !dbg !875
  %4 = bitcast i8* %3 to i64*, !dbg !875
  %5 = load i64, i64* %4, align 8, !dbg !875
  %6 = getelementptr inbounds i8, i8* %0, i64 %5, !dbg !875
  %7 = bitcast i8* %6 to %class.DD*, !dbg !875
  tail call void @_ZN2DD13kk_v_00000010Ev(%class.DD* noundef nonnull align 8 dereferenceable(40) %7) #6, !dbg !875
  ret void, !dbg !875
}

; Function Attrs: noinline uwtable
define linkonce_odr dso_local void @_ZTv0_n112_N2DD13kk_v_00000011Ev(%class.DD* noundef %this) unnamed_addr #5 comdat align 2 !dbg !876 {
entry:
  %0 = bitcast %class.DD* %this to i8*, !dbg !877
  %1 = bitcast i8* %0 to i8**, !dbg !877
  %2 = load i8*, i8** %1, align 8, !dbg !877
  %3 = getelementptr inbounds i8, i8* %2, i64 -112, !dbg !877
  %4 = bitcast i8* %3 to i64*, !dbg !877
  %5 = load i64, i64* %4, align 8, !dbg !877
  %6 = getelementptr inbounds i8, i8* %0, i64 %5, !dbg !877
  %7 = bitcast i8* %6 to %class.DD*, !dbg !877
  tail call void @_ZN2DD13kk_v_00000011Ev(%class.DD* noundef nonnull align 8 dereferenceable(40) %7) #6, !dbg !877
  ret void, !dbg !877
}

; Function Attrs: noinline uwtable
define linkonce_odr dso_local void @_ZTv0_n120_N2DD13kk_v_00000012Ev(%class.DD* noundef %this) unnamed_addr #5 comdat align 2 !dbg !878 {
entry:
  %0 = bitcast %class.DD* %this to i8*, !dbg !879
  %1 = bitcast i8* %0 to i8**, !dbg !879
  %2 = load i8*, i8** %1, align 8, !dbg !879
  %3 = getelementptr inbounds i8, i8* %2, i64 -120, !dbg !879
  %4 = bitcast i8* %3 to i64*, !dbg !879
  %5 = load i64, i64* %4, align 8, !dbg !879
  %6 = getelementptr inbounds i8, i8* %0, i64 %5, !dbg !879
  %7 = bitcast i8* %6 to %class.DD*, !dbg !879
  tail call void @_ZN2DD13kk_v_00000012Ev(%class.DD* noundef nonnull align 8 dereferenceable(40) %7) #6, !dbg !879
  ret void, !dbg !879
}

; Function Attrs: noinline uwtable
define linkonce_odr dso_local void @_ZTv0_n128_N2DD13kk_v_00000013Ev(%class.DD* noundef %this) unnamed_addr #5 comdat align 2 !dbg !880 {
entry:
  %0 = bitcast %class.DD* %this to i8*, !dbg !881
  %1 = bitcast i8* %0 to i8**, !dbg !881
  %2 = load i8*, i8** %1, align 8, !dbg !881
  %3 = getelementptr inbounds i8, i8* %2, i64 -128, !dbg !881
  %4 = bitcast i8* %3 to i64*, !dbg !881
  %5 = load i64, i64* %4, align 8, !dbg !881
  %6 = getelementptr inbounds i8, i8* %0, i64 %5, !dbg !881
  %7 = bitcast i8* %6 to %class.DD*, !dbg !881
  tail call void @_ZN2DD13kk_v_00000013Ev(%class.DD* noundef nonnull align 8 dereferenceable(40) %7) #6, !dbg !881
  ret void, !dbg !881
}

; Function Attrs: noinline uwtable
define linkonce_odr dso_local void @_ZTv0_n136_N2DD13kk_v_00000014Ev(%class.DD* noundef %this) unnamed_addr #5 comdat align 2 !dbg !882 {
entry:
  %0 = bitcast %class.DD* %this to i8*, !dbg !883
  %1 = bitcast i8* %0 to i8**, !dbg !883
  %2 = load i8*, i8** %1, align 8, !dbg !883
  %3 = getelementptr inbounds i8, i8* %2, i64 -136, !dbg !883
  %4 = bitcast i8* %3 to i64*, !dbg !883
  %5 = load i64, i64* %4, align 8, !dbg !883
  %6 = getelementptr inbounds i8, i8* %0, i64 %5, !dbg !883
  %7 = bitcast i8* %6 to %class.DD*, !dbg !883
  tail call void @_ZN2DD13kk_v_00000014Ev(%class.DD* noundef nonnull align 8 dereferenceable(40) %7) #6, !dbg !883
  ret void, !dbg !883
}

; Function Attrs: noinline uwtable
define linkonce_odr dso_local void @_ZTv0_n144_N2DD13kk_v_00000015Ev(%class.DD* noundef %this) unnamed_addr #5 comdat align 2 !dbg !884 {
entry:
  %0 = bitcast %class.DD* %this to i8*, !dbg !885
  %1 = bitcast i8* %0 to i8**, !dbg !885
  %2 = load i8*, i8** %1, align 8, !dbg !885
  %3 = getelementptr inbounds i8, i8* %2, i64 -144, !dbg !885
  %4 = bitcast i8* %3 to i64*, !dbg !885
  %5 = load i64, i64* %4, align 8, !dbg !885
  %6 = getelementptr inbounds i8, i8* %0, i64 %5, !dbg !885
  %7 = bitcast i8* %6 to %class.DD*, !dbg !885
  tail call void @_ZN2DD13kk_v_00000015Ev(%class.DD* noundef nonnull align 8 dereferenceable(40) %7) #6, !dbg !885
  ret void, !dbg !885
}

; Function Attrs: noinline uwtable
define linkonce_odr dso_local void @_ZTv0_n152_N2DD13kk_v_00000016Ev(%class.DD* noundef %this) unnamed_addr #5 comdat align 2 !dbg !886 {
entry:
  %0 = bitcast %class.DD* %this to i8*, !dbg !887
  %1 = bitcast i8* %0 to i8**, !dbg !887
  %2 = load i8*, i8** %1, align 8, !dbg !887
  %3 = getelementptr inbounds i8, i8* %2, i64 -152, !dbg !887
  %4 = bitcast i8* %3 to i64*, !dbg !887
  %5 = load i64, i64* %4, align 8, !dbg !887
  %6 = getelementptr inbounds i8, i8* %0, i64 %5, !dbg !887
  %7 = bitcast i8* %6 to %class.DD*, !dbg !887
  tail call void @_ZN2DD13kk_v_00000016Ev(%class.DD* noundef nonnull align 8 dereferenceable(40) %7) #6, !dbg !887
  ret void, !dbg !887
}

; Function Attrs: noinline uwtable
define linkonce_odr dso_local void @_ZTv0_n160_N2DD13kk_v_00000017Ev(%class.DD* noundef %this) unnamed_addr #5 comdat align 2 !dbg !888 {
entry:
  %0 = bitcast %class.DD* %this to i8*, !dbg !889
  %1 = bitcast i8* %0 to i8**, !dbg !889
  %2 = load i8*, i8** %1, align 8, !dbg !889
  %3 = getelementptr inbounds i8, i8* %2, i64 -160, !dbg !889
  %4 = bitcast i8* %3 to i64*, !dbg !889
  %5 = load i64, i64* %4, align 8, !dbg !889
  %6 = getelementptr inbounds i8, i8* %0, i64 %5, !dbg !889
  %7 = bitcast i8* %6 to %class.DD*, !dbg !889
  tail call void @_ZN2DD13kk_v_00000017Ev(%class.DD* noundef nonnull align 8 dereferenceable(40) %7) #6, !dbg !889
  ret void, !dbg !889
}

; Function Attrs: noinline uwtable
define linkonce_odr dso_local void @_ZTv0_n168_N2DD13kk_v_00000018Ev(%class.DD* noundef %this) unnamed_addr #5 comdat align 2 !dbg !890 {
entry:
  %0 = bitcast %class.DD* %this to i8*, !dbg !891
  %1 = bitcast i8* %0 to i8**, !dbg !891
  %2 = load i8*, i8** %1, align 8, !dbg !891
  %3 = getelementptr inbounds i8, i8* %2, i64 -168, !dbg !891
  %4 = bitcast i8* %3 to i64*, !dbg !891
  %5 = load i64, i64* %4, align 8, !dbg !891
  %6 = getelementptr inbounds i8, i8* %0, i64 %5, !dbg !891
  %7 = bitcast i8* %6 to %class.DD*, !dbg !891
  tail call void @_ZN2DD13kk_v_00000018Ev(%class.DD* noundef nonnull align 8 dereferenceable(40) %7) #6, !dbg !891
  ret void, !dbg !891
}

; Function Attrs: noinline uwtable
define linkonce_odr dso_local void @_ZTv0_n176_N2DD13kk_v_00000019Ev(%class.DD* noundef %this) unnamed_addr #5 comdat align 2 !dbg !892 {
entry:
  %0 = bitcast %class.DD* %this to i8*, !dbg !893
  %1 = bitcast i8* %0 to i8**, !dbg !893
  %2 = load i8*, i8** %1, align 8, !dbg !893
  %3 = getelementptr inbounds i8, i8* %2, i64 -176, !dbg !893
  %4 = bitcast i8* %3 to i64*, !dbg !893
  %5 = load i64, i64* %4, align 8, !dbg !893
  %6 = getelementptr inbounds i8, i8* %0, i64 %5, !dbg !893
  %7 = bitcast i8* %6 to %class.DD*, !dbg !893
  tail call void @_ZN2DD13kk_v_00000019Ev(%class.DD* noundef nonnull align 8 dereferenceable(40) %7) #6, !dbg !893
  ret void, !dbg !893
}

; Function Attrs: noinline uwtable
define linkonce_odr dso_local void @_ZTv0_n184_N2DD13kk_v_00000020Ev(%class.DD* noundef %this) unnamed_addr #5 comdat align 2 !dbg !894 {
entry:
  %0 = bitcast %class.DD* %this to i8*, !dbg !895
  %1 = bitcast i8* %0 to i8**, !dbg !895
  %2 = load i8*, i8** %1, align 8, !dbg !895
  %3 = getelementptr inbounds i8, i8* %2, i64 -184, !dbg !895
  %4 = bitcast i8* %3 to i64*, !dbg !895
  %5 = load i64, i64* %4, align 8, !dbg !895
  %6 = getelementptr inbounds i8, i8* %0, i64 %5, !dbg !895
  %7 = bitcast i8* %6 to %class.DD*, !dbg !895
  tail call void @_ZN2DD13kk_v_00000020Ev(%class.DD* noundef nonnull align 8 dereferenceable(40) %7) #6, !dbg !895
  ret void, !dbg !895
}

; Function Attrs: noinline uwtable
define linkonce_odr dso_local void @_ZTv0_n192_N2DD13kk_v_00000021Ev(%class.DD* noundef %this) unnamed_addr #5 comdat align 2 !dbg !896 {
entry:
  %0 = bitcast %class.DD* %this to i8*, !dbg !897
  %1 = bitcast i8* %0 to i8**, !dbg !897
  %2 = load i8*, i8** %1, align 8, !dbg !897
  %3 = getelementptr inbounds i8, i8* %2, i64 -192, !dbg !897
  %4 = bitcast i8* %3 to i64*, !dbg !897
  %5 = load i64, i64* %4, align 8, !dbg !897
  %6 = getelementptr inbounds i8, i8* %0, i64 %5, !dbg !897
  %7 = bitcast i8* %6 to %class.DD*, !dbg !897
  tail call void @_ZN2DD13kk_v_00000021Ev(%class.DD* noundef nonnull align 8 dereferenceable(40) %7) #6, !dbg !897
  ret void, !dbg !897
}

; Function Attrs: noinline uwtable
define linkonce_odr dso_local void @_ZTv0_n200_N2DD13kk_v_00000022Ev(%class.DD* noundef %this) unnamed_addr #5 comdat align 2 !dbg !898 {
entry:
  %0 = bitcast %class.DD* %this to i8*, !dbg !899
  %1 = bitcast i8* %0 to i8**, !dbg !899
  %2 = load i8*, i8** %1, align 8, !dbg !899
  %3 = getelementptr inbounds i8, i8* %2, i64 -200, !dbg !899
  %4 = bitcast i8* %3 to i64*, !dbg !899
  %5 = load i64, i64* %4, align 8, !dbg !899
  %6 = getelementptr inbounds i8, i8* %0, i64 %5, !dbg !899
  %7 = bitcast i8* %6 to %class.DD*, !dbg !899
  tail call void @_ZN2DD13kk_v_00000022Ev(%class.DD* noundef nonnull align 8 dereferenceable(40) %7) #6, !dbg !899
  ret void, !dbg !899
}

; Function Attrs: noinline uwtable
define linkonce_odr dso_local void @_ZTv0_n208_N2DD13kk_v_00000023Ev(%class.DD* noundef %this) unnamed_addr #5 comdat align 2 !dbg !900 {
entry:
  %0 = bitcast %class.DD* %this to i8*, !dbg !901
  %1 = bitcast i8* %0 to i8**, !dbg !901
  %2 = load i8*, i8** %1, align 8, !dbg !901
  %3 = getelementptr inbounds i8, i8* %2, i64 -208, !dbg !901
  %4 = bitcast i8* %3 to i64*, !dbg !901
  %5 = load i64, i64* %4, align 8, !dbg !901
  %6 = getelementptr inbounds i8, i8* %0, i64 %5, !dbg !901
  %7 = bitcast i8* %6 to %class.DD*, !dbg !901
  tail call void @_ZN2DD13kk_v_00000023Ev(%class.DD* noundef nonnull align 8 dereferenceable(40) %7) #6, !dbg !901
  ret void, !dbg !901
}

; Function Attrs: noinline uwtable
define linkonce_odr dso_local void @_ZTv0_n216_N2DD13kk_v_00000024Ev(%class.DD* noundef %this) unnamed_addr #5 comdat align 2 !dbg !902 {
entry:
  %0 = bitcast %class.DD* %this to i8*, !dbg !903
  %1 = bitcast i8* %0 to i8**, !dbg !903
  %2 = load i8*, i8** %1, align 8, !dbg !903
  %3 = getelementptr inbounds i8, i8* %2, i64 -216, !dbg !903
  %4 = bitcast i8* %3 to i64*, !dbg !903
  %5 = load i64, i64* %4, align 8, !dbg !903
  %6 = getelementptr inbounds i8, i8* %0, i64 %5, !dbg !903
  %7 = bitcast i8* %6 to %class.DD*, !dbg !903
  tail call void @_ZN2DD13kk_v_00000024Ev(%class.DD* noundef nonnull align 8 dereferenceable(40) %7) #6, !dbg !903
  ret void, !dbg !903
}

; Function Attrs: noinline uwtable
define linkonce_odr dso_local void @_ZTv0_n224_N2DD13kk_v_00000025Ev(%class.DD* noundef %this) unnamed_addr #5 comdat align 2 !dbg !904 {
entry:
  %0 = bitcast %class.DD* %this to i8*, !dbg !905
  %1 = bitcast i8* %0 to i8**, !dbg !905
  %2 = load i8*, i8** %1, align 8, !dbg !905
  %3 = getelementptr inbounds i8, i8* %2, i64 -224, !dbg !905
  %4 = bitcast i8* %3 to i64*, !dbg !905
  %5 = load i64, i64* %4, align 8, !dbg !905
  %6 = getelementptr inbounds i8, i8* %0, i64 %5, !dbg !905
  %7 = bitcast i8* %6 to %class.DD*, !dbg !905
  tail call void @_ZN2DD13kk_v_00000025Ev(%class.DD* noundef nonnull align 8 dereferenceable(40) %7) #6, !dbg !905
  ret void, !dbg !905
}

; Function Attrs: mustprogress noinline nounwind uwtable
define linkonce_odr dso_local void @_ZN2AA13kk_v_00000026Ev(%class.AA* noundef nonnull align 8 dereferenceable(16) %this) unnamed_addr #4 comdat align 2 !dbg !906 {
entry:
  call void @llvm.dbg.value(metadata %class.AA* %this, metadata !907, metadata !DIExpression()), !dbg !908
  ret void, !dbg !909
}

; Function Attrs: mustprogress noinline nounwind uwtable
define linkonce_odr dso_local void @_ZN2AA13kk_v_00000027Ev(%class.AA* noundef nonnull align 8 dereferenceable(16) %this) unnamed_addr #4 comdat align 2 !dbg !910 {
entry:
  call void @llvm.dbg.value(metadata %class.AA* %this, metadata !911, metadata !DIExpression()), !dbg !912
  ret void, !dbg !913
}

; Function Attrs: mustprogress noinline nounwind uwtable
define linkonce_odr dso_local void @_ZN2AA13kk_v_00000028Ev(%class.AA* noundef nonnull align 8 dereferenceable(16) %this) unnamed_addr #4 comdat align 2 !dbg !914 {
entry:
  call void @llvm.dbg.value(metadata %class.AA* %this, metadata !915, metadata !DIExpression()), !dbg !916
  ret void, !dbg !917
}

; Function Attrs: mustprogress noinline nounwind uwtable
define linkonce_odr dso_local void @_ZN2AA13kk_v_00000029Ev(%class.AA* noundef nonnull align 8 dereferenceable(16) %this) unnamed_addr #4 comdat align 2 !dbg !918 {
entry:
  call void @llvm.dbg.value(metadata %class.AA* %this, metadata !919, metadata !DIExpression()), !dbg !920
  ret void, !dbg !921
}

; Function Attrs: mustprogress noinline nounwind uwtable
define linkonce_odr dso_local void @_ZN2CC13hh_v_00000000Ev(%class.CC* noundef nonnull align 8 dereferenceable(16) %this) unnamed_addr #4 comdat align 2 !dbg !922 {
entry:
  call void @llvm.dbg.value(metadata %class.CC* %this, metadata !923, metadata !DIExpression()), !dbg !924
  ret void, !dbg !925
}

; Function Attrs: mustprogress noinline nounwind uwtable
define linkonce_odr dso_local void @_ZN2CC13hh_v_00000001Ev(%class.CC* noundef nonnull align 8 dereferenceable(16) %this) unnamed_addr #4 comdat align 2 !dbg !926 {
entry:
  call void @llvm.dbg.value(metadata %class.CC* %this, metadata !927, metadata !DIExpression()), !dbg !928
  ret void, !dbg !929
}

; Function Attrs: mustprogress noinline nounwind uwtable
define linkonce_odr dso_local void @_ZN2CC13hh_v_00000002Ev(%class.CC* noundef nonnull align 8 dereferenceable(16) %this) unnamed_addr #4 comdat align 2 !dbg !930 {
entry:
  call void @llvm.dbg.value(metadata %class.CC* %this, metadata !931, metadata !DIExpression()), !dbg !932
  ret void, !dbg !933
}

; Function Attrs: mustprogress noinline nounwind uwtable
define linkonce_odr dso_local void @_ZN2CC13hh_v_00000003Ev(%class.CC* noundef nonnull align 8 dereferenceable(16) %this) unnamed_addr #4 comdat align 2 !dbg !934 {
entry:
  call void @llvm.dbg.value(metadata %class.CC* %this, metadata !935, metadata !DIExpression()), !dbg !936
  ret void, !dbg !937
}

; Function Attrs: mustprogress noinline nounwind uwtable
define linkonce_odr dso_local void @_ZN2CC13hh_v_00000004Ev(%class.CC* noundef nonnull align 8 dereferenceable(16) %this) unnamed_addr #4 comdat align 2 !dbg !938 {
entry:
  call void @llvm.dbg.value(metadata %class.CC* %this, metadata !939, metadata !DIExpression()), !dbg !940
  ret void, !dbg !941
}

; Function Attrs: mustprogress noinline nounwind uwtable
define linkonce_odr dso_local void @_ZN2CC13hh_v_00000005Ev(%class.CC* noundef nonnull align 8 dereferenceable(16) %this) unnamed_addr #4 comdat align 2 !dbg !942 {
entry:
  call void @llvm.dbg.value(metadata %class.CC* %this, metadata !943, metadata !DIExpression()), !dbg !944
  ret void, !dbg !945
}

; Function Attrs: mustprogress noinline nounwind uwtable
define linkonce_odr dso_local void @_ZN2AA13kk_v_00000000Ev(%class.AA* noundef nonnull align 8 dereferenceable(16) %this) unnamed_addr #4 comdat align 2 !dbg !946 {
entry:
  call void @llvm.dbg.value(metadata %class.AA* %this, metadata !947, metadata !DIExpression()), !dbg !948
  ret void, !dbg !949
}

; Function Attrs: mustprogress noinline nounwind uwtable
define linkonce_odr dso_local void @_ZN2AA13kk_v_00000001Ev(%class.AA* noundef nonnull align 8 dereferenceable(16) %this) unnamed_addr #4 comdat align 2 !dbg !950 {
entry:
  call void @llvm.dbg.value(metadata %class.AA* %this, metadata !951, metadata !DIExpression()), !dbg !952
  ret void, !dbg !953
}

; Function Attrs: mustprogress noinline nounwind uwtable
define linkonce_odr dso_local void @_ZN2AA13kk_v_00000002Ev(%class.AA* noundef nonnull align 8 dereferenceable(16) %this) unnamed_addr #4 comdat align 2 !dbg !954 {
entry:
  call void @llvm.dbg.value(metadata %class.AA* %this, metadata !955, metadata !DIExpression()), !dbg !956
  ret void, !dbg !957
}

; Function Attrs: mustprogress noinline nounwind uwtable
define linkonce_odr dso_local void @_ZN2AA13kk_v_00000003Ev(%class.AA* noundef nonnull align 8 dereferenceable(16) %this) unnamed_addr #4 comdat align 2 !dbg !958 {
entry:
  call void @llvm.dbg.value(metadata %class.AA* %this, metadata !959, metadata !DIExpression()), !dbg !960
  ret void, !dbg !961
}

; Function Attrs: mustprogress noinline nounwind uwtable
define linkonce_odr dso_local void @_ZN2AA13kk_v_00000004Ev(%class.AA* noundef nonnull align 8 dereferenceable(16) %this) unnamed_addr #4 comdat align 2 !dbg !962 {
entry:
  call void @llvm.dbg.value(metadata %class.AA* %this, metadata !963, metadata !DIExpression()), !dbg !964
  ret void, !dbg !965
}

; Function Attrs: mustprogress noinline nounwind uwtable
define linkonce_odr dso_local void @_ZN2AA13kk_v_00000005Ev(%class.AA* noundef nonnull align 8 dereferenceable(16) %this) unnamed_addr #4 comdat align 2 !dbg !966 {
entry:
  call void @llvm.dbg.value(metadata %class.AA* %this, metadata !967, metadata !DIExpression()), !dbg !968
  ret void, !dbg !969
}

; Function Attrs: mustprogress noinline nounwind uwtable
define linkonce_odr dso_local void @_ZN2AA13kk_v_00000006Ev(%class.AA* noundef nonnull align 8 dereferenceable(16) %this) unnamed_addr #4 comdat align 2 !dbg !970 {
entry:
  call void @llvm.dbg.value(metadata %class.AA* %this, metadata !971, metadata !DIExpression()), !dbg !972
  ret void, !dbg !973
}

; Function Attrs: mustprogress noinline nounwind uwtable
define linkonce_odr dso_local void @_ZN2AA13kk_v_00000007Ev(%class.AA* noundef nonnull align 8 dereferenceable(16) %this) unnamed_addr #4 comdat align 2 !dbg !974 {
entry:
  call void @llvm.dbg.value(metadata %class.AA* %this, metadata !975, metadata !DIExpression()), !dbg !976
  ret void, !dbg !977
}

; Function Attrs: mustprogress noinline nounwind uwtable
define linkonce_odr dso_local void @_ZN2AA13kk_v_00000008Ev(%class.AA* noundef nonnull align 8 dereferenceable(16) %this) unnamed_addr #4 comdat align 2 !dbg !978 {
entry:
  call void @llvm.dbg.value(metadata %class.AA* %this, metadata !979, metadata !DIExpression()), !dbg !980
  ret void, !dbg !981
}

; Function Attrs: mustprogress noinline nounwind uwtable
define linkonce_odr dso_local void @_ZN2AA13kk_v_00000009Ev(%class.AA* noundef nonnull align 8 dereferenceable(16) %this) unnamed_addr #4 comdat align 2 !dbg !982 {
entry:
  call void @llvm.dbg.value(metadata %class.AA* %this, metadata !983, metadata !DIExpression()), !dbg !984
  ret void, !dbg !985
}

; Function Attrs: mustprogress noinline nounwind uwtable
define linkonce_odr dso_local void @_ZN2AA13kk_v_00000010Ev(%class.AA* noundef nonnull align 8 dereferenceable(16) %this) unnamed_addr #4 comdat align 2 !dbg !986 {
entry:
  call void @llvm.dbg.value(metadata %class.AA* %this, metadata !987, metadata !DIExpression()), !dbg !988
  ret void, !dbg !989
}

; Function Attrs: mustprogress noinline nounwind uwtable
define linkonce_odr dso_local void @_ZN2AA13kk_v_00000011Ev(%class.AA* noundef nonnull align 8 dereferenceable(16) %this) unnamed_addr #4 comdat align 2 !dbg !990 {
entry:
  call void @llvm.dbg.value(metadata %class.AA* %this, metadata !991, metadata !DIExpression()), !dbg !992
  ret void, !dbg !993
}

; Function Attrs: mustprogress noinline nounwind uwtable
define linkonce_odr dso_local void @_ZN2AA13kk_v_00000012Ev(%class.AA* noundef nonnull align 8 dereferenceable(16) %this) unnamed_addr #4 comdat align 2 !dbg !994 {
entry:
  call void @llvm.dbg.value(metadata %class.AA* %this, metadata !995, metadata !DIExpression()), !dbg !996
  ret void, !dbg !997
}

; Function Attrs: mustprogress noinline nounwind uwtable
define linkonce_odr dso_local void @_ZN2AA13kk_v_00000013Ev(%class.AA* noundef nonnull align 8 dereferenceable(16) %this) unnamed_addr #4 comdat align 2 !dbg !998 {
entry:
  call void @llvm.dbg.value(metadata %class.AA* %this, metadata !999, metadata !DIExpression()), !dbg !1000
  ret void, !dbg !1001
}

; Function Attrs: mustprogress noinline nounwind uwtable
define linkonce_odr dso_local void @_ZN2AA13kk_v_00000014Ev(%class.AA* noundef nonnull align 8 dereferenceable(16) %this) unnamed_addr #4 comdat align 2 !dbg !1002 {
entry:
  call void @llvm.dbg.value(metadata %class.AA* %this, metadata !1003, metadata !DIExpression()), !dbg !1004
  ret void, !dbg !1005
}

; Function Attrs: mustprogress noinline nounwind uwtable
define linkonce_odr dso_local void @_ZN2AA13kk_v_00000015Ev(%class.AA* noundef nonnull align 8 dereferenceable(16) %this) unnamed_addr #4 comdat align 2 !dbg !1006 {
entry:
  call void @llvm.dbg.value(metadata %class.AA* %this, metadata !1007, metadata !DIExpression()), !dbg !1008
  ret void, !dbg !1009
}

; Function Attrs: mustprogress noinline nounwind uwtable
define linkonce_odr dso_local void @_ZN2AA13kk_v_00000016Ev(%class.AA* noundef nonnull align 8 dereferenceable(16) %this) unnamed_addr #4 comdat align 2 !dbg !1010 {
entry:
  call void @llvm.dbg.value(metadata %class.AA* %this, metadata !1011, metadata !DIExpression()), !dbg !1012
  ret void, !dbg !1013
}

; Function Attrs: mustprogress noinline nounwind uwtable
define linkonce_odr dso_local void @_ZN2AA13kk_v_00000017Ev(%class.AA* noundef nonnull align 8 dereferenceable(16) %this) unnamed_addr #4 comdat align 2 !dbg !1014 {
entry:
  call void @llvm.dbg.value(metadata %class.AA* %this, metadata !1015, metadata !DIExpression()), !dbg !1016
  ret void, !dbg !1017
}

; Function Attrs: mustprogress noinline nounwind uwtable
define linkonce_odr dso_local void @_ZN2AA13kk_v_00000018Ev(%class.AA* noundef nonnull align 8 dereferenceable(16) %this) unnamed_addr #4 comdat align 2 !dbg !1018 {
entry:
  call void @llvm.dbg.value(metadata %class.AA* %this, metadata !1019, metadata !DIExpression()), !dbg !1020
  ret void, !dbg !1021
}

; Function Attrs: mustprogress noinline nounwind uwtable
define linkonce_odr dso_local void @_ZN2AA13kk_v_00000019Ev(%class.AA* noundef nonnull align 8 dereferenceable(16) %this) unnamed_addr #4 comdat align 2 !dbg !1022 {
entry:
  call void @llvm.dbg.value(metadata %class.AA* %this, metadata !1023, metadata !DIExpression()), !dbg !1024
  ret void, !dbg !1025
}

; Function Attrs: mustprogress noinline nounwind uwtable
define linkonce_odr dso_local void @_ZN2AA13kk_v_00000020Ev(%class.AA* noundef nonnull align 8 dereferenceable(16) %this) unnamed_addr #4 comdat align 2 !dbg !1026 {
entry:
  call void @llvm.dbg.value(metadata %class.AA* %this, metadata !1027, metadata !DIExpression()), !dbg !1028
  ret void, !dbg !1029
}

; Function Attrs: mustprogress noinline nounwind uwtable
define linkonce_odr dso_local void @_ZN2AA13kk_v_00000021Ev(%class.AA* noundef nonnull align 8 dereferenceable(16) %this) unnamed_addr #4 comdat align 2 !dbg !1030 {
entry:
  call void @llvm.dbg.value(metadata %class.AA* %this, metadata !1031, metadata !DIExpression()), !dbg !1032
  ret void, !dbg !1033
}

; Function Attrs: mustprogress noinline nounwind uwtable
define linkonce_odr dso_local void @_ZN2AA13kk_v_00000022Ev(%class.AA* noundef nonnull align 8 dereferenceable(16) %this) unnamed_addr #4 comdat align 2 !dbg !1034 {
entry:
  call void @llvm.dbg.value(metadata %class.AA* %this, metadata !1035, metadata !DIExpression()), !dbg !1036
  ret void, !dbg !1037
}

; Function Attrs: mustprogress noinline nounwind uwtable
define linkonce_odr dso_local void @_ZN2AA13kk_v_00000023Ev(%class.AA* noundef nonnull align 8 dereferenceable(16) %this) unnamed_addr #4 comdat align 2 !dbg !1038 {
entry:
  call void @llvm.dbg.value(metadata %class.AA* %this, metadata !1039, metadata !DIExpression()), !dbg !1040
  ret void, !dbg !1041
}

; Function Attrs: mustprogress noinline nounwind uwtable
define linkonce_odr dso_local void @_ZN2AA13kk_v_00000024Ev(%class.AA* noundef nonnull align 8 dereferenceable(16) %this) unnamed_addr #4 comdat align 2 !dbg !1042 {
entry:
  call void @llvm.dbg.value(metadata %class.AA* %this, metadata !1043, metadata !DIExpression()), !dbg !1044
  ret void, !dbg !1045
}

; Function Attrs: mustprogress noinline nounwind uwtable
define linkonce_odr dso_local void @_ZN2AA13kk_v_00000025Ev(%class.AA* noundef nonnull align 8 dereferenceable(16) %this) unnamed_addr #4 comdat align 2 !dbg !1046 {
entry:
  call void @llvm.dbg.value(metadata %class.AA* %this, metadata !1047, metadata !DIExpression()), !dbg !1048
  ret void, !dbg !1049
}

; Function Attrs: mustprogress noinline nounwind uwtable
define linkonce_odr dso_local void @_ZN2BB13gg_v_00000000Ev(%class.BB* noundef nonnull align 8 dereferenceable(16) %this) unnamed_addr #4 comdat align 2 !dbg !1050 {
entry:
  call void @llvm.dbg.value(metadata %class.BB* %this, metadata !1051, metadata !DIExpression()), !dbg !1052
  ret void, !dbg !1053
}

; Function Attrs: mustprogress noinline nounwind uwtable
define linkonce_odr dso_local void @_ZN2BB13gg_v_00000001Ev(%class.BB* noundef nonnull align 8 dereferenceable(16) %this) unnamed_addr #4 comdat align 2 !dbg !1054 {
entry:
  call void @llvm.dbg.value(metadata %class.BB* %this, metadata !1055, metadata !DIExpression()), !dbg !1056
  ret void, !dbg !1057
}

; Function Attrs: mustprogress noinline nounwind uwtable
define linkonce_odr dso_local void @_ZN2BB13gg_v_00000002Ev(%class.BB* noundef nonnull align 8 dereferenceable(16) %this) unnamed_addr #4 comdat align 2 !dbg !1058 {
entry:
  call void @llvm.dbg.value(metadata %class.BB* %this, metadata !1059, metadata !DIExpression()), !dbg !1060
  ret void, !dbg !1061
}

; Function Attrs: nofree nosync nounwind readnone speculatable willreturn
declare void @llvm.dbg.value(metadata, metadata, metadata) #1

attributes #0 = { mustprogress noinline uwtable "frame-pointer"="all" "min-legal-vector-width"="0" "no-builtins" "no-trapping-math"="true" "stack-protector-buffer-size"="8" "target-cpu"="x86-64" "target-features"="+cx8,+fxsr,+mmx,+sse,+sse2,+x87" "tune-cpu"="generic" }
attributes #1 = { nofree nosync nounwind readnone speculatable willreturn }
attributes #2 = { mustprogress noinline norecurse uwtable "frame-pointer"="all" "min-legal-vector-width"="0" "no-builtins" "no-trapping-math"="true" "stack-protector-buffer-size"="8" "target-cpu"="x86-64" "target-features"="+cx8,+fxsr,+mmx,+sse,+sse2,+x87" "tune-cpu"="generic" }
attributes #3 = { noinline nounwind uwtable "frame-pointer"="all" "min-legal-vector-width"="0" "no-builtins" "no-trapping-math"="true" "stack-protector-buffer-size"="8" "target-cpu"="x86-64" "target-features"="+cx8,+fxsr,+mmx,+sse,+sse2,+x87" "tune-cpu"="generic" }
attributes #4 = { mustprogress noinline nounwind uwtable "frame-pointer"="all" "min-legal-vector-width"="0" "no-builtins" "no-trapping-math"="true" "stack-protector-buffer-size"="8" "target-cpu"="x86-64" "target-features"="+cx8,+fxsr,+mmx,+sse,+sse2,+x87" "tune-cpu"="generic" }
attributes #5 = { noinline uwtable "frame-pointer"="all" "min-legal-vector-width"="0" "no-builtins" "no-trapping-math"="true" "stack-protector-buffer-size"="8" "target-cpu"="x86-64" "target-features"="+cx8,+fxsr,+mmx,+sse,+sse2,+x87" "tune-cpu"="generic" }
attributes #6 = { nobuiltin "no-builtins" }
attributes #7 = { nobuiltin nounwind "no-builtins" }

!llvm.dbg.cu = !{!0}
!llvm.ident = !{!322}
!llvm.module.flags = !{!323, !324, !325, !326, !327}

!0 = distinct !DICompileUnit(language: DW_LANG_C_plus_plus_14, file: !1, producer: "clang version 14.0.0", isOptimized: false, runtimeVersion: 0, emissionKind: FullDebug, retainedTypes: !2, splitDebugInlining: false, nameTableKind: None)
!1 = !DIFile(filename: "MicroBenchmark/virtual_v1_nv1/virtual_v1_nv1_30_2.cpp", directory: "/home/iron/Downloads/PrivateTIPS/Benchmarks", checksumkind: CSK_MD5, checksum: "bd9989dcf8776086f74860f2272862c8")
!2 = !{!3, !10, !7, !152}
!3 = distinct !DICompositeType(tag: DW_TAG_class_type, name: "DD", file: !4, line: 206, size: 448, flags: DIFlagTypePassByReference | DIFlagNonTrivial, elements: !5, vtableHolder: !7, identifier: "_ZTS2DD")
!4 = !DIFile(filename: "./MicroBenchmark/virtual_v1_nv1/virtual_v1_nv1_30_2.cpp", directory: "/home/iron/Downloads/PrivateTIPS/Benchmarks", checksumkind: CSK_MD5, checksum: "bd9989dcf8776086f74860f2272862c8")
!5 = !{!6, !151, !223, !224, !228, !229, !230, !231, !232, !233, !234, !235, !236, !237, !238, !239, !240, !241, !242, !243, !244, !245, !246, !247, !248, !249, !250, !251, !252, !253, !254, !255, !256, !257, !258, !259, !260, !261, !262, !263, !264, !265, !266, !267, !268, !269, !270, !271, !272, !273, !274, !275, !276, !277, !278, !279, !280, !281, !282, !283, !284, !285, !286, !287, !288, !289, !290, !291, !292, !293, !294, !295, !296, !297, !298, !299, !300, !301, !302, !303, !304, !305, !306, !307, !308, !309, !310, !311, !312, !313, !314, !315, !316, !317, !318, !319, !320, !321}
!6 = !DIDerivedType(tag: DW_TAG_inheritance, scope: !3, baseType: !7, flags: DIFlagPublic, extraData: i32 0)
!7 = distinct !DICompositeType(tag: DW_TAG_class_type, name: "BB", file: !4, line: 70, size: 256, flags: DIFlagTypePassByReference | DIFlagNonTrivial, elements: !8, vtableHolder: !7, identifier: "_ZTS2BB")
!8 = !{!9, !84, !85, !88, !92, !93, !94, !95, !96, !97, !98, !99, !100, !101, !102, !103, !104, !105, !106, !107, !108, !109, !110, !111, !112, !113, !114, !115, !116, !117, !118, !119, !120, !121, !122, !123, !124, !125, !126, !127, !128, !129, !130, !131, !132, !133, !134, !135, !136, !137, !138, !139, !140, !141, !142, !143, !144, !145, !146, !147, !148, !149, !150}
!9 = !DIDerivedType(tag: DW_TAG_inheritance, scope: !7, baseType: !10, offset: 24, flags: DIFlagPublic | DIFlagVirtual, extraData: i32 0)
!10 = distinct !DICompositeType(tag: DW_TAG_class_type, name: "AA", file: !4, line: 2, size: 128, flags: DIFlagTypePassByReference | DIFlagNonTrivial, elements: !11, vtableHolder: !10, identifier: "_ZTS2AA")
!11 = !{!12, !18, !21, !25, !26, !27, !28, !29, !30, !31, !32, !33, !34, !35, !36, !37, !38, !39, !40, !41, !42, !43, !44, !45, !46, !47, !48, !49, !50, !51, !52, !53, !54, !55, !56, !57, !58, !59, !60, !61, !62, !63, !64, !65, !66, !67, !68, !69, !70, !71, !72, !73, !74, !75, !76, !77, !78, !79, !80, !81, !82, !83}
!12 = !DIDerivedType(tag: DW_TAG_member, name: "_vptr$AA", scope: !4, file: !4, baseType: !13, size: 64, flags: DIFlagArtificial)
!13 = !DIDerivedType(tag: DW_TAG_pointer_type, baseType: !14, size: 64)
!14 = !DIDerivedType(tag: DW_TAG_pointer_type, name: "__vtbl_ptr_type", baseType: !15, size: 64)
!15 = !DISubroutineType(types: !16)
!16 = !{!17}
!17 = !DIBasicType(name: "int", size: 32, encoding: DW_ATE_signed)
!18 = !DIDerivedType(tag: DW_TAG_member, name: "aa", scope: !10, file: !4, line: 4, baseType: !19, size: 64, offset: 64, flags: DIFlagPublic)
!19 = !DIDerivedType(tag: DW_TAG_pointer_type, baseType: !20, size: 64)
!20 = !DIBasicType(name: "char", size: 8, encoding: DW_ATE_signed_char)
!21 = !DISubprogram(name: "kk_v_00000000", linkageName: "_ZN2AA13kk_v_00000000Ev", scope: !10, file: !4, line: 6, type: !22, scopeLine: 6, containingType: !10, virtualIndex: 0, flags: DIFlagPublic | DIFlagPrototyped, spFlags: DISPFlagVirtual)
!22 = !DISubroutineType(types: !23)
!23 = !{null, !24}
!24 = !DIDerivedType(tag: DW_TAG_pointer_type, baseType: !10, size: 64, flags: DIFlagArtificial | DIFlagObjectPointer)
!25 = !DISubprogram(name: "kk_v_00000001", linkageName: "_ZN2AA13kk_v_00000001Ev", scope: !10, file: !4, line: 7, type: !22, scopeLine: 7, containingType: !10, virtualIndex: 1, flags: DIFlagPublic | DIFlagPrototyped, spFlags: DISPFlagVirtual)
!26 = !DISubprogram(name: "kk_v_00000002", linkageName: "_ZN2AA13kk_v_00000002Ev", scope: !10, file: !4, line: 8, type: !22, scopeLine: 8, containingType: !10, virtualIndex: 2, flags: DIFlagPublic | DIFlagPrototyped, spFlags: DISPFlagVirtual)
!27 = !DISubprogram(name: "kk_v_00000003", linkageName: "_ZN2AA13kk_v_00000003Ev", scope: !10, file: !4, line: 9, type: !22, scopeLine: 9, containingType: !10, virtualIndex: 3, flags: DIFlagPublic | DIFlagPrototyped, spFlags: DISPFlagVirtual)
!28 = !DISubprogram(name: "kk_v_00000004", linkageName: "_ZN2AA13kk_v_00000004Ev", scope: !10, file: !4, line: 10, type: !22, scopeLine: 10, containingType: !10, virtualIndex: 4, flags: DIFlagPublic | DIFlagPrototyped, spFlags: DISPFlagVirtual)
!29 = !DISubprogram(name: "kk_v_00000005", linkageName: "_ZN2AA13kk_v_00000005Ev", scope: !10, file: !4, line: 11, type: !22, scopeLine: 11, containingType: !10, virtualIndex: 5, flags: DIFlagPublic | DIFlagPrototyped, spFlags: DISPFlagVirtual)
!30 = !DISubprogram(name: "kk_v_00000006", linkageName: "_ZN2AA13kk_v_00000006Ev", scope: !10, file: !4, line: 12, type: !22, scopeLine: 12, containingType: !10, virtualIndex: 6, flags: DIFlagPublic | DIFlagPrototyped, spFlags: DISPFlagVirtual)
!31 = !DISubprogram(name: "kk_v_00000007", linkageName: "_ZN2AA13kk_v_00000007Ev", scope: !10, file: !4, line: 13, type: !22, scopeLine: 13, containingType: !10, virtualIndex: 7, flags: DIFlagPublic | DIFlagPrototyped, spFlags: DISPFlagVirtual)
!32 = !DISubprogram(name: "kk_v_00000008", linkageName: "_ZN2AA13kk_v_00000008Ev", scope: !10, file: !4, line: 14, type: !22, scopeLine: 14, containingType: !10, virtualIndex: 8, flags: DIFlagPublic | DIFlagPrototyped, spFlags: DISPFlagVirtual)
!33 = !DISubprogram(name: "kk_v_00000009", linkageName: "_ZN2AA13kk_v_00000009Ev", scope: !10, file: !4, line: 15, type: !22, scopeLine: 15, containingType: !10, virtualIndex: 9, flags: DIFlagPublic | DIFlagPrototyped, spFlags: DISPFlagVirtual)
!34 = !DISubprogram(name: "kk_v_00000010", linkageName: "_ZN2AA13kk_v_00000010Ev", scope: !10, file: !4, line: 16, type: !22, scopeLine: 16, containingType: !10, virtualIndex: 10, flags: DIFlagPublic | DIFlagPrototyped, spFlags: DISPFlagVirtual)
!35 = !DISubprogram(name: "kk_v_00000011", linkageName: "_ZN2AA13kk_v_00000011Ev", scope: !10, file: !4, line: 17, type: !22, scopeLine: 17, containingType: !10, virtualIndex: 11, flags: DIFlagPublic | DIFlagPrototyped, spFlags: DISPFlagVirtual)
!36 = !DISubprogram(name: "kk_v_00000012", linkageName: "_ZN2AA13kk_v_00000012Ev", scope: !10, file: !4, line: 18, type: !22, scopeLine: 18, containingType: !10, virtualIndex: 12, flags: DIFlagPublic | DIFlagPrototyped, spFlags: DISPFlagVirtual)
!37 = !DISubprogram(name: "kk_v_00000013", linkageName: "_ZN2AA13kk_v_00000013Ev", scope: !10, file: !4, line: 19, type: !22, scopeLine: 19, containingType: !10, virtualIndex: 13, flags: DIFlagPublic | DIFlagPrototyped, spFlags: DISPFlagVirtual)
!38 = !DISubprogram(name: "kk_v_00000014", linkageName: "_ZN2AA13kk_v_00000014Ev", scope: !10, file: !4, line: 20, type: !22, scopeLine: 20, containingType: !10, virtualIndex: 14, flags: DIFlagPublic | DIFlagPrototyped, spFlags: DISPFlagVirtual)
!39 = !DISubprogram(name: "kk_v_00000015", linkageName: "_ZN2AA13kk_v_00000015Ev", scope: !10, file: !4, line: 21, type: !22, scopeLine: 21, containingType: !10, virtualIndex: 15, flags: DIFlagPublic | DIFlagPrototyped, spFlags: DISPFlagVirtual)
!40 = !DISubprogram(name: "kk_v_00000016", linkageName: "_ZN2AA13kk_v_00000016Ev", scope: !10, file: !4, line: 22, type: !22, scopeLine: 22, containingType: !10, virtualIndex: 16, flags: DIFlagPublic | DIFlagPrototyped, spFlags: DISPFlagVirtual)
!41 = !DISubprogram(name: "kk_v_00000017", linkageName: "_ZN2AA13kk_v_00000017Ev", scope: !10, file: !4, line: 23, type: !22, scopeLine: 23, containingType: !10, virtualIndex: 17, flags: DIFlagPublic | DIFlagPrototyped, spFlags: DISPFlagVirtual)
!42 = !DISubprogram(name: "kk_v_00000018", linkageName: "_ZN2AA13kk_v_00000018Ev", scope: !10, file: !4, line: 24, type: !22, scopeLine: 24, containingType: !10, virtualIndex: 18, flags: DIFlagPublic | DIFlagPrototyped, spFlags: DISPFlagVirtual)
!43 = !DISubprogram(name: "kk_v_00000019", linkageName: "_ZN2AA13kk_v_00000019Ev", scope: !10, file: !4, line: 25, type: !22, scopeLine: 25, containingType: !10, virtualIndex: 19, flags: DIFlagPublic | DIFlagPrototyped, spFlags: DISPFlagVirtual)
!44 = !DISubprogram(name: "kk_v_00000020", linkageName: "_ZN2AA13kk_v_00000020Ev", scope: !10, file: !4, line: 26, type: !22, scopeLine: 26, containingType: !10, virtualIndex: 20, flags: DIFlagPublic | DIFlagPrototyped, spFlags: DISPFlagVirtual)
!45 = !DISubprogram(name: "kk_v_00000021", linkageName: "_ZN2AA13kk_v_00000021Ev", scope: !10, file: !4, line: 27, type: !22, scopeLine: 27, containingType: !10, virtualIndex: 21, flags: DIFlagPublic | DIFlagPrototyped, spFlags: DISPFlagVirtual)
!46 = !DISubprogram(name: "kk_v_00000022", linkageName: "_ZN2AA13kk_v_00000022Ev", scope: !10, file: !4, line: 28, type: !22, scopeLine: 28, containingType: !10, virtualIndex: 22, flags: DIFlagPublic | DIFlagPrototyped, spFlags: DISPFlagVirtual)
!47 = !DISubprogram(name: "kk_v_00000023", linkageName: "_ZN2AA13kk_v_00000023Ev", scope: !10, file: !4, line: 29, type: !22, scopeLine: 29, containingType: !10, virtualIndex: 23, flags: DIFlagPublic | DIFlagPrototyped, spFlags: DISPFlagVirtual)
!48 = !DISubprogram(name: "kk_v_00000024", linkageName: "_ZN2AA13kk_v_00000024Ev", scope: !10, file: !4, line: 30, type: !22, scopeLine: 30, containingType: !10, virtualIndex: 24, flags: DIFlagPublic | DIFlagPrototyped, spFlags: DISPFlagVirtual)
!49 = !DISubprogram(name: "kk_v_00000025", linkageName: "_ZN2AA13kk_v_00000025Ev", scope: !10, file: !4, line: 31, type: !22, scopeLine: 31, containingType: !10, virtualIndex: 25, flags: DIFlagPublic | DIFlagPrototyped, spFlags: DISPFlagVirtual)
!50 = !DISubprogram(name: "kk_v_00000026", linkageName: "_ZN2AA13kk_v_00000026Ev", scope: !10, file: !4, line: 32, type: !22, scopeLine: 32, containingType: !10, virtualIndex: 26, flags: DIFlagPublic | DIFlagPrototyped, spFlags: DISPFlagVirtual)
!51 = !DISubprogram(name: "kk_v_00000027", linkageName: "_ZN2AA13kk_v_00000027Ev", scope: !10, file: !4, line: 33, type: !22, scopeLine: 33, containingType: !10, virtualIndex: 27, flags: DIFlagPublic | DIFlagPrototyped, spFlags: DISPFlagVirtual)
!52 = !DISubprogram(name: "kk_v_00000028", linkageName: "_ZN2AA13kk_v_00000028Ev", scope: !10, file: !4, line: 34, type: !22, scopeLine: 34, containingType: !10, virtualIndex: 28, flags: DIFlagPublic | DIFlagPrototyped, spFlags: DISPFlagVirtual)
!53 = !DISubprogram(name: "kk_v_00000029", linkageName: "_ZN2AA13kk_v_00000029Ev", scope: !10, file: !4, line: 35, type: !22, scopeLine: 35, containingType: !10, virtualIndex: 29, flags: DIFlagPublic | DIFlagPrototyped, spFlags: DISPFlagVirtual)
!54 = !DISubprogram(name: "kk_nv_00000000", linkageName: "_ZN2AA14kk_nv_00000000Ev", scope: !10, file: !4, line: 37, type: !22, scopeLine: 37, flags: DIFlagPublic | DIFlagPrototyped, spFlags: 0)
!55 = !DISubprogram(name: "kk_nv_00000001", linkageName: "_ZN2AA14kk_nv_00000001Ev", scope: !10, file: !4, line: 38, type: !22, scopeLine: 38, flags: DIFlagPublic | DIFlagPrototyped, spFlags: 0)
!56 = !DISubprogram(name: "kk_nv_00000002", linkageName: "_ZN2AA14kk_nv_00000002Ev", scope: !10, file: !4, line: 39, type: !22, scopeLine: 39, flags: DIFlagPublic | DIFlagPrototyped, spFlags: 0)
!57 = !DISubprogram(name: "kk_nv_00000003", linkageName: "_ZN2AA14kk_nv_00000003Ev", scope: !10, file: !4, line: 40, type: !22, scopeLine: 40, flags: DIFlagPublic | DIFlagPrototyped, spFlags: 0)
!58 = !DISubprogram(name: "kk_nv_00000004", linkageName: "_ZN2AA14kk_nv_00000004Ev", scope: !10, file: !4, line: 41, type: !22, scopeLine: 41, flags: DIFlagPublic | DIFlagPrototyped, spFlags: 0)
!59 = !DISubprogram(name: "kk_nv_00000005", linkageName: "_ZN2AA14kk_nv_00000005Ev", scope: !10, file: !4, line: 42, type: !22, scopeLine: 42, flags: DIFlagPublic | DIFlagPrototyped, spFlags: 0)
!60 = !DISubprogram(name: "kk_nv_00000006", linkageName: "_ZN2AA14kk_nv_00000006Ev", scope: !10, file: !4, line: 43, type: !22, scopeLine: 43, flags: DIFlagPublic | DIFlagPrototyped, spFlags: 0)
!61 = !DISubprogram(name: "kk_nv_00000007", linkageName: "_ZN2AA14kk_nv_00000007Ev", scope: !10, file: !4, line: 44, type: !22, scopeLine: 44, flags: DIFlagPublic | DIFlagPrototyped, spFlags: 0)
!62 = !DISubprogram(name: "kk_nv_00000008", linkageName: "_ZN2AA14kk_nv_00000008Ev", scope: !10, file: !4, line: 45, type: !22, scopeLine: 45, flags: DIFlagPublic | DIFlagPrototyped, spFlags: 0)
!63 = !DISubprogram(name: "kk_nv_00000009", linkageName: "_ZN2AA14kk_nv_00000009Ev", scope: !10, file: !4, line: 46, type: !22, scopeLine: 46, flags: DIFlagPublic | DIFlagPrototyped, spFlags: 0)
!64 = !DISubprogram(name: "kk_nv_00000010", linkageName: "_ZN2AA14kk_nv_00000010Ev", scope: !10, file: !4, line: 47, type: !22, scopeLine: 47, flags: DIFlagPublic | DIFlagPrototyped, spFlags: 0)
!65 = !DISubprogram(name: "kk_nv_00000011", linkageName: "_ZN2AA14kk_nv_00000011Ev", scope: !10, file: !4, line: 48, type: !22, scopeLine: 48, flags: DIFlagPublic | DIFlagPrototyped, spFlags: 0)
!66 = !DISubprogram(name: "kk_nv_00000012", linkageName: "_ZN2AA14kk_nv_00000012Ev", scope: !10, file: !4, line: 49, type: !22, scopeLine: 49, flags: DIFlagPublic | DIFlagPrototyped, spFlags: 0)
!67 = !DISubprogram(name: "kk_nv_00000013", linkageName: "_ZN2AA14kk_nv_00000013Ev", scope: !10, file: !4, line: 50, type: !22, scopeLine: 50, flags: DIFlagPublic | DIFlagPrototyped, spFlags: 0)
!68 = !DISubprogram(name: "kk_nv_00000014", linkageName: "_ZN2AA14kk_nv_00000014Ev", scope: !10, file: !4, line: 51, type: !22, scopeLine: 51, flags: DIFlagPublic | DIFlagPrototyped, spFlags: 0)
!69 = !DISubprogram(name: "kk_nv_00000015", linkageName: "_ZN2AA14kk_nv_00000015Ev", scope: !10, file: !4, line: 52, type: !22, scopeLine: 52, flags: DIFlagPublic | DIFlagPrototyped, spFlags: 0)
!70 = !DISubprogram(name: "kk_nv_00000016", linkageName: "_ZN2AA14kk_nv_00000016Ev", scope: !10, file: !4, line: 53, type: !22, scopeLine: 53, flags: DIFlagPublic | DIFlagPrototyped, spFlags: 0)
!71 = !DISubprogram(name: "kk_nv_00000017", linkageName: "_ZN2AA14kk_nv_00000017Ev", scope: !10, file: !4, line: 54, type: !22, scopeLine: 54, flags: DIFlagPublic | DIFlagPrototyped, spFlags: 0)
!72 = !DISubprogram(name: "kk_nv_00000018", linkageName: "_ZN2AA14kk_nv_00000018Ev", scope: !10, file: !4, line: 55, type: !22, scopeLine: 55, flags: DIFlagPublic | DIFlagPrototyped, spFlags: 0)
!73 = !DISubprogram(name: "kk_nv_00000019", linkageName: "_ZN2AA14kk_nv_00000019Ev", scope: !10, file: !4, line: 56, type: !22, scopeLine: 56, flags: DIFlagPublic | DIFlagPrototyped, spFlags: 0)
!74 = !DISubprogram(name: "kk_nv_00000020", linkageName: "_ZN2AA14kk_nv_00000020Ev", scope: !10, file: !4, line: 57, type: !22, scopeLine: 57, flags: DIFlagPublic | DIFlagPrototyped, spFlags: 0)
!75 = !DISubprogram(name: "kk_nv_00000021", linkageName: "_ZN2AA14kk_nv_00000021Ev", scope: !10, file: !4, line: 58, type: !22, scopeLine: 58, flags: DIFlagPublic | DIFlagPrototyped, spFlags: 0)
!76 = !DISubprogram(name: "kk_nv_00000022", linkageName: "_ZN2AA14kk_nv_00000022Ev", scope: !10, file: !4, line: 59, type: !22, scopeLine: 59, flags: DIFlagPublic | DIFlagPrototyped, spFlags: 0)
!77 = !DISubprogram(name: "kk_nv_00000023", linkageName: "_ZN2AA14kk_nv_00000023Ev", scope: !10, file: !4, line: 60, type: !22, scopeLine: 60, flags: DIFlagPublic | DIFlagPrototyped, spFlags: 0)
!78 = !DISubprogram(name: "kk_nv_00000024", linkageName: "_ZN2AA14kk_nv_00000024Ev", scope: !10, file: !4, line: 61, type: !22, scopeLine: 61, flags: DIFlagPublic | DIFlagPrototyped, spFlags: 0)
!79 = !DISubprogram(name: "kk_nv_00000025", linkageName: "_ZN2AA14kk_nv_00000025Ev", scope: !10, file: !4, line: 62, type: !22, scopeLine: 62, flags: DIFlagPublic | DIFlagPrototyped, spFlags: 0)
!80 = !DISubprogram(name: "kk_nv_00000026", linkageName: "_ZN2AA14kk_nv_00000026Ev", scope: !10, file: !4, line: 63, type: !22, scopeLine: 63, flags: DIFlagPublic | DIFlagPrototyped, spFlags: 0)
!81 = !DISubprogram(name: "kk_nv_00000027", linkageName: "_ZN2AA14kk_nv_00000027Ev", scope: !10, file: !4, line: 64, type: !22, scopeLine: 64, flags: DIFlagPublic | DIFlagPrototyped, spFlags: 0)
!82 = !DISubprogram(name: "kk_nv_00000028", linkageName: "_ZN2AA14kk_nv_00000028Ev", scope: !10, file: !4, line: 65, type: !22, scopeLine: 65, flags: DIFlagPublic | DIFlagPrototyped, spFlags: 0)
!83 = !DISubprogram(name: "kk_nv_00000029", linkageName: "_ZN2AA14kk_nv_00000029Ev", scope: !10, file: !4, line: 66, type: !22, scopeLine: 66, flags: DIFlagPublic | DIFlagPrototyped, spFlags: 0)
!84 = !DIDerivedType(tag: DW_TAG_member, name: "_vptr$BB", scope: !4, file: !4, baseType: !13, size: 64, flags: DIFlagArtificial)
!85 = !DIDerivedType(tag: DW_TAG_member, name: "bb", scope: !7, file: !4, line: 72, baseType: !86, size: 64, offset: 64, flags: DIFlagPublic)
!86 = !DIDerivedType(tag: DW_TAG_pointer_type, baseType: !87, size: 64)
!87 = !DIBasicType(name: "long", size: 64, encoding: DW_ATE_signed)
!88 = !DISubprogram(name: "gg_v_00000000", linkageName: "_ZN2BB13gg_v_00000000Ev", scope: !7, file: !4, line: 74, type: !89, scopeLine: 74, containingType: !7, virtualIndex: 0, flags: DIFlagPublic | DIFlagPrototyped, spFlags: DISPFlagVirtual)
!89 = !DISubroutineType(types: !90)
!90 = !{null, !91}
!91 = !DIDerivedType(tag: DW_TAG_pointer_type, baseType: !7, size: 64, flags: DIFlagArtificial | DIFlagObjectPointer)
!92 = !DISubprogram(name: "gg_v_00000001", linkageName: "_ZN2BB13gg_v_00000001Ev", scope: !7, file: !4, line: 75, type: !89, scopeLine: 75, containingType: !7, virtualIndex: 1, flags: DIFlagPublic | DIFlagPrototyped, spFlags: DISPFlagVirtual)
!93 = !DISubprogram(name: "gg_v_00000002", linkageName: "_ZN2BB13gg_v_00000002Ev", scope: !7, file: !4, line: 76, type: !89, scopeLine: 76, containingType: !7, virtualIndex: 2, flags: DIFlagPublic | DIFlagPrototyped, spFlags: DISPFlagVirtual)
!94 = !DISubprogram(name: "gg_v_00000003", linkageName: "_ZN2BB13gg_v_00000003Ev", scope: !7, file: !4, line: 77, type: !89, scopeLine: 77, containingType: !7, virtualIndex: 3, flags: DIFlagPublic | DIFlagPrototyped, spFlags: DISPFlagVirtual)
!95 = !DISubprogram(name: "gg_v_00000004", linkageName: "_ZN2BB13gg_v_00000004Ev", scope: !7, file: !4, line: 78, type: !89, scopeLine: 78, containingType: !7, virtualIndex: 4, flags: DIFlagPublic | DIFlagPrototyped, spFlags: DISPFlagVirtual)
!96 = !DISubprogram(name: "gg_v_00000005", linkageName: "_ZN2BB13gg_v_00000005Ev", scope: !7, file: !4, line: 79, type: !89, scopeLine: 79, containingType: !7, virtualIndex: 5, flags: DIFlagPublic | DIFlagPrototyped, spFlags: DISPFlagVirtual)
!97 = !DISubprogram(name: "gg_v_00000006", linkageName: "_ZN2BB13gg_v_00000006Ev", scope: !7, file: !4, line: 80, type: !89, scopeLine: 80, containingType: !7, virtualIndex: 6, flags: DIFlagPublic | DIFlagPrototyped, spFlags: DISPFlagVirtual)
!98 = !DISubprogram(name: "gg_v_00000007", linkageName: "_ZN2BB13gg_v_00000007Ev", scope: !7, file: !4, line: 81, type: !89, scopeLine: 81, containingType: !7, virtualIndex: 7, flags: DIFlagPublic | DIFlagPrototyped, spFlags: DISPFlagVirtual)
!99 = !DISubprogram(name: "gg_v_00000008", linkageName: "_ZN2BB13gg_v_00000008Ev", scope: !7, file: !4, line: 82, type: !89, scopeLine: 82, containingType: !7, virtualIndex: 8, flags: DIFlagPublic | DIFlagPrototyped, spFlags: DISPFlagVirtual)
!100 = !DISubprogram(name: "gg_v_00000009", linkageName: "_ZN2BB13gg_v_00000009Ev", scope: !7, file: !4, line: 83, type: !89, scopeLine: 83, containingType: !7, virtualIndex: 9, flags: DIFlagPublic | DIFlagPrototyped, spFlags: DISPFlagVirtual)
!101 = !DISubprogram(name: "gg_v_00000010", linkageName: "_ZN2BB13gg_v_00000010Ev", scope: !7, file: !4, line: 84, type: !89, scopeLine: 84, containingType: !7, virtualIndex: 10, flags: DIFlagPublic | DIFlagPrototyped, spFlags: DISPFlagVirtual)
!102 = !DISubprogram(name: "gg_v_00000011", linkageName: "_ZN2BB13gg_v_00000011Ev", scope: !7, file: !4, line: 85, type: !89, scopeLine: 85, containingType: !7, virtualIndex: 11, flags: DIFlagPublic | DIFlagPrototyped, spFlags: DISPFlagVirtual)
!103 = !DISubprogram(name: "gg_v_00000012", linkageName: "_ZN2BB13gg_v_00000012Ev", scope: !7, file: !4, line: 86, type: !89, scopeLine: 86, containingType: !7, virtualIndex: 12, flags: DIFlagPublic | DIFlagPrototyped, spFlags: DISPFlagVirtual)
!104 = !DISubprogram(name: "gg_v_00000013", linkageName: "_ZN2BB13gg_v_00000013Ev", scope: !7, file: !4, line: 87, type: !89, scopeLine: 87, containingType: !7, virtualIndex: 13, flags: DIFlagPublic | DIFlagPrototyped, spFlags: DISPFlagVirtual)
!105 = !DISubprogram(name: "gg_v_00000014", linkageName: "_ZN2BB13gg_v_00000014Ev", scope: !7, file: !4, line: 88, type: !89, scopeLine: 88, containingType: !7, virtualIndex: 14, flags: DIFlagPublic | DIFlagPrototyped, spFlags: DISPFlagVirtual)
!106 = !DISubprogram(name: "gg_v_00000015", linkageName: "_ZN2BB13gg_v_00000015Ev", scope: !7, file: !4, line: 89, type: !89, scopeLine: 89, containingType: !7, virtualIndex: 15, flags: DIFlagPublic | DIFlagPrototyped, spFlags: DISPFlagVirtual)
!107 = !DISubprogram(name: "gg_v_00000016", linkageName: "_ZN2BB13gg_v_00000016Ev", scope: !7, file: !4, line: 90, type: !89, scopeLine: 90, containingType: !7, virtualIndex: 16, flags: DIFlagPublic | DIFlagPrototyped, spFlags: DISPFlagVirtual)
!108 = !DISubprogram(name: "gg_v_00000017", linkageName: "_ZN2BB13gg_v_00000017Ev", scope: !7, file: !4, line: 91, type: !89, scopeLine: 91, containingType: !7, virtualIndex: 17, flags: DIFlagPublic | DIFlagPrototyped, spFlags: DISPFlagVirtual)
!109 = !DISubprogram(name: "gg_v_00000018", linkageName: "_ZN2BB13gg_v_00000018Ev", scope: !7, file: !4, line: 92, type: !89, scopeLine: 92, containingType: !7, virtualIndex: 18, flags: DIFlagPublic | DIFlagPrototyped, spFlags: DISPFlagVirtual)
!110 = !DISubprogram(name: "gg_v_00000019", linkageName: "_ZN2BB13gg_v_00000019Ev", scope: !7, file: !4, line: 93, type: !89, scopeLine: 93, containingType: !7, virtualIndex: 19, flags: DIFlagPublic | DIFlagPrototyped, spFlags: DISPFlagVirtual)
!111 = !DISubprogram(name: "gg_v_00000020", linkageName: "_ZN2BB13gg_v_00000020Ev", scope: !7, file: !4, line: 94, type: !89, scopeLine: 94, containingType: !7, virtualIndex: 20, flags: DIFlagPublic | DIFlagPrototyped, spFlags: DISPFlagVirtual)
!112 = !DISubprogram(name: "gg_v_00000021", linkageName: "_ZN2BB13gg_v_00000021Ev", scope: !7, file: !4, line: 95, type: !89, scopeLine: 95, containingType: !7, virtualIndex: 21, flags: DIFlagPublic | DIFlagPrototyped, spFlags: DISPFlagVirtual)
!113 = !DISubprogram(name: "gg_v_00000022", linkageName: "_ZN2BB13gg_v_00000022Ev", scope: !7, file: !4, line: 96, type: !89, scopeLine: 96, containingType: !7, virtualIndex: 22, flags: DIFlagPublic | DIFlagPrototyped, spFlags: DISPFlagVirtual)
!114 = !DISubprogram(name: "gg_v_00000023", linkageName: "_ZN2BB13gg_v_00000023Ev", scope: !7, file: !4, line: 97, type: !89, scopeLine: 97, containingType: !7, virtualIndex: 23, flags: DIFlagPublic | DIFlagPrototyped, spFlags: DISPFlagVirtual)
!115 = !DISubprogram(name: "gg_v_00000024", linkageName: "_ZN2BB13gg_v_00000024Ev", scope: !7, file: !4, line: 98, type: !89, scopeLine: 98, containingType: !7, virtualIndex: 24, flags: DIFlagPublic | DIFlagPrototyped, spFlags: DISPFlagVirtual)
!116 = !DISubprogram(name: "gg_v_00000025", linkageName: "_ZN2BB13gg_v_00000025Ev", scope: !7, file: !4, line: 99, type: !89, scopeLine: 99, containingType: !7, virtualIndex: 25, flags: DIFlagPublic | DIFlagPrototyped, spFlags: DISPFlagVirtual)
!117 = !DISubprogram(name: "gg_v_00000026", linkageName: "_ZN2BB13gg_v_00000026Ev", scope: !7, file: !4, line: 100, type: !89, scopeLine: 100, containingType: !7, virtualIndex: 26, flags: DIFlagPublic | DIFlagPrototyped, spFlags: DISPFlagVirtual)
!118 = !DISubprogram(name: "gg_v_00000027", linkageName: "_ZN2BB13gg_v_00000027Ev", scope: !7, file: !4, line: 101, type: !89, scopeLine: 101, containingType: !7, virtualIndex: 27, flags: DIFlagPublic | DIFlagPrototyped, spFlags: DISPFlagVirtual)
!119 = !DISubprogram(name: "gg_v_00000028", linkageName: "_ZN2BB13gg_v_00000028Ev", scope: !7, file: !4, line: 102, type: !89, scopeLine: 102, containingType: !7, virtualIndex: 28, flags: DIFlagPublic | DIFlagPrototyped, spFlags: DISPFlagVirtual)
!120 = !DISubprogram(name: "gg_v_00000029", linkageName: "_ZN2BB13gg_v_00000029Ev", scope: !7, file: !4, line: 103, type: !89, scopeLine: 103, containingType: !7, virtualIndex: 29, flags: DIFlagPublic | DIFlagPrototyped, spFlags: DISPFlagVirtual)
!121 = !DISubprogram(name: "gg_nv_00000000", linkageName: "_ZN2BB14gg_nv_00000000Ev", scope: !7, file: !4, line: 105, type: !89, scopeLine: 105, flags: DIFlagPublic | DIFlagPrototyped, spFlags: 0)
!122 = !DISubprogram(name: "gg_nv_00000001", linkageName: "_ZN2BB14gg_nv_00000001Ev", scope: !7, file: !4, line: 106, type: !89, scopeLine: 106, flags: DIFlagPublic | DIFlagPrototyped, spFlags: 0)
!123 = !DISubprogram(name: "gg_nv_00000002", linkageName: "_ZN2BB14gg_nv_00000002Ev", scope: !7, file: !4, line: 107, type: !89, scopeLine: 107, flags: DIFlagPublic | DIFlagPrototyped, spFlags: 0)
!124 = !DISubprogram(name: "gg_nv_00000003", linkageName: "_ZN2BB14gg_nv_00000003Ev", scope: !7, file: !4, line: 108, type: !89, scopeLine: 108, flags: DIFlagPublic | DIFlagPrototyped, spFlags: 0)
!125 = !DISubprogram(name: "gg_nv_00000004", linkageName: "_ZN2BB14gg_nv_00000004Ev", scope: !7, file: !4, line: 109, type: !89, scopeLine: 109, flags: DIFlagPublic | DIFlagPrototyped, spFlags: 0)
!126 = !DISubprogram(name: "gg_nv_00000005", linkageName: "_ZN2BB14gg_nv_00000005Ev", scope: !7, file: !4, line: 110, type: !89, scopeLine: 110, flags: DIFlagPublic | DIFlagPrototyped, spFlags: 0)
!127 = !DISubprogram(name: "gg_nv_00000006", linkageName: "_ZN2BB14gg_nv_00000006Ev", scope: !7, file: !4, line: 111, type: !89, scopeLine: 111, flags: DIFlagPublic | DIFlagPrototyped, spFlags: 0)
!128 = !DISubprogram(name: "gg_nv_00000007", linkageName: "_ZN2BB14gg_nv_00000007Ev", scope: !7, file: !4, line: 112, type: !89, scopeLine: 112, flags: DIFlagPublic | DIFlagPrototyped, spFlags: 0)
!129 = !DISubprogram(name: "gg_nv_00000008", linkageName: "_ZN2BB14gg_nv_00000008Ev", scope: !7, file: !4, line: 113, type: !89, scopeLine: 113, flags: DIFlagPublic | DIFlagPrototyped, spFlags: 0)
!130 = !DISubprogram(name: "gg_nv_00000009", linkageName: "_ZN2BB14gg_nv_00000009Ev", scope: !7, file: !4, line: 114, type: !89, scopeLine: 114, flags: DIFlagPublic | DIFlagPrototyped, spFlags: 0)
!131 = !DISubprogram(name: "gg_nv_00000010", linkageName: "_ZN2BB14gg_nv_00000010Ev", scope: !7, file: !4, line: 115, type: !89, scopeLine: 115, flags: DIFlagPublic | DIFlagPrototyped, spFlags: 0)
!132 = !DISubprogram(name: "gg_nv_00000011", linkageName: "_ZN2BB14gg_nv_00000011Ev", scope: !7, file: !4, line: 116, type: !89, scopeLine: 116, flags: DIFlagPublic | DIFlagPrototyped, spFlags: 0)
!133 = !DISubprogram(name: "gg_nv_00000012", linkageName: "_ZN2BB14gg_nv_00000012Ev", scope: !7, file: !4, line: 117, type: !89, scopeLine: 117, flags: DIFlagPublic | DIFlagPrototyped, spFlags: 0)
!134 = !DISubprogram(name: "gg_nv_00000013", linkageName: "_ZN2BB14gg_nv_00000013Ev", scope: !7, file: !4, line: 118, type: !89, scopeLine: 118, flags: DIFlagPublic | DIFlagPrototyped, spFlags: 0)
!135 = !DISubprogram(name: "gg_nv_00000014", linkageName: "_ZN2BB14gg_nv_00000014Ev", scope: !7, file: !4, line: 119, type: !89, scopeLine: 119, flags: DIFlagPublic | DIFlagPrototyped, spFlags: 0)
!136 = !DISubprogram(name: "gg_nv_00000015", linkageName: "_ZN2BB14gg_nv_00000015Ev", scope: !7, file: !4, line: 120, type: !89, scopeLine: 120, flags: DIFlagPublic | DIFlagPrototyped, spFlags: 0)
!137 = !DISubprogram(name: "gg_nv_00000016", linkageName: "_ZN2BB14gg_nv_00000016Ev", scope: !7, file: !4, line: 121, type: !89, scopeLine: 121, flags: DIFlagPublic | DIFlagPrototyped, spFlags: 0)
!138 = !DISubprogram(name: "gg_nv_00000017", linkageName: "_ZN2BB14gg_nv_00000017Ev", scope: !7, file: !4, line: 122, type: !89, scopeLine: 122, flags: DIFlagPublic | DIFlagPrototyped, spFlags: 0)
!139 = !DISubprogram(name: "gg_nv_00000018", linkageName: "_ZN2BB14gg_nv_00000018Ev", scope: !7, file: !4, line: 123, type: !89, scopeLine: 123, flags: DIFlagPublic | DIFlagPrototyped, spFlags: 0)
!140 = !DISubprogram(name: "gg_nv_00000019", linkageName: "_ZN2BB14gg_nv_00000019Ev", scope: !7, file: !4, line: 124, type: !89, scopeLine: 124, flags: DIFlagPublic | DIFlagPrototyped, spFlags: 0)
!141 = !DISubprogram(name: "gg_nv_00000020", linkageName: "_ZN2BB14gg_nv_00000020Ev", scope: !7, file: !4, line: 125, type: !89, scopeLine: 125, flags: DIFlagPublic | DIFlagPrototyped, spFlags: 0)
!142 = !DISubprogram(name: "gg_nv_00000021", linkageName: "_ZN2BB14gg_nv_00000021Ev", scope: !7, file: !4, line: 126, type: !89, scopeLine: 126, flags: DIFlagPublic | DIFlagPrototyped, spFlags: 0)
!143 = !DISubprogram(name: "gg_nv_00000022", linkageName: "_ZN2BB14gg_nv_00000022Ev", scope: !7, file: !4, line: 127, type: !89, scopeLine: 127, flags: DIFlagPublic | DIFlagPrototyped, spFlags: 0)
!144 = !DISubprogram(name: "gg_nv_00000023", linkageName: "_ZN2BB14gg_nv_00000023Ev", scope: !7, file: !4, line: 128, type: !89, scopeLine: 128, flags: DIFlagPublic | DIFlagPrototyped, spFlags: 0)
!145 = !DISubprogram(name: "gg_nv_00000024", linkageName: "_ZN2BB14gg_nv_00000024Ev", scope: !7, file: !4, line: 129, type: !89, scopeLine: 129, flags: DIFlagPublic | DIFlagPrototyped, spFlags: 0)
!146 = !DISubprogram(name: "gg_nv_00000025", linkageName: "_ZN2BB14gg_nv_00000025Ev", scope: !7, file: !4, line: 130, type: !89, scopeLine: 130, flags: DIFlagPublic | DIFlagPrototyped, spFlags: 0)
!147 = !DISubprogram(name: "gg_nv_00000026", linkageName: "_ZN2BB14gg_nv_00000026Ev", scope: !7, file: !4, line: 131, type: !89, scopeLine: 131, flags: DIFlagPublic | DIFlagPrototyped, spFlags: 0)
!148 = !DISubprogram(name: "gg_nv_00000027", linkageName: "_ZN2BB14gg_nv_00000027Ev", scope: !7, file: !4, line: 132, type: !89, scopeLine: 132, flags: DIFlagPublic | DIFlagPrototyped, spFlags: 0)
!149 = !DISubprogram(name: "gg_nv_00000028", linkageName: "_ZN2BB14gg_nv_00000028Ev", scope: !7, file: !4, line: 133, type: !89, scopeLine: 133, flags: DIFlagPublic | DIFlagPrototyped, spFlags: 0)
!150 = !DISubprogram(name: "gg_nv_00000029", linkageName: "_ZN2BB14gg_nv_00000029Ev", scope: !7, file: !4, line: 134, type: !89, scopeLine: 134, flags: DIFlagPublic | DIFlagPrototyped, spFlags: 0)
!151 = !DIDerivedType(tag: DW_TAG_inheritance, scope: !3, baseType: !152, offset: 128, flags: DIFlagPublic, extraData: i32 0)
!152 = distinct !DICompositeType(tag: DW_TAG_class_type, name: "CC", file: !4, line: 138, size: 256, flags: DIFlagTypePassByReference | DIFlagNonTrivial, elements: !153, vtableHolder: !152, identifier: "_ZTS2CC")
!153 = !{!154, !155, !156, !160, !164, !165, !166, !167, !168, !169, !170, !171, !172, !173, !174, !175, !176, !177, !178, !179, !180, !181, !182, !183, !184, !185, !186, !187, !188, !189, !190, !191, !192, !193, !194, !195, !196, !197, !198, !199, !200, !201, !202, !203, !204, !205, !206, !207, !208, !209, !210, !211, !212, !213, !214, !215, !216, !217, !218, !219, !220, !221, !222}
!154 = !DIDerivedType(tag: DW_TAG_inheritance, scope: !152, baseType: !10, offset: 24, flags: DIFlagPublic | DIFlagVirtual, extraData: i32 0)
!155 = !DIDerivedType(tag: DW_TAG_member, name: "_vptr$CC", scope: !4, file: !4, baseType: !13, size: 64, flags: DIFlagArtificial)
!156 = !DIDerivedType(tag: DW_TAG_member, name: "cc", scope: !152, file: !4, line: 140, baseType: !157, size: 64, offset: 64, flags: DIFlagPublic)
!157 = !DICompositeType(tag: DW_TAG_array_type, baseType: !17, size: 64, elements: !158)
!158 = !{!159}
!159 = !DISubrange(count: 2)
!160 = !DISubprogram(name: "hh_v_00000000", linkageName: "_ZN2CC13hh_v_00000000Ev", scope: !152, file: !4, line: 142, type: !161, scopeLine: 142, containingType: !152, virtualIndex: 0, flags: DIFlagPublic | DIFlagPrototyped, spFlags: DISPFlagVirtual)
!161 = !DISubroutineType(types: !162)
!162 = !{null, !163}
!163 = !DIDerivedType(tag: DW_TAG_pointer_type, baseType: !152, size: 64, flags: DIFlagArtificial | DIFlagObjectPointer)
!164 = !DISubprogram(name: "hh_v_00000001", linkageName: "_ZN2CC13hh_v_00000001Ev", scope: !152, file: !4, line: 143, type: !161, scopeLine: 143, containingType: !152, virtualIndex: 1, flags: DIFlagPublic | DIFlagPrototyped, spFlags: DISPFlagVirtual)
!165 = !DISubprogram(name: "hh_v_00000002", linkageName: "_ZN2CC13hh_v_00000002Ev", scope: !152, file: !4, line: 144, type: !161, scopeLine: 144, containingType: !152, virtualIndex: 2, flags: DIFlagPublic | DIFlagPrototyped, spFlags: DISPFlagVirtual)
!166 = !DISubprogram(name: "hh_v_00000003", linkageName: "_ZN2CC13hh_v_00000003Ev", scope: !152, file: !4, line: 145, type: !161, scopeLine: 145, containingType: !152, virtualIndex: 3, flags: DIFlagPublic | DIFlagPrototyped, spFlags: DISPFlagVirtual)
!167 = !DISubprogram(name: "hh_v_00000004", linkageName: "_ZN2CC13hh_v_00000004Ev", scope: !152, file: !4, line: 146, type: !161, scopeLine: 146, containingType: !152, virtualIndex: 4, flags: DIFlagPublic | DIFlagPrototyped, spFlags: DISPFlagVirtual)
!168 = !DISubprogram(name: "hh_v_00000005", linkageName: "_ZN2CC13hh_v_00000005Ev", scope: !152, file: !4, line: 147, type: !161, scopeLine: 147, containingType: !152, virtualIndex: 5, flags: DIFlagPublic | DIFlagPrototyped, spFlags: DISPFlagVirtual)
!169 = !DISubprogram(name: "hh_v_00000006", linkageName: "_ZN2CC13hh_v_00000006Ev", scope: !152, file: !4, line: 148, type: !161, scopeLine: 148, containingType: !152, virtualIndex: 6, flags: DIFlagPublic | DIFlagPrototyped, spFlags: DISPFlagVirtual)
!170 = !DISubprogram(name: "hh_v_00000007", linkageName: "_ZN2CC13hh_v_00000007Ev", scope: !152, file: !4, line: 149, type: !161, scopeLine: 149, containingType: !152, virtualIndex: 7, flags: DIFlagPublic | DIFlagPrototyped, spFlags: DISPFlagVirtual)
!171 = !DISubprogram(name: "hh_v_00000008", linkageName: "_ZN2CC13hh_v_00000008Ev", scope: !152, file: !4, line: 150, type: !161, scopeLine: 150, containingType: !152, virtualIndex: 8, flags: DIFlagPublic | DIFlagPrototyped, spFlags: DISPFlagVirtual)
!172 = !DISubprogram(name: "hh_v_00000009", linkageName: "_ZN2CC13hh_v_00000009Ev", scope: !152, file: !4, line: 151, type: !161, scopeLine: 151, containingType: !152, virtualIndex: 9, flags: DIFlagPublic | DIFlagPrototyped, spFlags: DISPFlagVirtual)
!173 = !DISubprogram(name: "hh_v_00000010", linkageName: "_ZN2CC13hh_v_00000010Ev", scope: !152, file: !4, line: 152, type: !161, scopeLine: 152, containingType: !152, virtualIndex: 10, flags: DIFlagPublic | DIFlagPrototyped, spFlags: DISPFlagVirtual)
!174 = !DISubprogram(name: "hh_v_00000011", linkageName: "_ZN2CC13hh_v_00000011Ev", scope: !152, file: !4, line: 153, type: !161, scopeLine: 153, containingType: !152, virtualIndex: 11, flags: DIFlagPublic | DIFlagPrototyped, spFlags: DISPFlagVirtual)
!175 = !DISubprogram(name: "hh_v_00000012", linkageName: "_ZN2CC13hh_v_00000012Ev", scope: !152, file: !4, line: 154, type: !161, scopeLine: 154, containingType: !152, virtualIndex: 12, flags: DIFlagPublic | DIFlagPrototyped, spFlags: DISPFlagVirtual)
!176 = !DISubprogram(name: "hh_v_00000013", linkageName: "_ZN2CC13hh_v_00000013Ev", scope: !152, file: !4, line: 155, type: !161, scopeLine: 155, containingType: !152, virtualIndex: 13, flags: DIFlagPublic | DIFlagPrototyped, spFlags: DISPFlagVirtual)
!177 = !DISubprogram(name: "hh_v_00000014", linkageName: "_ZN2CC13hh_v_00000014Ev", scope: !152, file: !4, line: 156, type: !161, scopeLine: 156, containingType: !152, virtualIndex: 14, flags: DIFlagPublic | DIFlagPrototyped, spFlags: DISPFlagVirtual)
!178 = !DISubprogram(name: "hh_v_00000015", linkageName: "_ZN2CC13hh_v_00000015Ev", scope: !152, file: !4, line: 157, type: !161, scopeLine: 157, containingType: !152, virtualIndex: 15, flags: DIFlagPublic | DIFlagPrototyped, spFlags: DISPFlagVirtual)
!179 = !DISubprogram(name: "hh_v_00000016", linkageName: "_ZN2CC13hh_v_00000016Ev", scope: !152, file: !4, line: 158, type: !161, scopeLine: 158, containingType: !152, virtualIndex: 16, flags: DIFlagPublic | DIFlagPrototyped, spFlags: DISPFlagVirtual)
!180 = !DISubprogram(name: "hh_v_00000017", linkageName: "_ZN2CC13hh_v_00000017Ev", scope: !152, file: !4, line: 159, type: !161, scopeLine: 159, containingType: !152, virtualIndex: 17, flags: DIFlagPublic | DIFlagPrototyped, spFlags: DISPFlagVirtual)
!181 = !DISubprogram(name: "hh_v_00000018", linkageName: "_ZN2CC13hh_v_00000018Ev", scope: !152, file: !4, line: 160, type: !161, scopeLine: 160, containingType: !152, virtualIndex: 18, flags: DIFlagPublic | DIFlagPrototyped, spFlags: DISPFlagVirtual)
!182 = !DISubprogram(name: "hh_v_00000019", linkageName: "_ZN2CC13hh_v_00000019Ev", scope: !152, file: !4, line: 161, type: !161, scopeLine: 161, containingType: !152, virtualIndex: 19, flags: DIFlagPublic | DIFlagPrototyped, spFlags: DISPFlagVirtual)
!183 = !DISubprogram(name: "hh_v_00000020", linkageName: "_ZN2CC13hh_v_00000020Ev", scope: !152, file: !4, line: 162, type: !161, scopeLine: 162, containingType: !152, virtualIndex: 20, flags: DIFlagPublic | DIFlagPrototyped, spFlags: DISPFlagVirtual)
!184 = !DISubprogram(name: "hh_v_00000021", linkageName: "_ZN2CC13hh_v_00000021Ev", scope: !152, file: !4, line: 163, type: !161, scopeLine: 163, containingType: !152, virtualIndex: 21, flags: DIFlagPublic | DIFlagPrototyped, spFlags: DISPFlagVirtual)
!185 = !DISubprogram(name: "hh_v_00000022", linkageName: "_ZN2CC13hh_v_00000022Ev", scope: !152, file: !4, line: 164, type: !161, scopeLine: 164, containingType: !152, virtualIndex: 22, flags: DIFlagPublic | DIFlagPrototyped, spFlags: DISPFlagVirtual)
!186 = !DISubprogram(name: "hh_v_00000023", linkageName: "_ZN2CC13hh_v_00000023Ev", scope: !152, file: !4, line: 165, type: !161, scopeLine: 165, containingType: !152, virtualIndex: 23, flags: DIFlagPublic | DIFlagPrototyped, spFlags: DISPFlagVirtual)
!187 = !DISubprogram(name: "hh_v_00000024", linkageName: "_ZN2CC13hh_v_00000024Ev", scope: !152, file: !4, line: 166, type: !161, scopeLine: 166, containingType: !152, virtualIndex: 24, flags: DIFlagPublic | DIFlagPrototyped, spFlags: DISPFlagVirtual)
!188 = !DISubprogram(name: "hh_v_00000025", linkageName: "_ZN2CC13hh_v_00000025Ev", scope: !152, file: !4, line: 167, type: !161, scopeLine: 167, containingType: !152, virtualIndex: 25, flags: DIFlagPublic | DIFlagPrototyped, spFlags: DISPFlagVirtual)
!189 = !DISubprogram(name: "hh_v_00000026", linkageName: "_ZN2CC13hh_v_00000026Ev", scope: !152, file: !4, line: 168, type: !161, scopeLine: 168, containingType: !152, virtualIndex: 26, flags: DIFlagPublic | DIFlagPrototyped, spFlags: DISPFlagVirtual)
!190 = !DISubprogram(name: "hh_v_00000027", linkageName: "_ZN2CC13hh_v_00000027Ev", scope: !152, file: !4, line: 169, type: !161, scopeLine: 169, containingType: !152, virtualIndex: 27, flags: DIFlagPublic | DIFlagPrototyped, spFlags: DISPFlagVirtual)
!191 = !DISubprogram(name: "hh_v_00000028", linkageName: "_ZN2CC13hh_v_00000028Ev", scope: !152, file: !4, line: 170, type: !161, scopeLine: 170, containingType: !152, virtualIndex: 28, flags: DIFlagPublic | DIFlagPrototyped, spFlags: DISPFlagVirtual)
!192 = !DISubprogram(name: "hh_v_00000029", linkageName: "_ZN2CC13hh_v_00000029Ev", scope: !152, file: !4, line: 171, type: !161, scopeLine: 171, containingType: !152, virtualIndex: 29, flags: DIFlagPublic | DIFlagPrototyped, spFlags: DISPFlagVirtual)
!193 = !DISubprogram(name: "hh_nv_00000000", linkageName: "_ZN2CC14hh_nv_00000000Ev", scope: !152, file: !4, line: 173, type: !161, scopeLine: 173, flags: DIFlagPublic | DIFlagPrototyped, spFlags: 0)
!194 = !DISubprogram(name: "hh_nv_00000001", linkageName: "_ZN2CC14hh_nv_00000001Ev", scope: !152, file: !4, line: 174, type: !161, scopeLine: 174, flags: DIFlagPublic | DIFlagPrototyped, spFlags: 0)
!195 = !DISubprogram(name: "hh_nv_00000002", linkageName: "_ZN2CC14hh_nv_00000002Ev", scope: !152, file: !4, line: 175, type: !161, scopeLine: 175, flags: DIFlagPublic | DIFlagPrototyped, spFlags: 0)
!196 = !DISubprogram(name: "hh_nv_00000003", linkageName: "_ZN2CC14hh_nv_00000003Ev", scope: !152, file: !4, line: 176, type: !161, scopeLine: 176, flags: DIFlagPublic | DIFlagPrototyped, spFlags: 0)
!197 = !DISubprogram(name: "hh_nv_00000004", linkageName: "_ZN2CC14hh_nv_00000004Ev", scope: !152, file: !4, line: 177, type: !161, scopeLine: 177, flags: DIFlagPublic | DIFlagPrototyped, spFlags: 0)
!198 = !DISubprogram(name: "hh_nv_00000005", linkageName: "_ZN2CC14hh_nv_00000005Ev", scope: !152, file: !4, line: 178, type: !161, scopeLine: 178, flags: DIFlagPublic | DIFlagPrototyped, spFlags: 0)
!199 = !DISubprogram(name: "hh_nv_00000006", linkageName: "_ZN2CC14hh_nv_00000006Ev", scope: !152, file: !4, line: 179, type: !161, scopeLine: 179, flags: DIFlagPublic | DIFlagPrototyped, spFlags: 0)
!200 = !DISubprogram(name: "hh_nv_00000007", linkageName: "_ZN2CC14hh_nv_00000007Ev", scope: !152, file: !4, line: 180, type: !161, scopeLine: 180, flags: DIFlagPublic | DIFlagPrototyped, spFlags: 0)
!201 = !DISubprogram(name: "hh_nv_00000008", linkageName: "_ZN2CC14hh_nv_00000008Ev", scope: !152, file: !4, line: 181, type: !161, scopeLine: 181, flags: DIFlagPublic | DIFlagPrototyped, spFlags: 0)
!202 = !DISubprogram(name: "hh_nv_00000009", linkageName: "_ZN2CC14hh_nv_00000009Ev", scope: !152, file: !4, line: 182, type: !161, scopeLine: 182, flags: DIFlagPublic | DIFlagPrototyped, spFlags: 0)
!203 = !DISubprogram(name: "hh_nv_00000010", linkageName: "_ZN2CC14hh_nv_00000010Ev", scope: !152, file: !4, line: 183, type: !161, scopeLine: 183, flags: DIFlagPublic | DIFlagPrototyped, spFlags: 0)
!204 = !DISubprogram(name: "hh_nv_00000011", linkageName: "_ZN2CC14hh_nv_00000011Ev", scope: !152, file: !4, line: 184, type: !161, scopeLine: 184, flags: DIFlagPublic | DIFlagPrototyped, spFlags: 0)
!205 = !DISubprogram(name: "hh_nv_00000012", linkageName: "_ZN2CC14hh_nv_00000012Ev", scope: !152, file: !4, line: 185, type: !161, scopeLine: 185, flags: DIFlagPublic | DIFlagPrototyped, spFlags: 0)
!206 = !DISubprogram(name: "hh_nv_00000013", linkageName: "_ZN2CC14hh_nv_00000013Ev", scope: !152, file: !4, line: 186, type: !161, scopeLine: 186, flags: DIFlagPublic | DIFlagPrototyped, spFlags: 0)
!207 = !DISubprogram(name: "hh_nv_00000014", linkageName: "_ZN2CC14hh_nv_00000014Ev", scope: !152, file: !4, line: 187, type: !161, scopeLine: 187, flags: DIFlagPublic | DIFlagPrototyped, spFlags: 0)
!208 = !DISubprogram(name: "hh_nv_00000015", linkageName: "_ZN2CC14hh_nv_00000015Ev", scope: !152, file: !4, line: 188, type: !161, scopeLine: 188, flags: DIFlagPublic | DIFlagPrototyped, spFlags: 0)
!209 = !DISubprogram(name: "hh_nv_00000016", linkageName: "_ZN2CC14hh_nv_00000016Ev", scope: !152, file: !4, line: 189, type: !161, scopeLine: 189, flags: DIFlagPublic | DIFlagPrototyped, spFlags: 0)
!210 = !DISubprogram(name: "hh_nv_00000017", linkageName: "_ZN2CC14hh_nv_00000017Ev", scope: !152, file: !4, line: 190, type: !161, scopeLine: 190, flags: DIFlagPublic | DIFlagPrototyped, spFlags: 0)
!211 = !DISubprogram(name: "hh_nv_00000018", linkageName: "_ZN2CC14hh_nv_00000018Ev", scope: !152, file: !4, line: 191, type: !161, scopeLine: 191, flags: DIFlagPublic | DIFlagPrototyped, spFlags: 0)
!212 = !DISubprogram(name: "hh_nv_00000019", linkageName: "_ZN2CC14hh_nv_00000019Ev", scope: !152, file: !4, line: 192, type: !161, scopeLine: 192, flags: DIFlagPublic | DIFlagPrototyped, spFlags: 0)
!213 = !DISubprogram(name: "hh_nv_00000020", linkageName: "_ZN2CC14hh_nv_00000020Ev", scope: !152, file: !4, line: 193, type: !161, scopeLine: 193, flags: DIFlagPublic | DIFlagPrototyped, spFlags: 0)
!214 = !DISubprogram(name: "hh_nv_00000021", linkageName: "_ZN2CC14hh_nv_00000021Ev", scope: !152, file: !4, line: 194, type: !161, scopeLine: 194, flags: DIFlagPublic | DIFlagPrototyped, spFlags: 0)
!215 = !DISubprogram(name: "hh_nv_00000022", linkageName: "_ZN2CC14hh_nv_00000022Ev", scope: !152, file: !4, line: 195, type: !161, scopeLine: 195, flags: DIFlagPublic | DIFlagPrototyped, spFlags: 0)
!216 = !DISubprogram(name: "hh_nv_00000023", linkageName: "_ZN2CC14hh_nv_00000023Ev", scope: !152, file: !4, line: 196, type: !161, scopeLine: 196, flags: DIFlagPublic | DIFlagPrototyped, spFlags: 0)
!217 = !DISubprogram(name: "hh_nv_00000024", linkageName: "_ZN2CC14hh_nv_00000024Ev", scope: !152, file: !4, line: 197, type: !161, scopeLine: 197, flags: DIFlagPublic | DIFlagPrototyped, spFlags: 0)
!218 = !DISubprogram(name: "hh_nv_00000025", linkageName: "_ZN2CC14hh_nv_00000025Ev", scope: !152, file: !4, line: 198, type: !161, scopeLine: 198, flags: DIFlagPublic | DIFlagPrototyped, spFlags: 0)
!219 = !DISubprogram(name: "hh_nv_00000026", linkageName: "_ZN2CC14hh_nv_00000026Ev", scope: !152, file: !4, line: 199, type: !161, scopeLine: 199, flags: DIFlagPublic | DIFlagPrototyped, spFlags: 0)
!220 = !DISubprogram(name: "hh_nv_00000027", linkageName: "_ZN2CC14hh_nv_00000027Ev", scope: !152, file: !4, line: 200, type: !161, scopeLine: 200, flags: DIFlagPublic | DIFlagPrototyped, spFlags: 0)
!221 = !DISubprogram(name: "hh_nv_00000028", linkageName: "_ZN2CC14hh_nv_00000028Ev", scope: !152, file: !4, line: 201, type: !161, scopeLine: 201, flags: DIFlagPublic | DIFlagPrototyped, spFlags: 0)
!222 = !DISubprogram(name: "hh_nv_00000029", linkageName: "_ZN2CC14hh_nv_00000029Ev", scope: !152, file: !4, line: 202, type: !161, scopeLine: 202, flags: DIFlagPublic | DIFlagPrototyped, spFlags: 0)
!223 = !DIDerivedType(tag: DW_TAG_member, name: "dd", scope: !3, file: !4, line: 208, baseType: !87, size: 64, offset: 256, flags: DIFlagPublic)
!224 = !DISubprogram(name: "kk_v_00000000", linkageName: "_ZN2DD13kk_v_00000000Ev", scope: !3, file: !4, line: 210, type: !225, scopeLine: 210, containingType: !3, virtualIndex: 30, flags: DIFlagPublic | DIFlagPrototyped, spFlags: DISPFlagVirtual)
!225 = !DISubroutineType(types: !226)
!226 = !{null, !227}
!227 = !DIDerivedType(tag: DW_TAG_pointer_type, baseType: !3, size: 64, flags: DIFlagArtificial | DIFlagObjectPointer)
!228 = !DISubprogram(name: "kk_v_00000001", linkageName: "_ZN2DD13kk_v_00000001Ev", scope: !3, file: !4, line: 211, type: !225, scopeLine: 211, containingType: !3, virtualIndex: 31, flags: DIFlagPublic | DIFlagPrototyped, spFlags: DISPFlagVirtual)
!229 = !DISubprogram(name: "kk_v_00000002", linkageName: "_ZN2DD13kk_v_00000002Ev", scope: !3, file: !4, line: 212, type: !225, scopeLine: 212, containingType: !3, virtualIndex: 32, flags: DIFlagPublic | DIFlagPrototyped, spFlags: DISPFlagVirtual)
!230 = !DISubprogram(name: "kk_v_00000003", linkageName: "_ZN2DD13kk_v_00000003Ev", scope: !3, file: !4, line: 213, type: !225, scopeLine: 213, containingType: !3, virtualIndex: 33, flags: DIFlagPublic | DIFlagPrototyped, spFlags: DISPFlagVirtual)
!231 = !DISubprogram(name: "kk_v_00000004", linkageName: "_ZN2DD13kk_v_00000004Ev", scope: !3, file: !4, line: 214, type: !225, scopeLine: 214, containingType: !3, virtualIndex: 34, flags: DIFlagPublic | DIFlagPrototyped, spFlags: DISPFlagVirtual)
!232 = !DISubprogram(name: "kk_v_00000005", linkageName: "_ZN2DD13kk_v_00000005Ev", scope: !3, file: !4, line: 215, type: !225, scopeLine: 215, containingType: !3, virtualIndex: 35, flags: DIFlagPublic | DIFlagPrototyped, spFlags: DISPFlagVirtual)
!233 = !DISubprogram(name: "kk_v_00000006", linkageName: "_ZN2DD13kk_v_00000006Ev", scope: !3, file: !4, line: 216, type: !225, scopeLine: 216, containingType: !3, virtualIndex: 36, flags: DIFlagPublic | DIFlagPrototyped, spFlags: DISPFlagVirtual)
!234 = !DISubprogram(name: "kk_v_00000007", linkageName: "_ZN2DD13kk_v_00000007Ev", scope: !3, file: !4, line: 217, type: !225, scopeLine: 217, containingType: !3, virtualIndex: 37, flags: DIFlagPublic | DIFlagPrototyped, spFlags: DISPFlagVirtual)
!235 = !DISubprogram(name: "kk_v_00000008", linkageName: "_ZN2DD13kk_v_00000008Ev", scope: !3, file: !4, line: 218, type: !225, scopeLine: 218, containingType: !3, virtualIndex: 38, flags: DIFlagPublic | DIFlagPrototyped, spFlags: DISPFlagVirtual)
!236 = !DISubprogram(name: "kk_v_00000009", linkageName: "_ZN2DD13kk_v_00000009Ev", scope: !3, file: !4, line: 219, type: !225, scopeLine: 219, containingType: !3, virtualIndex: 39, flags: DIFlagPublic | DIFlagPrototyped, spFlags: DISPFlagVirtual)
!237 = !DISubprogram(name: "kk_v_00000010", linkageName: "_ZN2DD13kk_v_00000010Ev", scope: !3, file: !4, line: 220, type: !225, scopeLine: 220, containingType: !3, virtualIndex: 40, flags: DIFlagPublic | DIFlagPrototyped, spFlags: DISPFlagVirtual)
!238 = !DISubprogram(name: "kk_v_00000011", linkageName: "_ZN2DD13kk_v_00000011Ev", scope: !3, file: !4, line: 221, type: !225, scopeLine: 221, containingType: !3, virtualIndex: 41, flags: DIFlagPublic | DIFlagPrototyped, spFlags: DISPFlagVirtual)
!239 = !DISubprogram(name: "kk_v_00000012", linkageName: "_ZN2DD13kk_v_00000012Ev", scope: !3, file: !4, line: 222, type: !225, scopeLine: 222, containingType: !3, virtualIndex: 42, flags: DIFlagPublic | DIFlagPrototyped, spFlags: DISPFlagVirtual)
!240 = !DISubprogram(name: "kk_v_00000013", linkageName: "_ZN2DD13kk_v_00000013Ev", scope: !3, file: !4, line: 223, type: !225, scopeLine: 223, containingType: !3, virtualIndex: 43, flags: DIFlagPublic | DIFlagPrototyped, spFlags: DISPFlagVirtual)
!241 = !DISubprogram(name: "kk_v_00000014", linkageName: "_ZN2DD13kk_v_00000014Ev", scope: !3, file: !4, line: 224, type: !225, scopeLine: 224, containingType: !3, virtualIndex: 44, flags: DIFlagPublic | DIFlagPrototyped, spFlags: DISPFlagVirtual)
!242 = !DISubprogram(name: "kk_v_00000015", linkageName: "_ZN2DD13kk_v_00000015Ev", scope: !3, file: !4, line: 225, type: !225, scopeLine: 225, containingType: !3, virtualIndex: 45, flags: DIFlagPublic | DIFlagPrototyped, spFlags: DISPFlagVirtual)
!243 = !DISubprogram(name: "kk_v_00000016", linkageName: "_ZN2DD13kk_v_00000016Ev", scope: !3, file: !4, line: 226, type: !225, scopeLine: 226, containingType: !3, virtualIndex: 46, flags: DIFlagPublic | DIFlagPrototyped, spFlags: DISPFlagVirtual)
!244 = !DISubprogram(name: "kk_v_00000017", linkageName: "_ZN2DD13kk_v_00000017Ev", scope: !3, file: !4, line: 227, type: !225, scopeLine: 227, containingType: !3, virtualIndex: 47, flags: DIFlagPublic | DIFlagPrototyped, spFlags: DISPFlagVirtual)
!245 = !DISubprogram(name: "kk_v_00000018", linkageName: "_ZN2DD13kk_v_00000018Ev", scope: !3, file: !4, line: 228, type: !225, scopeLine: 228, containingType: !3, virtualIndex: 48, flags: DIFlagPublic | DIFlagPrototyped, spFlags: DISPFlagVirtual)
!246 = !DISubprogram(name: "kk_v_00000019", linkageName: "_ZN2DD13kk_v_00000019Ev", scope: !3, file: !4, line: 229, type: !225, scopeLine: 229, containingType: !3, virtualIndex: 49, flags: DIFlagPublic | DIFlagPrototyped, spFlags: DISPFlagVirtual)
!247 = !DISubprogram(name: "kk_v_00000020", linkageName: "_ZN2DD13kk_v_00000020Ev", scope: !3, file: !4, line: 230, type: !225, scopeLine: 230, containingType: !3, virtualIndex: 50, flags: DIFlagPublic | DIFlagPrototyped, spFlags: DISPFlagVirtual)
!248 = !DISubprogram(name: "kk_v_00000021", linkageName: "_ZN2DD13kk_v_00000021Ev", scope: !3, file: !4, line: 231, type: !225, scopeLine: 231, containingType: !3, virtualIndex: 51, flags: DIFlagPublic | DIFlagPrototyped, spFlags: DISPFlagVirtual)
!249 = !DISubprogram(name: "kk_v_00000022", linkageName: "_ZN2DD13kk_v_00000022Ev", scope: !3, file: !4, line: 232, type: !225, scopeLine: 232, containingType: !3, virtualIndex: 52, flags: DIFlagPublic | DIFlagPrototyped, spFlags: DISPFlagVirtual)
!250 = !DISubprogram(name: "kk_v_00000023", linkageName: "_ZN2DD13kk_v_00000023Ev", scope: !3, file: !4, line: 233, type: !225, scopeLine: 233, containingType: !3, virtualIndex: 53, flags: DIFlagPublic | DIFlagPrototyped, spFlags: DISPFlagVirtual)
!251 = !DISubprogram(name: "kk_v_00000024", linkageName: "_ZN2DD13kk_v_00000024Ev", scope: !3, file: !4, line: 234, type: !225, scopeLine: 234, containingType: !3, virtualIndex: 54, flags: DIFlagPublic | DIFlagPrototyped, spFlags: DISPFlagVirtual)
!252 = !DISubprogram(name: "kk_v_00000025", linkageName: "_ZN2DD13kk_v_00000025Ev", scope: !3, file: !4, line: 235, type: !225, scopeLine: 235, containingType: !3, virtualIndex: 55, flags: DIFlagPublic | DIFlagPrototyped, spFlags: DISPFlagVirtual)
!253 = !DISubprogram(name: "gg_v_00000000", linkageName: "_ZN2DD13gg_v_00000000Ev", scope: !3, file: !4, line: 237, type: !225, scopeLine: 237, containingType: !3, virtualIndex: 0, flags: DIFlagPublic | DIFlagPrototyped, spFlags: DISPFlagVirtual)
!254 = !DISubprogram(name: "gg_v_00000001", linkageName: "_ZN2DD13gg_v_00000001Ev", scope: !3, file: !4, line: 238, type: !225, scopeLine: 238, containingType: !3, virtualIndex: 1, flags: DIFlagPublic | DIFlagPrototyped, spFlags: DISPFlagVirtual)
!255 = !DISubprogram(name: "gg_v_00000002", linkageName: "_ZN2DD13gg_v_00000002Ev", scope: !3, file: !4, line: 239, type: !225, scopeLine: 239, containingType: !3, virtualIndex: 2, flags: DIFlagPublic | DIFlagPrototyped, spFlags: DISPFlagVirtual)
!256 = !DISubprogram(name: "hh_v_00000000", linkageName: "_ZN2DD13hh_v_00000000Ev", scope: !3, file: !4, line: 241, type: !225, scopeLine: 241, containingType: !3, virtualIndex: 56, flags: DIFlagPublic | DIFlagPrototyped, spFlags: DISPFlagVirtual)
!257 = !DISubprogram(name: "hh_v_00000001", linkageName: "_ZN2DD13hh_v_00000001Ev", scope: !3, file: !4, line: 242, type: !225, scopeLine: 242, containingType: !3, virtualIndex: 57, flags: DIFlagPublic | DIFlagPrototyped, spFlags: DISPFlagVirtual)
!258 = !DISubprogram(name: "hh_v_00000002", linkageName: "_ZN2DD13hh_v_00000002Ev", scope: !3, file: !4, line: 243, type: !225, scopeLine: 243, containingType: !3, virtualIndex: 58, flags: DIFlagPublic | DIFlagPrototyped, spFlags: DISPFlagVirtual)
!259 = !DISubprogram(name: "hh_v_00000003", linkageName: "_ZN2DD13hh_v_00000003Ev", scope: !3, file: !4, line: 244, type: !225, scopeLine: 244, containingType: !3, virtualIndex: 59, flags: DIFlagPublic | DIFlagPrototyped, spFlags: DISPFlagVirtual)
!260 = !DISubprogram(name: "hh_v_00000004", linkageName: "_ZN2DD13hh_v_00000004Ev", scope: !3, file: !4, line: 245, type: !225, scopeLine: 245, containingType: !3, virtualIndex: 60, flags: DIFlagPublic | DIFlagPrototyped, spFlags: DISPFlagVirtual)
!261 = !DISubprogram(name: "hh_v_00000005", linkageName: "_ZN2DD13hh_v_00000005Ev", scope: !3, file: !4, line: 246, type: !225, scopeLine: 246, containingType: !3, virtualIndex: 61, flags: DIFlagPublic | DIFlagPrototyped, spFlags: DISPFlagVirtual)
!262 = !DISubprogram(name: "ff_v_00000000", linkageName: "_ZN2DD13ff_v_00000000Ev", scope: !3, file: !4, line: 248, type: !225, scopeLine: 248, containingType: !3, virtualIndex: 62, flags: DIFlagPublic | DIFlagPrototyped, spFlags: DISPFlagVirtual)
!263 = !DISubprogram(name: "ff_v_00000001", linkageName: "_ZN2DD13ff_v_00000001Ev", scope: !3, file: !4, line: 249, type: !225, scopeLine: 249, containingType: !3, virtualIndex: 63, flags: DIFlagPublic | DIFlagPrototyped, spFlags: DISPFlagVirtual)
!264 = !DISubprogram(name: "ff_v_00000002", linkageName: "_ZN2DD13ff_v_00000002Ev", scope: !3, file: !4, line: 250, type: !225, scopeLine: 250, containingType: !3, virtualIndex: 64, flags: DIFlagPublic | DIFlagPrototyped, spFlags: DISPFlagVirtual)
!265 = !DISubprogram(name: "ff_v_00000003", linkageName: "_ZN2DD13ff_v_00000003Ev", scope: !3, file: !4, line: 251, type: !225, scopeLine: 251, containingType: !3, virtualIndex: 65, flags: DIFlagPublic | DIFlagPrototyped, spFlags: DISPFlagVirtual)
!266 = !DISubprogram(name: "ff_v_00000004", linkageName: "_ZN2DD13ff_v_00000004Ev", scope: !3, file: !4, line: 252, type: !225, scopeLine: 252, containingType: !3, virtualIndex: 66, flags: DIFlagPublic | DIFlagPrototyped, spFlags: DISPFlagVirtual)
!267 = !DISubprogram(name: "ff_v_00000005", linkageName: "_ZN2DD13ff_v_00000005Ev", scope: !3, file: !4, line: 253, type: !225, scopeLine: 253, containingType: !3, virtualIndex: 67, flags: DIFlagPublic | DIFlagPrototyped, spFlags: DISPFlagVirtual)
!268 = !DISubprogram(name: "ff_v_00000006", linkageName: "_ZN2DD13ff_v_00000006Ev", scope: !3, file: !4, line: 254, type: !225, scopeLine: 254, containingType: !3, virtualIndex: 68, flags: DIFlagPublic | DIFlagPrototyped, spFlags: DISPFlagVirtual)
!269 = !DISubprogram(name: "ff_v_00000007", linkageName: "_ZN2DD13ff_v_00000007Ev", scope: !3, file: !4, line: 255, type: !225, scopeLine: 255, containingType: !3, virtualIndex: 69, flags: DIFlagPublic | DIFlagPrototyped, spFlags: DISPFlagVirtual)
!270 = !DISubprogram(name: "ff_v_00000008", linkageName: "_ZN2DD13ff_v_00000008Ev", scope: !3, file: !4, line: 256, type: !225, scopeLine: 256, containingType: !3, virtualIndex: 70, flags: DIFlagPublic | DIFlagPrototyped, spFlags: DISPFlagVirtual)
!271 = !DISubprogram(name: "ff_v_00000009", linkageName: "_ZN2DD13ff_v_00000009Ev", scope: !3, file: !4, line: 257, type: !225, scopeLine: 257, containingType: !3, virtualIndex: 71, flags: DIFlagPublic | DIFlagPrototyped, spFlags: DISPFlagVirtual)
!272 = !DISubprogram(name: "ff_v_00000010", linkageName: "_ZN2DD13ff_v_00000010Ev", scope: !3, file: !4, line: 258, type: !225, scopeLine: 258, containingType: !3, virtualIndex: 72, flags: DIFlagPublic | DIFlagPrototyped, spFlags: DISPFlagVirtual)
!273 = !DISubprogram(name: "ff_v_00000011", linkageName: "_ZN2DD13ff_v_00000011Ev", scope: !3, file: !4, line: 259, type: !225, scopeLine: 259, containingType: !3, virtualIndex: 73, flags: DIFlagPublic | DIFlagPrototyped, spFlags: DISPFlagVirtual)
!274 = !DISubprogram(name: "ff_v_00000012", linkageName: "_ZN2DD13ff_v_00000012Ev", scope: !3, file: !4, line: 260, type: !225, scopeLine: 260, containingType: !3, virtualIndex: 74, flags: DIFlagPublic | DIFlagPrototyped, spFlags: DISPFlagVirtual)
!275 = !DISubprogram(name: "ff_v_00000013", linkageName: "_ZN2DD13ff_v_00000013Ev", scope: !3, file: !4, line: 261, type: !225, scopeLine: 261, containingType: !3, virtualIndex: 75, flags: DIFlagPublic | DIFlagPrototyped, spFlags: DISPFlagVirtual)
!276 = !DISubprogram(name: "ff_v_00000014", linkageName: "_ZN2DD13ff_v_00000014Ev", scope: !3, file: !4, line: 262, type: !225, scopeLine: 262, containingType: !3, virtualIndex: 76, flags: DIFlagPublic | DIFlagPrototyped, spFlags: DISPFlagVirtual)
!277 = !DISubprogram(name: "ff_v_00000015", linkageName: "_ZN2DD13ff_v_00000015Ev", scope: !3, file: !4, line: 263, type: !225, scopeLine: 263, containingType: !3, virtualIndex: 77, flags: DIFlagPublic | DIFlagPrototyped, spFlags: DISPFlagVirtual)
!278 = !DISubprogram(name: "ff_v_00000016", linkageName: "_ZN2DD13ff_v_00000016Ev", scope: !3, file: !4, line: 264, type: !225, scopeLine: 264, containingType: !3, virtualIndex: 78, flags: DIFlagPublic | DIFlagPrototyped, spFlags: DISPFlagVirtual)
!279 = !DISubprogram(name: "ff_v_00000017", linkageName: "_ZN2DD13ff_v_00000017Ev", scope: !3, file: !4, line: 265, type: !225, scopeLine: 265, containingType: !3, virtualIndex: 79, flags: DIFlagPublic | DIFlagPrototyped, spFlags: DISPFlagVirtual)
!280 = !DISubprogram(name: "ff_v_00000018", linkageName: "_ZN2DD13ff_v_00000018Ev", scope: !3, file: !4, line: 266, type: !225, scopeLine: 266, containingType: !3, virtualIndex: 80, flags: DIFlagPublic | DIFlagPrototyped, spFlags: DISPFlagVirtual)
!281 = !DISubprogram(name: "ff_v_00000019", linkageName: "_ZN2DD13ff_v_00000019Ev", scope: !3, file: !4, line: 267, type: !225, scopeLine: 267, containingType: !3, virtualIndex: 81, flags: DIFlagPublic | DIFlagPrototyped, spFlags: DISPFlagVirtual)
!282 = !DISubprogram(name: "ff_v_00000020", linkageName: "_ZN2DD13ff_v_00000020Ev", scope: !3, file: !4, line: 268, type: !225, scopeLine: 268, containingType: !3, virtualIndex: 82, flags: DIFlagPublic | DIFlagPrototyped, spFlags: DISPFlagVirtual)
!283 = !DISubprogram(name: "ff_v_00000021", linkageName: "_ZN2DD13ff_v_00000021Ev", scope: !3, file: !4, line: 269, type: !225, scopeLine: 269, containingType: !3, virtualIndex: 83, flags: DIFlagPublic | DIFlagPrototyped, spFlags: DISPFlagVirtual)
!284 = !DISubprogram(name: "ff_v_00000022", linkageName: "_ZN2DD13ff_v_00000022Ev", scope: !3, file: !4, line: 270, type: !225, scopeLine: 270, containingType: !3, virtualIndex: 84, flags: DIFlagPublic | DIFlagPrototyped, spFlags: DISPFlagVirtual)
!285 = !DISubprogram(name: "ff_v_00000023", linkageName: "_ZN2DD13ff_v_00000023Ev", scope: !3, file: !4, line: 271, type: !225, scopeLine: 271, containingType: !3, virtualIndex: 85, flags: DIFlagPublic | DIFlagPrototyped, spFlags: DISPFlagVirtual)
!286 = !DISubprogram(name: "ff_v_00000024", linkageName: "_ZN2DD13ff_v_00000024Ev", scope: !3, file: !4, line: 272, type: !225, scopeLine: 272, containingType: !3, virtualIndex: 86, flags: DIFlagPublic | DIFlagPrototyped, spFlags: DISPFlagVirtual)
!287 = !DISubprogram(name: "ff_v_00000025", linkageName: "_ZN2DD13ff_v_00000025Ev", scope: !3, file: !4, line: 273, type: !225, scopeLine: 273, containingType: !3, virtualIndex: 87, flags: DIFlagPublic | DIFlagPrototyped, spFlags: DISPFlagVirtual)
!288 = !DISubprogram(name: "ff_v_00000026", linkageName: "_ZN2DD13ff_v_00000026Ev", scope: !3, file: !4, line: 274, type: !225, scopeLine: 274, containingType: !3, virtualIndex: 88, flags: DIFlagPublic | DIFlagPrototyped, spFlags: DISPFlagVirtual)
!289 = !DISubprogram(name: "ff_v_00000027", linkageName: "_ZN2DD13ff_v_00000027Ev", scope: !3, file: !4, line: 275, type: !225, scopeLine: 275, containingType: !3, virtualIndex: 89, flags: DIFlagPublic | DIFlagPrototyped, spFlags: DISPFlagVirtual)
!290 = !DISubprogram(name: "ff_v_00000028", linkageName: "_ZN2DD13ff_v_00000028Ev", scope: !3, file: !4, line: 276, type: !225, scopeLine: 276, containingType: !3, virtualIndex: 90, flags: DIFlagPublic | DIFlagPrototyped, spFlags: DISPFlagVirtual)
!291 = !DISubprogram(name: "ff_v_00000029", linkageName: "_ZN2DD13ff_v_00000029Ev", scope: !3, file: !4, line: 277, type: !225, scopeLine: 277, containingType: !3, virtualIndex: 91, flags: DIFlagPublic | DIFlagPrototyped, spFlags: DISPFlagVirtual)
!292 = !DISubprogram(name: "ff_nv_00000000", linkageName: "_ZN2DD14ff_nv_00000000Ev", scope: !3, file: !4, line: 279, type: !225, scopeLine: 279, flags: DIFlagPublic | DIFlagPrototyped, spFlags: 0)
!293 = !DISubprogram(name: "ff_nv_00000001", linkageName: "_ZN2DD14ff_nv_00000001Ev", scope: !3, file: !4, line: 280, type: !225, scopeLine: 280, flags: DIFlagPublic | DIFlagPrototyped, spFlags: 0)
!294 = !DISubprogram(name: "ff_nv_00000002", linkageName: "_ZN2DD14ff_nv_00000002Ev", scope: !3, file: !4, line: 281, type: !225, scopeLine: 281, flags: DIFlagPublic | DIFlagPrototyped, spFlags: 0)
!295 = !DISubprogram(name: "ff_nv_00000003", linkageName: "_ZN2DD14ff_nv_00000003Ev", scope: !3, file: !4, line: 282, type: !225, scopeLine: 282, flags: DIFlagPublic | DIFlagPrototyped, spFlags: 0)
!296 = !DISubprogram(name: "ff_nv_00000004", linkageName: "_ZN2DD14ff_nv_00000004Ev", scope: !3, file: !4, line: 283, type: !225, scopeLine: 283, flags: DIFlagPublic | DIFlagPrototyped, spFlags: 0)
!297 = !DISubprogram(name: "ff_nv_00000005", linkageName: "_ZN2DD14ff_nv_00000005Ev", scope: !3, file: !4, line: 284, type: !225, scopeLine: 284, flags: DIFlagPublic | DIFlagPrototyped, spFlags: 0)
!298 = !DISubprogram(name: "ff_nv_00000006", linkageName: "_ZN2DD14ff_nv_00000006Ev", scope: !3, file: !4, line: 285, type: !225, scopeLine: 285, flags: DIFlagPublic | DIFlagPrototyped, spFlags: 0)
!299 = !DISubprogram(name: "ff_nv_00000007", linkageName: "_ZN2DD14ff_nv_00000007Ev", scope: !3, file: !4, line: 286, type: !225, scopeLine: 286, flags: DIFlagPublic | DIFlagPrototyped, spFlags: 0)
!300 = !DISubprogram(name: "ff_nv_00000008", linkageName: "_ZN2DD14ff_nv_00000008Ev", scope: !3, file: !4, line: 287, type: !225, scopeLine: 287, flags: DIFlagPublic | DIFlagPrototyped, spFlags: 0)
!301 = !DISubprogram(name: "ff_nv_00000009", linkageName: "_ZN2DD14ff_nv_00000009Ev", scope: !3, file: !4, line: 288, type: !225, scopeLine: 288, flags: DIFlagPublic | DIFlagPrototyped, spFlags: 0)
!302 = !DISubprogram(name: "ff_nv_00000010", linkageName: "_ZN2DD14ff_nv_00000010Ev", scope: !3, file: !4, line: 289, type: !225, scopeLine: 289, flags: DIFlagPublic | DIFlagPrototyped, spFlags: 0)
!303 = !DISubprogram(name: "ff_nv_00000011", linkageName: "_ZN2DD14ff_nv_00000011Ev", scope: !3, file: !4, line: 290, type: !225, scopeLine: 290, flags: DIFlagPublic | DIFlagPrototyped, spFlags: 0)
!304 = !DISubprogram(name: "ff_nv_00000012", linkageName: "_ZN2DD14ff_nv_00000012Ev", scope: !3, file: !4, line: 291, type: !225, scopeLine: 291, flags: DIFlagPublic | DIFlagPrototyped, spFlags: 0)
!305 = !DISubprogram(name: "ff_nv_00000013", linkageName: "_ZN2DD14ff_nv_00000013Ev", scope: !3, file: !4, line: 292, type: !225, scopeLine: 292, flags: DIFlagPublic | DIFlagPrototyped, spFlags: 0)
!306 = !DISubprogram(name: "ff_nv_00000014", linkageName: "_ZN2DD14ff_nv_00000014Ev", scope: !3, file: !4, line: 293, type: !225, scopeLine: 293, flags: DIFlagPublic | DIFlagPrototyped, spFlags: 0)
!307 = !DISubprogram(name: "ff_nv_00000015", linkageName: "_ZN2DD14ff_nv_00000015Ev", scope: !3, file: !4, line: 294, type: !225, scopeLine: 294, flags: DIFlagPublic | DIFlagPrototyped, spFlags: 0)
!308 = !DISubprogram(name: "ff_nv_00000016", linkageName: "_ZN2DD14ff_nv_00000016Ev", scope: !3, file: !4, line: 295, type: !225, scopeLine: 295, flags: DIFlagPublic | DIFlagPrototyped, spFlags: 0)
!309 = !DISubprogram(name: "ff_nv_00000017", linkageName: "_ZN2DD14ff_nv_00000017Ev", scope: !3, file: !4, line: 296, type: !225, scopeLine: 296, flags: DIFlagPublic | DIFlagPrototyped, spFlags: 0)
!310 = !DISubprogram(name: "ff_nv_00000018", linkageName: "_ZN2DD14ff_nv_00000018Ev", scope: !3, file: !4, line: 297, type: !225, scopeLine: 297, flags: DIFlagPublic | DIFlagPrototyped, spFlags: 0)
!311 = !DISubprogram(name: "ff_nv_00000019", linkageName: "_ZN2DD14ff_nv_00000019Ev", scope: !3, file: !4, line: 298, type: !225, scopeLine: 298, flags: DIFlagPublic | DIFlagPrototyped, spFlags: 0)
!312 = !DISubprogram(name: "ff_nv_00000020", linkageName: "_ZN2DD14ff_nv_00000020Ev", scope: !3, file: !4, line: 299, type: !225, scopeLine: 299, flags: DIFlagPublic | DIFlagPrototyped, spFlags: 0)
!313 = !DISubprogram(name: "ff_nv_00000021", linkageName: "_ZN2DD14ff_nv_00000021Ev", scope: !3, file: !4, line: 300, type: !225, scopeLine: 300, flags: DIFlagPublic | DIFlagPrototyped, spFlags: 0)
!314 = !DISubprogram(name: "ff_nv_00000022", linkageName: "_ZN2DD14ff_nv_00000022Ev", scope: !3, file: !4, line: 301, type: !225, scopeLine: 301, flags: DIFlagPublic | DIFlagPrototyped, spFlags: 0)
!315 = !DISubprogram(name: "ff_nv_00000023", linkageName: "_ZN2DD14ff_nv_00000023Ev", scope: !3, file: !4, line: 302, type: !225, scopeLine: 302, flags: DIFlagPublic | DIFlagPrototyped, spFlags: 0)
!316 = !DISubprogram(name: "ff_nv_00000024", linkageName: "_ZN2DD14ff_nv_00000024Ev", scope: !3, file: !4, line: 303, type: !225, scopeLine: 303, flags: DIFlagPublic | DIFlagPrototyped, spFlags: 0)
!317 = !DISubprogram(name: "ff_nv_00000025", linkageName: "_ZN2DD14ff_nv_00000025Ev", scope: !3, file: !4, line: 304, type: !225, scopeLine: 304, flags: DIFlagPublic | DIFlagPrototyped, spFlags: 0)
!318 = !DISubprogram(name: "ff_nv_00000026", linkageName: "_ZN2DD14ff_nv_00000026Ev", scope: !3, file: !4, line: 305, type: !225, scopeLine: 305, flags: DIFlagPublic | DIFlagPrototyped, spFlags: 0)
!319 = !DISubprogram(name: "ff_nv_00000027", linkageName: "_ZN2DD14ff_nv_00000027Ev", scope: !3, file: !4, line: 306, type: !225, scopeLine: 306, flags: DIFlagPublic | DIFlagPrototyped, spFlags: 0)
!320 = !DISubprogram(name: "ff_nv_00000028", linkageName: "_ZN2DD14ff_nv_00000028Ev", scope: !3, file: !4, line: 307, type: !225, scopeLine: 307, flags: DIFlagPublic | DIFlagPrototyped, spFlags: 0)
!321 = !DISubprogram(name: "ff_nv_00000029", linkageName: "_ZN2DD14ff_nv_00000029Ev", scope: !3, file: !4, line: 308, type: !225, scopeLine: 308, flags: DIFlagPublic | DIFlagPrototyped, spFlags: 0)
!322 = !{!"clang version 14.0.0"}
!323 = !{i32 7, !"Dwarf Version", i32 5}
!324 = !{i32 2, !"Debug Info Version", i32 3}
!325 = !{i32 1, !"wchar_size", i32 4}
!326 = !{i32 7, !"uwtable", i32 1}
!327 = !{i32 7, !"frame-pointer", i32 2}
!328 = distinct !DISubprogram(name: "test", linkageName: "_Z4testP2DDMS_FvvE", scope: !4, file: !4, line: 313, type: !329, scopeLine: 313, flags: DIFlagPrototyped, spFlags: DISPFlagDefinition, unit: !0, retainedNodes: !334)
!329 = !DISubroutineType(types: !330)
!330 = !{null, !331, !332}
!331 = !DIDerivedType(tag: DW_TAG_pointer_type, baseType: !3, size: 64)
!332 = !DIDerivedType(tag: DW_TAG_typedef, name: "MptrTy", file: !4, line: 312, baseType: !333)
!333 = !DIDerivedType(tag: DW_TAG_ptr_to_member_type, baseType: !225, size: 128, extraData: !3)
!334 = !{}
!335 = !DILocalVariable(name: "dptr", arg: 1, scope: !328, file: !4, line: 313, type: !331)
!336 = !DILocation(line: 0, scope: !328)
!337 = !DILocalVariable(name: "mfptr", arg: 2, scope: !328, file: !4, line: 313, type: !332)
!338 = !DILocation(line: 314, column: 4, scope: !328)
!339 = !DILocation(line: 315, column: 2, scope: !328)
!340 = distinct !DISubprogram(name: "main", scope: !4, file: !4, line: 318, type: !15, scopeLine: 318, flags: DIFlagPrototyped, spFlags: DISPFlagDefinition, unit: !0, retainedNodes: !334)
!341 = !DILocalVariable(name: "dobj", scope: !340, file: !4, line: 319, type: !3)
!342 = !DILocation(line: 319, column: 7, scope: !340)
!343 = !DILocation(line: 321, column: 4, scope: !340)
!344 = !DILocation(line: 323, column: 4, scope: !340)
!345 = !DILocation(line: 325, column: 4, scope: !340)
!346 = distinct !DISubprogram(name: "DD", linkageName: "_ZN2DDC1Ev", scope: !3, file: !4, line: 206, type: !225, scopeLine: 206, flags: DIFlagArtificial | DIFlagPrototyped, spFlags: DISPFlagDefinition, unit: !0, declaration: !347, retainedNodes: !334)
!347 = !DISubprogram(name: "DD", scope: !3, type: !225, flags: DIFlagPublic | DIFlagArtificial | DIFlagPrototyped, spFlags: 0)
!348 = !DILocalVariable(name: "this", arg: 1, scope: !346, type: !331, flags: DIFlagArtificial | DIFlagObjectPointer)
!349 = !DILocation(line: 0, scope: !346)
!350 = !DILocation(line: 206, column: 8, scope: !346)
!351 = distinct !DISubprogram(name: "ff_nv_00000000", linkageName: "_ZN2DD14ff_nv_00000000Ev", scope: !3, file: !4, line: 279, type: !225, scopeLine: 279, flags: DIFlagPrototyped, spFlags: DISPFlagDefinition, unit: !0, declaration: !292, retainedNodes: !334)
!352 = !DILocalVariable(name: "this", arg: 1, scope: !351, type: !331, flags: DIFlagArtificial | DIFlagObjectPointer)
!353 = !DILocation(line: 0, scope: !351)
!354 = !DILocation(line: 279, column: 28, scope: !351)
!355 = distinct !DISubprogram(name: "AA", linkageName: "_ZN2AAC2Ev", scope: !10, file: !4, line: 2, type: !22, scopeLine: 2, flags: DIFlagArtificial | DIFlagPrototyped, spFlags: DISPFlagDefinition, unit: !0, declaration: !356, retainedNodes: !334)
!356 = !DISubprogram(name: "AA", scope: !10, type: !22, flags: DIFlagPublic | DIFlagArtificial | DIFlagPrototyped, spFlags: 0)
!357 = !DILocalVariable(name: "this", arg: 1, scope: !355, type: !358, flags: DIFlagArtificial | DIFlagObjectPointer)
!358 = !DIDerivedType(tag: DW_TAG_pointer_type, baseType: !10, size: 64)
!359 = !DILocation(line: 0, scope: !355)
!360 = !DILocation(line: 2, column: 8, scope: !355)
!361 = distinct !DISubprogram(name: "BB", linkageName: "_ZN2BBC2Ev", scope: !7, file: !4, line: 70, type: !89, scopeLine: 70, flags: DIFlagArtificial | DIFlagPrototyped, spFlags: DISPFlagDefinition, unit: !0, declaration: !362, retainedNodes: !334)
!362 = !DISubprogram(name: "BB", scope: !7, type: !89, flags: DIFlagPublic | DIFlagArtificial | DIFlagPrototyped, spFlags: 0)
!363 = !DILocalVariable(name: "this", arg: 1, scope: !361, type: !364, flags: DIFlagArtificial | DIFlagObjectPointer)
!364 = !DIDerivedType(tag: DW_TAG_pointer_type, baseType: !7, size: 64)
!365 = !DILocation(line: 0, scope: !361)
!366 = !DILocalVariable(name: "vtt", arg: 2, scope: !361, type: !367, flags: DIFlagArtificial)
!367 = !DIDerivedType(tag: DW_TAG_pointer_type, baseType: !368, size: 64)
!368 = !DIDerivedType(tag: DW_TAG_pointer_type, baseType: null, size: 64)
!369 = !DILocation(line: 70, column: 8, scope: !361)
!370 = distinct !DISubprogram(name: "CC", linkageName: "_ZN2CCC2Ev", scope: !152, file: !4, line: 138, type: !161, scopeLine: 138, flags: DIFlagArtificial | DIFlagPrototyped, spFlags: DISPFlagDefinition, unit: !0, declaration: !371, retainedNodes: !334)
!371 = !DISubprogram(name: "CC", scope: !152, type: !161, flags: DIFlagPublic | DIFlagArtificial | DIFlagPrototyped, spFlags: 0)
!372 = !DILocalVariable(name: "this", arg: 1, scope: !370, type: !373, flags: DIFlagArtificial | DIFlagObjectPointer)
!373 = !DIDerivedType(tag: DW_TAG_pointer_type, baseType: !152, size: 64)
!374 = !DILocation(line: 0, scope: !370)
!375 = !DILocalVariable(name: "vtt", arg: 2, scope: !370, type: !367, flags: DIFlagArtificial)
!376 = !DILocation(line: 138, column: 8, scope: !370)
!377 = distinct !DISubprogram(name: "gg_v_00000000", linkageName: "_ZN2DD13gg_v_00000000Ev", scope: !3, file: !4, line: 237, type: !225, scopeLine: 237, flags: DIFlagPrototyped, spFlags: DISPFlagDefinition, unit: !0, declaration: !253, retainedNodes: !334)
!378 = !DILocalVariable(name: "this", arg: 1, scope: !377, type: !331, flags: DIFlagArtificial | DIFlagObjectPointer)
!379 = !DILocation(line: 0, scope: !377)
!380 = !DILocation(line: 237, column: 35, scope: !377)
!381 = distinct !DISubprogram(name: "gg_v_00000001", linkageName: "_ZN2DD13gg_v_00000001Ev", scope: !3, file: !4, line: 238, type: !225, scopeLine: 238, flags: DIFlagPrototyped, spFlags: DISPFlagDefinition, unit: !0, declaration: !254, retainedNodes: !334)
!382 = !DILocalVariable(name: "this", arg: 1, scope: !381, type: !331, flags: DIFlagArtificial | DIFlagObjectPointer)
!383 = !DILocation(line: 0, scope: !381)
!384 = !DILocation(line: 238, column: 35, scope: !381)
!385 = distinct !DISubprogram(name: "gg_v_00000002", linkageName: "_ZN2DD13gg_v_00000002Ev", scope: !3, file: !4, line: 239, type: !225, scopeLine: 239, flags: DIFlagPrototyped, spFlags: DISPFlagDefinition, unit: !0, declaration: !255, retainedNodes: !334)
!386 = !DILocalVariable(name: "this", arg: 1, scope: !385, type: !331, flags: DIFlagArtificial | DIFlagObjectPointer)
!387 = !DILocation(line: 0, scope: !385)
!388 = !DILocation(line: 239, column: 35, scope: !385)
!389 = distinct !DISubprogram(name: "gg_v_00000003", linkageName: "_ZN2BB13gg_v_00000003Ev", scope: !7, file: !4, line: 77, type: !89, scopeLine: 77, flags: DIFlagPrototyped, spFlags: DISPFlagDefinition, unit: !0, declaration: !94, retainedNodes: !334)
!390 = !DILocalVariable(name: "this", arg: 1, scope: !389, type: !364, flags: DIFlagArtificial | DIFlagObjectPointer)
!391 = !DILocation(line: 0, scope: !389)
!392 = !DILocation(line: 77, column: 35, scope: !389)
!393 = distinct !DISubprogram(name: "gg_v_00000004", linkageName: "_ZN2BB13gg_v_00000004Ev", scope: !7, file: !4, line: 78, type: !89, scopeLine: 78, flags: DIFlagPrototyped, spFlags: DISPFlagDefinition, unit: !0, declaration: !95, retainedNodes: !334)
!394 = !DILocalVariable(name: "this", arg: 1, scope: !393, type: !364, flags: DIFlagArtificial | DIFlagObjectPointer)
!395 = !DILocation(line: 0, scope: !393)
!396 = !DILocation(line: 78, column: 35, scope: !393)
!397 = distinct !DISubprogram(name: "gg_v_00000005", linkageName: "_ZN2BB13gg_v_00000005Ev", scope: !7, file: !4, line: 79, type: !89, scopeLine: 79, flags: DIFlagPrototyped, spFlags: DISPFlagDefinition, unit: !0, declaration: !96, retainedNodes: !334)
!398 = !DILocalVariable(name: "this", arg: 1, scope: !397, type: !364, flags: DIFlagArtificial | DIFlagObjectPointer)
!399 = !DILocation(line: 0, scope: !397)
!400 = !DILocation(line: 79, column: 35, scope: !397)
!401 = distinct !DISubprogram(name: "gg_v_00000006", linkageName: "_ZN2BB13gg_v_00000006Ev", scope: !7, file: !4, line: 80, type: !89, scopeLine: 80, flags: DIFlagPrototyped, spFlags: DISPFlagDefinition, unit: !0, declaration: !97, retainedNodes: !334)
!402 = !DILocalVariable(name: "this", arg: 1, scope: !401, type: !364, flags: DIFlagArtificial | DIFlagObjectPointer)
!403 = !DILocation(line: 0, scope: !401)
!404 = !DILocation(line: 80, column: 35, scope: !401)
!405 = distinct !DISubprogram(name: "gg_v_00000007", linkageName: "_ZN2BB13gg_v_00000007Ev", scope: !7, file: !4, line: 81, type: !89, scopeLine: 81, flags: DIFlagPrototyped, spFlags: DISPFlagDefinition, unit: !0, declaration: !98, retainedNodes: !334)
!406 = !DILocalVariable(name: "this", arg: 1, scope: !405, type: !364, flags: DIFlagArtificial | DIFlagObjectPointer)
!407 = !DILocation(line: 0, scope: !405)
!408 = !DILocation(line: 81, column: 35, scope: !405)
!409 = distinct !DISubprogram(name: "gg_v_00000008", linkageName: "_ZN2BB13gg_v_00000008Ev", scope: !7, file: !4, line: 82, type: !89, scopeLine: 82, flags: DIFlagPrototyped, spFlags: DISPFlagDefinition, unit: !0, declaration: !99, retainedNodes: !334)
!410 = !DILocalVariable(name: "this", arg: 1, scope: !409, type: !364, flags: DIFlagArtificial | DIFlagObjectPointer)
!411 = !DILocation(line: 0, scope: !409)
!412 = !DILocation(line: 82, column: 35, scope: !409)
!413 = distinct !DISubprogram(name: "gg_v_00000009", linkageName: "_ZN2BB13gg_v_00000009Ev", scope: !7, file: !4, line: 83, type: !89, scopeLine: 83, flags: DIFlagPrototyped, spFlags: DISPFlagDefinition, unit: !0, declaration: !100, retainedNodes: !334)
!414 = !DILocalVariable(name: "this", arg: 1, scope: !413, type: !364, flags: DIFlagArtificial | DIFlagObjectPointer)
!415 = !DILocation(line: 0, scope: !413)
!416 = !DILocation(line: 83, column: 35, scope: !413)
!417 = distinct !DISubprogram(name: "gg_v_00000010", linkageName: "_ZN2BB13gg_v_00000010Ev", scope: !7, file: !4, line: 84, type: !89, scopeLine: 84, flags: DIFlagPrototyped, spFlags: DISPFlagDefinition, unit: !0, declaration: !101, retainedNodes: !334)
!418 = !DILocalVariable(name: "this", arg: 1, scope: !417, type: !364, flags: DIFlagArtificial | DIFlagObjectPointer)
!419 = !DILocation(line: 0, scope: !417)
!420 = !DILocation(line: 84, column: 35, scope: !417)
!421 = distinct !DISubprogram(name: "gg_v_00000011", linkageName: "_ZN2BB13gg_v_00000011Ev", scope: !7, file: !4, line: 85, type: !89, scopeLine: 85, flags: DIFlagPrototyped, spFlags: DISPFlagDefinition, unit: !0, declaration: !102, retainedNodes: !334)
!422 = !DILocalVariable(name: "this", arg: 1, scope: !421, type: !364, flags: DIFlagArtificial | DIFlagObjectPointer)
!423 = !DILocation(line: 0, scope: !421)
!424 = !DILocation(line: 85, column: 35, scope: !421)
!425 = distinct !DISubprogram(name: "gg_v_00000012", linkageName: "_ZN2BB13gg_v_00000012Ev", scope: !7, file: !4, line: 86, type: !89, scopeLine: 86, flags: DIFlagPrototyped, spFlags: DISPFlagDefinition, unit: !0, declaration: !103, retainedNodes: !334)
!426 = !DILocalVariable(name: "this", arg: 1, scope: !425, type: !364, flags: DIFlagArtificial | DIFlagObjectPointer)
!427 = !DILocation(line: 0, scope: !425)
!428 = !DILocation(line: 86, column: 35, scope: !425)
!429 = distinct !DISubprogram(name: "gg_v_00000013", linkageName: "_ZN2BB13gg_v_00000013Ev", scope: !7, file: !4, line: 87, type: !89, scopeLine: 87, flags: DIFlagPrototyped, spFlags: DISPFlagDefinition, unit: !0, declaration: !104, retainedNodes: !334)
!430 = !DILocalVariable(name: "this", arg: 1, scope: !429, type: !364, flags: DIFlagArtificial | DIFlagObjectPointer)
!431 = !DILocation(line: 0, scope: !429)
!432 = !DILocation(line: 87, column: 35, scope: !429)
!433 = distinct !DISubprogram(name: "gg_v_00000014", linkageName: "_ZN2BB13gg_v_00000014Ev", scope: !7, file: !4, line: 88, type: !89, scopeLine: 88, flags: DIFlagPrototyped, spFlags: DISPFlagDefinition, unit: !0, declaration: !105, retainedNodes: !334)
!434 = !DILocalVariable(name: "this", arg: 1, scope: !433, type: !364, flags: DIFlagArtificial | DIFlagObjectPointer)
!435 = !DILocation(line: 0, scope: !433)
!436 = !DILocation(line: 88, column: 35, scope: !433)
!437 = distinct !DISubprogram(name: "gg_v_00000015", linkageName: "_ZN2BB13gg_v_00000015Ev", scope: !7, file: !4, line: 89, type: !89, scopeLine: 89, flags: DIFlagPrototyped, spFlags: DISPFlagDefinition, unit: !0, declaration: !106, retainedNodes: !334)
!438 = !DILocalVariable(name: "this", arg: 1, scope: !437, type: !364, flags: DIFlagArtificial | DIFlagObjectPointer)
!439 = !DILocation(line: 0, scope: !437)
!440 = !DILocation(line: 89, column: 35, scope: !437)
!441 = distinct !DISubprogram(name: "gg_v_00000016", linkageName: "_ZN2BB13gg_v_00000016Ev", scope: !7, file: !4, line: 90, type: !89, scopeLine: 90, flags: DIFlagPrototyped, spFlags: DISPFlagDefinition, unit: !0, declaration: !107, retainedNodes: !334)
!442 = !DILocalVariable(name: "this", arg: 1, scope: !441, type: !364, flags: DIFlagArtificial | DIFlagObjectPointer)
!443 = !DILocation(line: 0, scope: !441)
!444 = !DILocation(line: 90, column: 35, scope: !441)
!445 = distinct !DISubprogram(name: "gg_v_00000017", linkageName: "_ZN2BB13gg_v_00000017Ev", scope: !7, file: !4, line: 91, type: !89, scopeLine: 91, flags: DIFlagPrototyped, spFlags: DISPFlagDefinition, unit: !0, declaration: !108, retainedNodes: !334)
!446 = !DILocalVariable(name: "this", arg: 1, scope: !445, type: !364, flags: DIFlagArtificial | DIFlagObjectPointer)
!447 = !DILocation(line: 0, scope: !445)
!448 = !DILocation(line: 91, column: 35, scope: !445)
!449 = distinct !DISubprogram(name: "gg_v_00000018", linkageName: "_ZN2BB13gg_v_00000018Ev", scope: !7, file: !4, line: 92, type: !89, scopeLine: 92, flags: DIFlagPrototyped, spFlags: DISPFlagDefinition, unit: !0, declaration: !109, retainedNodes: !334)
!450 = !DILocalVariable(name: "this", arg: 1, scope: !449, type: !364, flags: DIFlagArtificial | DIFlagObjectPointer)
!451 = !DILocation(line: 0, scope: !449)
!452 = !DILocation(line: 92, column: 35, scope: !449)
!453 = distinct !DISubprogram(name: "gg_v_00000019", linkageName: "_ZN2BB13gg_v_00000019Ev", scope: !7, file: !4, line: 93, type: !89, scopeLine: 93, flags: DIFlagPrototyped, spFlags: DISPFlagDefinition, unit: !0, declaration: !110, retainedNodes: !334)
!454 = !DILocalVariable(name: "this", arg: 1, scope: !453, type: !364, flags: DIFlagArtificial | DIFlagObjectPointer)
!455 = !DILocation(line: 0, scope: !453)
!456 = !DILocation(line: 93, column: 35, scope: !453)
!457 = distinct !DISubprogram(name: "gg_v_00000020", linkageName: "_ZN2BB13gg_v_00000020Ev", scope: !7, file: !4, line: 94, type: !89, scopeLine: 94, flags: DIFlagPrototyped, spFlags: DISPFlagDefinition, unit: !0, declaration: !111, retainedNodes: !334)
!458 = !DILocalVariable(name: "this", arg: 1, scope: !457, type: !364, flags: DIFlagArtificial | DIFlagObjectPointer)
!459 = !DILocation(line: 0, scope: !457)
!460 = !DILocation(line: 94, column: 35, scope: !457)
!461 = distinct !DISubprogram(name: "gg_v_00000021", linkageName: "_ZN2BB13gg_v_00000021Ev", scope: !7, file: !4, line: 95, type: !89, scopeLine: 95, flags: DIFlagPrototyped, spFlags: DISPFlagDefinition, unit: !0, declaration: !112, retainedNodes: !334)
!462 = !DILocalVariable(name: "this", arg: 1, scope: !461, type: !364, flags: DIFlagArtificial | DIFlagObjectPointer)
!463 = !DILocation(line: 0, scope: !461)
!464 = !DILocation(line: 95, column: 35, scope: !461)
!465 = distinct !DISubprogram(name: "gg_v_00000022", linkageName: "_ZN2BB13gg_v_00000022Ev", scope: !7, file: !4, line: 96, type: !89, scopeLine: 96, flags: DIFlagPrototyped, spFlags: DISPFlagDefinition, unit: !0, declaration: !113, retainedNodes: !334)
!466 = !DILocalVariable(name: "this", arg: 1, scope: !465, type: !364, flags: DIFlagArtificial | DIFlagObjectPointer)
!467 = !DILocation(line: 0, scope: !465)
!468 = !DILocation(line: 96, column: 35, scope: !465)
!469 = distinct !DISubprogram(name: "gg_v_00000023", linkageName: "_ZN2BB13gg_v_00000023Ev", scope: !7, file: !4, line: 97, type: !89, scopeLine: 97, flags: DIFlagPrototyped, spFlags: DISPFlagDefinition, unit: !0, declaration: !114, retainedNodes: !334)
!470 = !DILocalVariable(name: "this", arg: 1, scope: !469, type: !364, flags: DIFlagArtificial | DIFlagObjectPointer)
!471 = !DILocation(line: 0, scope: !469)
!472 = !DILocation(line: 97, column: 35, scope: !469)
!473 = distinct !DISubprogram(name: "gg_v_00000024", linkageName: "_ZN2BB13gg_v_00000024Ev", scope: !7, file: !4, line: 98, type: !89, scopeLine: 98, flags: DIFlagPrototyped, spFlags: DISPFlagDefinition, unit: !0, declaration: !115, retainedNodes: !334)
!474 = !DILocalVariable(name: "this", arg: 1, scope: !473, type: !364, flags: DIFlagArtificial | DIFlagObjectPointer)
!475 = !DILocation(line: 0, scope: !473)
!476 = !DILocation(line: 98, column: 35, scope: !473)
!477 = distinct !DISubprogram(name: "gg_v_00000025", linkageName: "_ZN2BB13gg_v_00000025Ev", scope: !7, file: !4, line: 99, type: !89, scopeLine: 99, flags: DIFlagPrototyped, spFlags: DISPFlagDefinition, unit: !0, declaration: !116, retainedNodes: !334)
!478 = !DILocalVariable(name: "this", arg: 1, scope: !477, type: !364, flags: DIFlagArtificial | DIFlagObjectPointer)
!479 = !DILocation(line: 0, scope: !477)
!480 = !DILocation(line: 99, column: 35, scope: !477)
!481 = distinct !DISubprogram(name: "gg_v_00000026", linkageName: "_ZN2BB13gg_v_00000026Ev", scope: !7, file: !4, line: 100, type: !89, scopeLine: 100, flags: DIFlagPrototyped, spFlags: DISPFlagDefinition, unit: !0, declaration: !117, retainedNodes: !334)
!482 = !DILocalVariable(name: "this", arg: 1, scope: !481, type: !364, flags: DIFlagArtificial | DIFlagObjectPointer)
!483 = !DILocation(line: 0, scope: !481)
!484 = !DILocation(line: 100, column: 35, scope: !481)
!485 = distinct !DISubprogram(name: "gg_v_00000027", linkageName: "_ZN2BB13gg_v_00000027Ev", scope: !7, file: !4, line: 101, type: !89, scopeLine: 101, flags: DIFlagPrototyped, spFlags: DISPFlagDefinition, unit: !0, declaration: !118, retainedNodes: !334)
!486 = !DILocalVariable(name: "this", arg: 1, scope: !485, type: !364, flags: DIFlagArtificial | DIFlagObjectPointer)
!487 = !DILocation(line: 0, scope: !485)
!488 = !DILocation(line: 101, column: 35, scope: !485)
!489 = distinct !DISubprogram(name: "gg_v_00000028", linkageName: "_ZN2BB13gg_v_00000028Ev", scope: !7, file: !4, line: 102, type: !89, scopeLine: 102, flags: DIFlagPrototyped, spFlags: DISPFlagDefinition, unit: !0, declaration: !119, retainedNodes: !334)
!490 = !DILocalVariable(name: "this", arg: 1, scope: !489, type: !364, flags: DIFlagArtificial | DIFlagObjectPointer)
!491 = !DILocation(line: 0, scope: !489)
!492 = !DILocation(line: 102, column: 35, scope: !489)
!493 = distinct !DISubprogram(name: "gg_v_00000029", linkageName: "_ZN2BB13gg_v_00000029Ev", scope: !7, file: !4, line: 103, type: !89, scopeLine: 103, flags: DIFlagPrototyped, spFlags: DISPFlagDefinition, unit: !0, declaration: !120, retainedNodes: !334)
!494 = !DILocalVariable(name: "this", arg: 1, scope: !493, type: !364, flags: DIFlagArtificial | DIFlagObjectPointer)
!495 = !DILocation(line: 0, scope: !493)
!496 = !DILocation(line: 103, column: 35, scope: !493)
!497 = distinct !DISubprogram(name: "kk_v_00000000", linkageName: "_ZN2DD13kk_v_00000000Ev", scope: !3, file: !4, line: 210, type: !225, scopeLine: 210, flags: DIFlagPrototyped, spFlags: DISPFlagDefinition, unit: !0, declaration: !224, retainedNodes: !334)
!498 = !DILocalVariable(name: "this", arg: 1, scope: !497, type: !331, flags: DIFlagArtificial | DIFlagObjectPointer)
!499 = !DILocation(line: 0, scope: !497)
!500 = !DILocation(line: 210, column: 35, scope: !497)
!501 = distinct !DISubprogram(name: "kk_v_00000001", linkageName: "_ZN2DD13kk_v_00000001Ev", scope: !3, file: !4, line: 211, type: !225, scopeLine: 211, flags: DIFlagPrototyped, spFlags: DISPFlagDefinition, unit: !0, declaration: !228, retainedNodes: !334)
!502 = !DILocalVariable(name: "this", arg: 1, scope: !501, type: !331, flags: DIFlagArtificial | DIFlagObjectPointer)
!503 = !DILocation(line: 0, scope: !501)
!504 = !DILocation(line: 211, column: 35, scope: !501)
!505 = distinct !DISubprogram(name: "kk_v_00000002", linkageName: "_ZN2DD13kk_v_00000002Ev", scope: !3, file: !4, line: 212, type: !225, scopeLine: 212, flags: DIFlagPrototyped, spFlags: DISPFlagDefinition, unit: !0, declaration: !229, retainedNodes: !334)
!506 = !DILocalVariable(name: "this", arg: 1, scope: !505, type: !331, flags: DIFlagArtificial | DIFlagObjectPointer)
!507 = !DILocation(line: 0, scope: !505)
!508 = !DILocation(line: 212, column: 35, scope: !505)
!509 = distinct !DISubprogram(name: "kk_v_00000003", linkageName: "_ZN2DD13kk_v_00000003Ev", scope: !3, file: !4, line: 213, type: !225, scopeLine: 213, flags: DIFlagPrototyped, spFlags: DISPFlagDefinition, unit: !0, declaration: !230, retainedNodes: !334)
!510 = !DILocalVariable(name: "this", arg: 1, scope: !509, type: !331, flags: DIFlagArtificial | DIFlagObjectPointer)
!511 = !DILocation(line: 0, scope: !509)
!512 = !DILocation(line: 213, column: 35, scope: !509)
!513 = distinct !DISubprogram(name: "kk_v_00000004", linkageName: "_ZN2DD13kk_v_00000004Ev", scope: !3, file: !4, line: 214, type: !225, scopeLine: 214, flags: DIFlagPrototyped, spFlags: DISPFlagDefinition, unit: !0, declaration: !231, retainedNodes: !334)
!514 = !DILocalVariable(name: "this", arg: 1, scope: !513, type: !331, flags: DIFlagArtificial | DIFlagObjectPointer)
!515 = !DILocation(line: 0, scope: !513)
!516 = !DILocation(line: 214, column: 35, scope: !513)
!517 = distinct !DISubprogram(name: "kk_v_00000005", linkageName: "_ZN2DD13kk_v_00000005Ev", scope: !3, file: !4, line: 215, type: !225, scopeLine: 215, flags: DIFlagPrototyped, spFlags: DISPFlagDefinition, unit: !0, declaration: !232, retainedNodes: !334)
!518 = !DILocalVariable(name: "this", arg: 1, scope: !517, type: !331, flags: DIFlagArtificial | DIFlagObjectPointer)
!519 = !DILocation(line: 0, scope: !517)
!520 = !DILocation(line: 215, column: 35, scope: !517)
!521 = distinct !DISubprogram(name: "kk_v_00000006", linkageName: "_ZN2DD13kk_v_00000006Ev", scope: !3, file: !4, line: 216, type: !225, scopeLine: 216, flags: DIFlagPrototyped, spFlags: DISPFlagDefinition, unit: !0, declaration: !233, retainedNodes: !334)
!522 = !DILocalVariable(name: "this", arg: 1, scope: !521, type: !331, flags: DIFlagArtificial | DIFlagObjectPointer)
!523 = !DILocation(line: 0, scope: !521)
!524 = !DILocation(line: 216, column: 35, scope: !521)
!525 = distinct !DISubprogram(name: "kk_v_00000007", linkageName: "_ZN2DD13kk_v_00000007Ev", scope: !3, file: !4, line: 217, type: !225, scopeLine: 217, flags: DIFlagPrototyped, spFlags: DISPFlagDefinition, unit: !0, declaration: !234, retainedNodes: !334)
!526 = !DILocalVariable(name: "this", arg: 1, scope: !525, type: !331, flags: DIFlagArtificial | DIFlagObjectPointer)
!527 = !DILocation(line: 0, scope: !525)
!528 = !DILocation(line: 217, column: 35, scope: !525)
!529 = distinct !DISubprogram(name: "kk_v_00000008", linkageName: "_ZN2DD13kk_v_00000008Ev", scope: !3, file: !4, line: 218, type: !225, scopeLine: 218, flags: DIFlagPrototyped, spFlags: DISPFlagDefinition, unit: !0, declaration: !235, retainedNodes: !334)
!530 = !DILocalVariable(name: "this", arg: 1, scope: !529, type: !331, flags: DIFlagArtificial | DIFlagObjectPointer)
!531 = !DILocation(line: 0, scope: !529)
!532 = !DILocation(line: 218, column: 35, scope: !529)
!533 = distinct !DISubprogram(name: "kk_v_00000009", linkageName: "_ZN2DD13kk_v_00000009Ev", scope: !3, file: !4, line: 219, type: !225, scopeLine: 219, flags: DIFlagPrototyped, spFlags: DISPFlagDefinition, unit: !0, declaration: !236, retainedNodes: !334)
!534 = !DILocalVariable(name: "this", arg: 1, scope: !533, type: !331, flags: DIFlagArtificial | DIFlagObjectPointer)
!535 = !DILocation(line: 0, scope: !533)
!536 = !DILocation(line: 219, column: 35, scope: !533)
!537 = distinct !DISubprogram(name: "kk_v_00000010", linkageName: "_ZN2DD13kk_v_00000010Ev", scope: !3, file: !4, line: 220, type: !225, scopeLine: 220, flags: DIFlagPrototyped, spFlags: DISPFlagDefinition, unit: !0, declaration: !237, retainedNodes: !334)
!538 = !DILocalVariable(name: "this", arg: 1, scope: !537, type: !331, flags: DIFlagArtificial | DIFlagObjectPointer)
!539 = !DILocation(line: 0, scope: !537)
!540 = !DILocation(line: 220, column: 35, scope: !537)
!541 = distinct !DISubprogram(name: "kk_v_00000011", linkageName: "_ZN2DD13kk_v_00000011Ev", scope: !3, file: !4, line: 221, type: !225, scopeLine: 221, flags: DIFlagPrototyped, spFlags: DISPFlagDefinition, unit: !0, declaration: !238, retainedNodes: !334)
!542 = !DILocalVariable(name: "this", arg: 1, scope: !541, type: !331, flags: DIFlagArtificial | DIFlagObjectPointer)
!543 = !DILocation(line: 0, scope: !541)
!544 = !DILocation(line: 221, column: 35, scope: !541)
!545 = distinct !DISubprogram(name: "kk_v_00000012", linkageName: "_ZN2DD13kk_v_00000012Ev", scope: !3, file: !4, line: 222, type: !225, scopeLine: 222, flags: DIFlagPrototyped, spFlags: DISPFlagDefinition, unit: !0, declaration: !239, retainedNodes: !334)
!546 = !DILocalVariable(name: "this", arg: 1, scope: !545, type: !331, flags: DIFlagArtificial | DIFlagObjectPointer)
!547 = !DILocation(line: 0, scope: !545)
!548 = !DILocation(line: 222, column: 35, scope: !545)
!549 = distinct !DISubprogram(name: "kk_v_00000013", linkageName: "_ZN2DD13kk_v_00000013Ev", scope: !3, file: !4, line: 223, type: !225, scopeLine: 223, flags: DIFlagPrototyped, spFlags: DISPFlagDefinition, unit: !0, declaration: !240, retainedNodes: !334)
!550 = !DILocalVariable(name: "this", arg: 1, scope: !549, type: !331, flags: DIFlagArtificial | DIFlagObjectPointer)
!551 = !DILocation(line: 0, scope: !549)
!552 = !DILocation(line: 223, column: 35, scope: !549)
!553 = distinct !DISubprogram(name: "kk_v_00000014", linkageName: "_ZN2DD13kk_v_00000014Ev", scope: !3, file: !4, line: 224, type: !225, scopeLine: 224, flags: DIFlagPrototyped, spFlags: DISPFlagDefinition, unit: !0, declaration: !241, retainedNodes: !334)
!554 = !DILocalVariable(name: "this", arg: 1, scope: !553, type: !331, flags: DIFlagArtificial | DIFlagObjectPointer)
!555 = !DILocation(line: 0, scope: !553)
!556 = !DILocation(line: 224, column: 35, scope: !553)
!557 = distinct !DISubprogram(name: "kk_v_00000015", linkageName: "_ZN2DD13kk_v_00000015Ev", scope: !3, file: !4, line: 225, type: !225, scopeLine: 225, flags: DIFlagPrototyped, spFlags: DISPFlagDefinition, unit: !0, declaration: !242, retainedNodes: !334)
!558 = !DILocalVariable(name: "this", arg: 1, scope: !557, type: !331, flags: DIFlagArtificial | DIFlagObjectPointer)
!559 = !DILocation(line: 0, scope: !557)
!560 = !DILocation(line: 225, column: 35, scope: !557)
!561 = distinct !DISubprogram(name: "kk_v_00000016", linkageName: "_ZN2DD13kk_v_00000016Ev", scope: !3, file: !4, line: 226, type: !225, scopeLine: 226, flags: DIFlagPrototyped, spFlags: DISPFlagDefinition, unit: !0, declaration: !243, retainedNodes: !334)
!562 = !DILocalVariable(name: "this", arg: 1, scope: !561, type: !331, flags: DIFlagArtificial | DIFlagObjectPointer)
!563 = !DILocation(line: 0, scope: !561)
!564 = !DILocation(line: 226, column: 35, scope: !561)
!565 = distinct !DISubprogram(name: "kk_v_00000017", linkageName: "_ZN2DD13kk_v_00000017Ev", scope: !3, file: !4, line: 227, type: !225, scopeLine: 227, flags: DIFlagPrototyped, spFlags: DISPFlagDefinition, unit: !0, declaration: !244, retainedNodes: !334)
!566 = !DILocalVariable(name: "this", arg: 1, scope: !565, type: !331, flags: DIFlagArtificial | DIFlagObjectPointer)
!567 = !DILocation(line: 0, scope: !565)
!568 = !DILocation(line: 227, column: 35, scope: !565)
!569 = distinct !DISubprogram(name: "kk_v_00000018", linkageName: "_ZN2DD13kk_v_00000018Ev", scope: !3, file: !4, line: 228, type: !225, scopeLine: 228, flags: DIFlagPrototyped, spFlags: DISPFlagDefinition, unit: !0, declaration: !245, retainedNodes: !334)
!570 = !DILocalVariable(name: "this", arg: 1, scope: !569, type: !331, flags: DIFlagArtificial | DIFlagObjectPointer)
!571 = !DILocation(line: 0, scope: !569)
!572 = !DILocation(line: 228, column: 35, scope: !569)
!573 = distinct !DISubprogram(name: "kk_v_00000019", linkageName: "_ZN2DD13kk_v_00000019Ev", scope: !3, file: !4, line: 229, type: !225, scopeLine: 229, flags: DIFlagPrototyped, spFlags: DISPFlagDefinition, unit: !0, declaration: !246, retainedNodes: !334)
!574 = !DILocalVariable(name: "this", arg: 1, scope: !573, type: !331, flags: DIFlagArtificial | DIFlagObjectPointer)
!575 = !DILocation(line: 0, scope: !573)
!576 = !DILocation(line: 229, column: 35, scope: !573)
!577 = distinct !DISubprogram(name: "kk_v_00000020", linkageName: "_ZN2DD13kk_v_00000020Ev", scope: !3, file: !4, line: 230, type: !225, scopeLine: 230, flags: DIFlagPrototyped, spFlags: DISPFlagDefinition, unit: !0, declaration: !247, retainedNodes: !334)
!578 = !DILocalVariable(name: "this", arg: 1, scope: !577, type: !331, flags: DIFlagArtificial | DIFlagObjectPointer)
!579 = !DILocation(line: 0, scope: !577)
!580 = !DILocation(line: 230, column: 35, scope: !577)
!581 = distinct !DISubprogram(name: "kk_v_00000021", linkageName: "_ZN2DD13kk_v_00000021Ev", scope: !3, file: !4, line: 231, type: !225, scopeLine: 231, flags: DIFlagPrototyped, spFlags: DISPFlagDefinition, unit: !0, declaration: !248, retainedNodes: !334)
!582 = !DILocalVariable(name: "this", arg: 1, scope: !581, type: !331, flags: DIFlagArtificial | DIFlagObjectPointer)
!583 = !DILocation(line: 0, scope: !581)
!584 = !DILocation(line: 231, column: 35, scope: !581)
!585 = distinct !DISubprogram(name: "kk_v_00000022", linkageName: "_ZN2DD13kk_v_00000022Ev", scope: !3, file: !4, line: 232, type: !225, scopeLine: 232, flags: DIFlagPrototyped, spFlags: DISPFlagDefinition, unit: !0, declaration: !249, retainedNodes: !334)
!586 = !DILocalVariable(name: "this", arg: 1, scope: !585, type: !331, flags: DIFlagArtificial | DIFlagObjectPointer)
!587 = !DILocation(line: 0, scope: !585)
!588 = !DILocation(line: 232, column: 35, scope: !585)
!589 = distinct !DISubprogram(name: "kk_v_00000023", linkageName: "_ZN2DD13kk_v_00000023Ev", scope: !3, file: !4, line: 233, type: !225, scopeLine: 233, flags: DIFlagPrototyped, spFlags: DISPFlagDefinition, unit: !0, declaration: !250, retainedNodes: !334)
!590 = !DILocalVariable(name: "this", arg: 1, scope: !589, type: !331, flags: DIFlagArtificial | DIFlagObjectPointer)
!591 = !DILocation(line: 0, scope: !589)
!592 = !DILocation(line: 233, column: 35, scope: !589)
!593 = distinct !DISubprogram(name: "kk_v_00000024", linkageName: "_ZN2DD13kk_v_00000024Ev", scope: !3, file: !4, line: 234, type: !225, scopeLine: 234, flags: DIFlagPrototyped, spFlags: DISPFlagDefinition, unit: !0, declaration: !251, retainedNodes: !334)
!594 = !DILocalVariable(name: "this", arg: 1, scope: !593, type: !331, flags: DIFlagArtificial | DIFlagObjectPointer)
!595 = !DILocation(line: 0, scope: !593)
!596 = !DILocation(line: 234, column: 35, scope: !593)
!597 = distinct !DISubprogram(name: "kk_v_00000025", linkageName: "_ZN2DD13kk_v_00000025Ev", scope: !3, file: !4, line: 235, type: !225, scopeLine: 235, flags: DIFlagPrototyped, spFlags: DISPFlagDefinition, unit: !0, declaration: !252, retainedNodes: !334)
!598 = !DILocalVariable(name: "this", arg: 1, scope: !597, type: !331, flags: DIFlagArtificial | DIFlagObjectPointer)
!599 = !DILocation(line: 0, scope: !597)
!600 = !DILocation(line: 235, column: 35, scope: !597)
!601 = distinct !DISubprogram(name: "hh_v_00000000", linkageName: "_ZN2DD13hh_v_00000000Ev", scope: !3, file: !4, line: 241, type: !225, scopeLine: 241, flags: DIFlagPrototyped, spFlags: DISPFlagDefinition, unit: !0, declaration: !256, retainedNodes: !334)
!602 = !DILocalVariable(name: "this", arg: 1, scope: !601, type: !331, flags: DIFlagArtificial | DIFlagObjectPointer)
!603 = !DILocation(line: 0, scope: !601)
!604 = !DILocation(line: 241, column: 35, scope: !601)
!605 = distinct !DISubprogram(name: "hh_v_00000001", linkageName: "_ZN2DD13hh_v_00000001Ev", scope: !3, file: !4, line: 242, type: !225, scopeLine: 242, flags: DIFlagPrototyped, spFlags: DISPFlagDefinition, unit: !0, declaration: !257, retainedNodes: !334)
!606 = !DILocalVariable(name: "this", arg: 1, scope: !605, type: !331, flags: DIFlagArtificial | DIFlagObjectPointer)
!607 = !DILocation(line: 0, scope: !605)
!608 = !DILocation(line: 242, column: 35, scope: !605)
!609 = distinct !DISubprogram(name: "hh_v_00000002", linkageName: "_ZN2DD13hh_v_00000002Ev", scope: !3, file: !4, line: 243, type: !225, scopeLine: 243, flags: DIFlagPrototyped, spFlags: DISPFlagDefinition, unit: !0, declaration: !258, retainedNodes: !334)
!610 = !DILocalVariable(name: "this", arg: 1, scope: !609, type: !331, flags: DIFlagArtificial | DIFlagObjectPointer)
!611 = !DILocation(line: 0, scope: !609)
!612 = !DILocation(line: 243, column: 35, scope: !609)
!613 = distinct !DISubprogram(name: "hh_v_00000003", linkageName: "_ZN2DD13hh_v_00000003Ev", scope: !3, file: !4, line: 244, type: !225, scopeLine: 244, flags: DIFlagPrototyped, spFlags: DISPFlagDefinition, unit: !0, declaration: !259, retainedNodes: !334)
!614 = !DILocalVariable(name: "this", arg: 1, scope: !613, type: !331, flags: DIFlagArtificial | DIFlagObjectPointer)
!615 = !DILocation(line: 0, scope: !613)
!616 = !DILocation(line: 244, column: 35, scope: !613)
!617 = distinct !DISubprogram(name: "hh_v_00000004", linkageName: "_ZN2DD13hh_v_00000004Ev", scope: !3, file: !4, line: 245, type: !225, scopeLine: 245, flags: DIFlagPrototyped, spFlags: DISPFlagDefinition, unit: !0, declaration: !260, retainedNodes: !334)
!618 = !DILocalVariable(name: "this", arg: 1, scope: !617, type: !331, flags: DIFlagArtificial | DIFlagObjectPointer)
!619 = !DILocation(line: 0, scope: !617)
!620 = !DILocation(line: 245, column: 35, scope: !617)
!621 = distinct !DISubprogram(name: "hh_v_00000005", linkageName: "_ZN2DD13hh_v_00000005Ev", scope: !3, file: !4, line: 246, type: !225, scopeLine: 246, flags: DIFlagPrototyped, spFlags: DISPFlagDefinition, unit: !0, declaration: !261, retainedNodes: !334)
!622 = !DILocalVariable(name: "this", arg: 1, scope: !621, type: !331, flags: DIFlagArtificial | DIFlagObjectPointer)
!623 = !DILocation(line: 0, scope: !621)
!624 = !DILocation(line: 246, column: 35, scope: !621)
!625 = distinct !DISubprogram(name: "ff_v_00000000", linkageName: "_ZN2DD13ff_v_00000000Ev", scope: !3, file: !4, line: 248, type: !225, scopeLine: 248, flags: DIFlagPrototyped, spFlags: DISPFlagDefinition, unit: !0, declaration: !262, retainedNodes: !334)
!626 = !DILocalVariable(name: "this", arg: 1, scope: !625, type: !331, flags: DIFlagArtificial | DIFlagObjectPointer)
!627 = !DILocation(line: 0, scope: !625)
!628 = !DILocation(line: 248, column: 35, scope: !625)
!629 = distinct !DISubprogram(name: "ff_v_00000001", linkageName: "_ZN2DD13ff_v_00000001Ev", scope: !3, file: !4, line: 249, type: !225, scopeLine: 249, flags: DIFlagPrototyped, spFlags: DISPFlagDefinition, unit: !0, declaration: !263, retainedNodes: !334)
!630 = !DILocalVariable(name: "this", arg: 1, scope: !629, type: !331, flags: DIFlagArtificial | DIFlagObjectPointer)
!631 = !DILocation(line: 0, scope: !629)
!632 = !DILocation(line: 249, column: 35, scope: !629)
!633 = distinct !DISubprogram(name: "ff_v_00000002", linkageName: "_ZN2DD13ff_v_00000002Ev", scope: !3, file: !4, line: 250, type: !225, scopeLine: 250, flags: DIFlagPrototyped, spFlags: DISPFlagDefinition, unit: !0, declaration: !264, retainedNodes: !334)
!634 = !DILocalVariable(name: "this", arg: 1, scope: !633, type: !331, flags: DIFlagArtificial | DIFlagObjectPointer)
!635 = !DILocation(line: 0, scope: !633)
!636 = !DILocation(line: 250, column: 35, scope: !633)
!637 = distinct !DISubprogram(name: "ff_v_00000003", linkageName: "_ZN2DD13ff_v_00000003Ev", scope: !3, file: !4, line: 251, type: !225, scopeLine: 251, flags: DIFlagPrototyped, spFlags: DISPFlagDefinition, unit: !0, declaration: !265, retainedNodes: !334)
!638 = !DILocalVariable(name: "this", arg: 1, scope: !637, type: !331, flags: DIFlagArtificial | DIFlagObjectPointer)
!639 = !DILocation(line: 0, scope: !637)
!640 = !DILocation(line: 251, column: 35, scope: !637)
!641 = distinct !DISubprogram(name: "ff_v_00000004", linkageName: "_ZN2DD13ff_v_00000004Ev", scope: !3, file: !4, line: 252, type: !225, scopeLine: 252, flags: DIFlagPrototyped, spFlags: DISPFlagDefinition, unit: !0, declaration: !266, retainedNodes: !334)
!642 = !DILocalVariable(name: "this", arg: 1, scope: !641, type: !331, flags: DIFlagArtificial | DIFlagObjectPointer)
!643 = !DILocation(line: 0, scope: !641)
!644 = !DILocation(line: 252, column: 35, scope: !641)
!645 = distinct !DISubprogram(name: "ff_v_00000005", linkageName: "_ZN2DD13ff_v_00000005Ev", scope: !3, file: !4, line: 253, type: !225, scopeLine: 253, flags: DIFlagPrototyped, spFlags: DISPFlagDefinition, unit: !0, declaration: !267, retainedNodes: !334)
!646 = !DILocalVariable(name: "this", arg: 1, scope: !645, type: !331, flags: DIFlagArtificial | DIFlagObjectPointer)
!647 = !DILocation(line: 0, scope: !645)
!648 = !DILocation(line: 253, column: 35, scope: !645)
!649 = distinct !DISubprogram(name: "ff_v_00000006", linkageName: "_ZN2DD13ff_v_00000006Ev", scope: !3, file: !4, line: 254, type: !225, scopeLine: 254, flags: DIFlagPrototyped, spFlags: DISPFlagDefinition, unit: !0, declaration: !268, retainedNodes: !334)
!650 = !DILocalVariable(name: "this", arg: 1, scope: !649, type: !331, flags: DIFlagArtificial | DIFlagObjectPointer)
!651 = !DILocation(line: 0, scope: !649)
!652 = !DILocation(line: 254, column: 35, scope: !649)
!653 = distinct !DISubprogram(name: "ff_v_00000007", linkageName: "_ZN2DD13ff_v_00000007Ev", scope: !3, file: !4, line: 255, type: !225, scopeLine: 255, flags: DIFlagPrototyped, spFlags: DISPFlagDefinition, unit: !0, declaration: !269, retainedNodes: !334)
!654 = !DILocalVariable(name: "this", arg: 1, scope: !653, type: !331, flags: DIFlagArtificial | DIFlagObjectPointer)
!655 = !DILocation(line: 0, scope: !653)
!656 = !DILocation(line: 255, column: 35, scope: !653)
!657 = distinct !DISubprogram(name: "ff_v_00000008", linkageName: "_ZN2DD13ff_v_00000008Ev", scope: !3, file: !4, line: 256, type: !225, scopeLine: 256, flags: DIFlagPrototyped, spFlags: DISPFlagDefinition, unit: !0, declaration: !270, retainedNodes: !334)
!658 = !DILocalVariable(name: "this", arg: 1, scope: !657, type: !331, flags: DIFlagArtificial | DIFlagObjectPointer)
!659 = !DILocation(line: 0, scope: !657)
!660 = !DILocation(line: 256, column: 35, scope: !657)
!661 = distinct !DISubprogram(name: "ff_v_00000009", linkageName: "_ZN2DD13ff_v_00000009Ev", scope: !3, file: !4, line: 257, type: !225, scopeLine: 257, flags: DIFlagPrototyped, spFlags: DISPFlagDefinition, unit: !0, declaration: !271, retainedNodes: !334)
!662 = !DILocalVariable(name: "this", arg: 1, scope: !661, type: !331, flags: DIFlagArtificial | DIFlagObjectPointer)
!663 = !DILocation(line: 0, scope: !661)
!664 = !DILocation(line: 257, column: 35, scope: !661)
!665 = distinct !DISubprogram(name: "ff_v_00000010", linkageName: "_ZN2DD13ff_v_00000010Ev", scope: !3, file: !4, line: 258, type: !225, scopeLine: 258, flags: DIFlagPrototyped, spFlags: DISPFlagDefinition, unit: !0, declaration: !272, retainedNodes: !334)
!666 = !DILocalVariable(name: "this", arg: 1, scope: !665, type: !331, flags: DIFlagArtificial | DIFlagObjectPointer)
!667 = !DILocation(line: 0, scope: !665)
!668 = !DILocation(line: 258, column: 35, scope: !665)
!669 = distinct !DISubprogram(name: "ff_v_00000011", linkageName: "_ZN2DD13ff_v_00000011Ev", scope: !3, file: !4, line: 259, type: !225, scopeLine: 259, flags: DIFlagPrototyped, spFlags: DISPFlagDefinition, unit: !0, declaration: !273, retainedNodes: !334)
!670 = !DILocalVariable(name: "this", arg: 1, scope: !669, type: !331, flags: DIFlagArtificial | DIFlagObjectPointer)
!671 = !DILocation(line: 0, scope: !669)
!672 = !DILocation(line: 259, column: 35, scope: !669)
!673 = distinct !DISubprogram(name: "ff_v_00000012", linkageName: "_ZN2DD13ff_v_00000012Ev", scope: !3, file: !4, line: 260, type: !225, scopeLine: 260, flags: DIFlagPrototyped, spFlags: DISPFlagDefinition, unit: !0, declaration: !274, retainedNodes: !334)
!674 = !DILocalVariable(name: "this", arg: 1, scope: !673, type: !331, flags: DIFlagArtificial | DIFlagObjectPointer)
!675 = !DILocation(line: 0, scope: !673)
!676 = !DILocation(line: 260, column: 35, scope: !673)
!677 = distinct !DISubprogram(name: "ff_v_00000013", linkageName: "_ZN2DD13ff_v_00000013Ev", scope: !3, file: !4, line: 261, type: !225, scopeLine: 261, flags: DIFlagPrototyped, spFlags: DISPFlagDefinition, unit: !0, declaration: !275, retainedNodes: !334)
!678 = !DILocalVariable(name: "this", arg: 1, scope: !677, type: !331, flags: DIFlagArtificial | DIFlagObjectPointer)
!679 = !DILocation(line: 0, scope: !677)
!680 = !DILocation(line: 261, column: 35, scope: !677)
!681 = distinct !DISubprogram(name: "ff_v_00000014", linkageName: "_ZN2DD13ff_v_00000014Ev", scope: !3, file: !4, line: 262, type: !225, scopeLine: 262, flags: DIFlagPrototyped, spFlags: DISPFlagDefinition, unit: !0, declaration: !276, retainedNodes: !334)
!682 = !DILocalVariable(name: "this", arg: 1, scope: !681, type: !331, flags: DIFlagArtificial | DIFlagObjectPointer)
!683 = !DILocation(line: 0, scope: !681)
!684 = !DILocation(line: 262, column: 35, scope: !681)
!685 = distinct !DISubprogram(name: "ff_v_00000015", linkageName: "_ZN2DD13ff_v_00000015Ev", scope: !3, file: !4, line: 263, type: !225, scopeLine: 263, flags: DIFlagPrototyped, spFlags: DISPFlagDefinition, unit: !0, declaration: !277, retainedNodes: !334)
!686 = !DILocalVariable(name: "this", arg: 1, scope: !685, type: !331, flags: DIFlagArtificial | DIFlagObjectPointer)
!687 = !DILocation(line: 0, scope: !685)
!688 = !DILocation(line: 263, column: 35, scope: !685)
!689 = distinct !DISubprogram(name: "ff_v_00000016", linkageName: "_ZN2DD13ff_v_00000016Ev", scope: !3, file: !4, line: 264, type: !225, scopeLine: 264, flags: DIFlagPrototyped, spFlags: DISPFlagDefinition, unit: !0, declaration: !278, retainedNodes: !334)
!690 = !DILocalVariable(name: "this", arg: 1, scope: !689, type: !331, flags: DIFlagArtificial | DIFlagObjectPointer)
!691 = !DILocation(line: 0, scope: !689)
!692 = !DILocation(line: 264, column: 35, scope: !689)
!693 = distinct !DISubprogram(name: "ff_v_00000017", linkageName: "_ZN2DD13ff_v_00000017Ev", scope: !3, file: !4, line: 265, type: !225, scopeLine: 265, flags: DIFlagPrototyped, spFlags: DISPFlagDefinition, unit: !0, declaration: !279, retainedNodes: !334)
!694 = !DILocalVariable(name: "this", arg: 1, scope: !693, type: !331, flags: DIFlagArtificial | DIFlagObjectPointer)
!695 = !DILocation(line: 0, scope: !693)
!696 = !DILocation(line: 265, column: 35, scope: !693)
!697 = distinct !DISubprogram(name: "ff_v_00000018", linkageName: "_ZN2DD13ff_v_00000018Ev", scope: !3, file: !4, line: 266, type: !225, scopeLine: 266, flags: DIFlagPrototyped, spFlags: DISPFlagDefinition, unit: !0, declaration: !280, retainedNodes: !334)
!698 = !DILocalVariable(name: "this", arg: 1, scope: !697, type: !331, flags: DIFlagArtificial | DIFlagObjectPointer)
!699 = !DILocation(line: 0, scope: !697)
!700 = !DILocation(line: 266, column: 35, scope: !697)
!701 = distinct !DISubprogram(name: "ff_v_00000019", linkageName: "_ZN2DD13ff_v_00000019Ev", scope: !3, file: !4, line: 267, type: !225, scopeLine: 267, flags: DIFlagPrototyped, spFlags: DISPFlagDefinition, unit: !0, declaration: !281, retainedNodes: !334)
!702 = !DILocalVariable(name: "this", arg: 1, scope: !701, type: !331, flags: DIFlagArtificial | DIFlagObjectPointer)
!703 = !DILocation(line: 0, scope: !701)
!704 = !DILocation(line: 267, column: 35, scope: !701)
!705 = distinct !DISubprogram(name: "ff_v_00000020", linkageName: "_ZN2DD13ff_v_00000020Ev", scope: !3, file: !4, line: 268, type: !225, scopeLine: 268, flags: DIFlagPrototyped, spFlags: DISPFlagDefinition, unit: !0, declaration: !282, retainedNodes: !334)
!706 = !DILocalVariable(name: "this", arg: 1, scope: !705, type: !331, flags: DIFlagArtificial | DIFlagObjectPointer)
!707 = !DILocation(line: 0, scope: !705)
!708 = !DILocation(line: 268, column: 35, scope: !705)
!709 = distinct !DISubprogram(name: "ff_v_00000021", linkageName: "_ZN2DD13ff_v_00000021Ev", scope: !3, file: !4, line: 269, type: !225, scopeLine: 269, flags: DIFlagPrototyped, spFlags: DISPFlagDefinition, unit: !0, declaration: !283, retainedNodes: !334)
!710 = !DILocalVariable(name: "this", arg: 1, scope: !709, type: !331, flags: DIFlagArtificial | DIFlagObjectPointer)
!711 = !DILocation(line: 0, scope: !709)
!712 = !DILocation(line: 269, column: 35, scope: !709)
!713 = distinct !DISubprogram(name: "ff_v_00000022", linkageName: "_ZN2DD13ff_v_00000022Ev", scope: !3, file: !4, line: 270, type: !225, scopeLine: 270, flags: DIFlagPrototyped, spFlags: DISPFlagDefinition, unit: !0, declaration: !284, retainedNodes: !334)
!714 = !DILocalVariable(name: "this", arg: 1, scope: !713, type: !331, flags: DIFlagArtificial | DIFlagObjectPointer)
!715 = !DILocation(line: 0, scope: !713)
!716 = !DILocation(line: 270, column: 35, scope: !713)
!717 = distinct !DISubprogram(name: "ff_v_00000023", linkageName: "_ZN2DD13ff_v_00000023Ev", scope: !3, file: !4, line: 271, type: !225, scopeLine: 271, flags: DIFlagPrototyped, spFlags: DISPFlagDefinition, unit: !0, declaration: !285, retainedNodes: !334)
!718 = !DILocalVariable(name: "this", arg: 1, scope: !717, type: !331, flags: DIFlagArtificial | DIFlagObjectPointer)
!719 = !DILocation(line: 0, scope: !717)
!720 = !DILocation(line: 271, column: 35, scope: !717)
!721 = distinct !DISubprogram(name: "ff_v_00000024", linkageName: "_ZN2DD13ff_v_00000024Ev", scope: !3, file: !4, line: 272, type: !225, scopeLine: 272, flags: DIFlagPrototyped, spFlags: DISPFlagDefinition, unit: !0, declaration: !286, retainedNodes: !334)
!722 = !DILocalVariable(name: "this", arg: 1, scope: !721, type: !331, flags: DIFlagArtificial | DIFlagObjectPointer)
!723 = !DILocation(line: 0, scope: !721)
!724 = !DILocation(line: 272, column: 35, scope: !721)
!725 = distinct !DISubprogram(name: "ff_v_00000025", linkageName: "_ZN2DD13ff_v_00000025Ev", scope: !3, file: !4, line: 273, type: !225, scopeLine: 273, flags: DIFlagPrototyped, spFlags: DISPFlagDefinition, unit: !0, declaration: !287, retainedNodes: !334)
!726 = !DILocalVariable(name: "this", arg: 1, scope: !725, type: !331, flags: DIFlagArtificial | DIFlagObjectPointer)
!727 = !DILocation(line: 0, scope: !725)
!728 = !DILocation(line: 273, column: 35, scope: !725)
!729 = distinct !DISubprogram(name: "ff_v_00000026", linkageName: "_ZN2DD13ff_v_00000026Ev", scope: !3, file: !4, line: 274, type: !225, scopeLine: 274, flags: DIFlagPrototyped, spFlags: DISPFlagDefinition, unit: !0, declaration: !288, retainedNodes: !334)
!730 = !DILocalVariable(name: "this", arg: 1, scope: !729, type: !331, flags: DIFlagArtificial | DIFlagObjectPointer)
!731 = !DILocation(line: 0, scope: !729)
!732 = !DILocation(line: 274, column: 35, scope: !729)
!733 = distinct !DISubprogram(name: "ff_v_00000027", linkageName: "_ZN2DD13ff_v_00000027Ev", scope: !3, file: !4, line: 275, type: !225, scopeLine: 275, flags: DIFlagPrototyped, spFlags: DISPFlagDefinition, unit: !0, declaration: !289, retainedNodes: !334)
!734 = !DILocalVariable(name: "this", arg: 1, scope: !733, type: !331, flags: DIFlagArtificial | DIFlagObjectPointer)
!735 = !DILocation(line: 0, scope: !733)
!736 = !DILocation(line: 275, column: 35, scope: !733)
!737 = distinct !DISubprogram(name: "ff_v_00000028", linkageName: "_ZN2DD13ff_v_00000028Ev", scope: !3, file: !4, line: 276, type: !225, scopeLine: 276, flags: DIFlagPrototyped, spFlags: DISPFlagDefinition, unit: !0, declaration: !290, retainedNodes: !334)
!738 = !DILocalVariable(name: "this", arg: 1, scope: !737, type: !331, flags: DIFlagArtificial | DIFlagObjectPointer)
!739 = !DILocation(line: 0, scope: !737)
!740 = !DILocation(line: 276, column: 35, scope: !737)
!741 = distinct !DISubprogram(name: "ff_v_00000029", linkageName: "_ZN2DD13ff_v_00000029Ev", scope: !3, file: !4, line: 277, type: !225, scopeLine: 277, flags: DIFlagPrototyped, spFlags: DISPFlagDefinition, unit: !0, declaration: !291, retainedNodes: !334)
!742 = !DILocalVariable(name: "this", arg: 1, scope: !741, type: !331, flags: DIFlagArtificial | DIFlagObjectPointer)
!743 = !DILocation(line: 0, scope: !741)
!744 = !DILocation(line: 277, column: 35, scope: !741)
!745 = distinct !DISubprogram(linkageName: "_ZThn16_N2DD13hh_v_00000000Ev", scope: !4, file: !4, line: 241, type: !746, flags: DIFlagArtificial | DIFlagThunk, spFlags: DISPFlagDefinition, unit: !0, retainedNodes: !334)
!746 = !DISubroutineType(types: !334)
!747 = !DILocation(line: 0, scope: !745)
!748 = distinct !DISubprogram(linkageName: "_ZThn16_N2DD13hh_v_00000001Ev", scope: !4, file: !4, line: 242, type: !746, flags: DIFlagArtificial | DIFlagThunk, spFlags: DISPFlagDefinition, unit: !0, retainedNodes: !334)
!749 = !DILocation(line: 0, scope: !748)
!750 = distinct !DISubprogram(linkageName: "_ZThn16_N2DD13hh_v_00000002Ev", scope: !4, file: !4, line: 243, type: !746, flags: DIFlagArtificial | DIFlagThunk, spFlags: DISPFlagDefinition, unit: !0, retainedNodes: !334)
!751 = !DILocation(line: 0, scope: !750)
!752 = distinct !DISubprogram(linkageName: "_ZThn16_N2DD13hh_v_00000003Ev", scope: !4, file: !4, line: 244, type: !746, flags: DIFlagArtificial | DIFlagThunk, spFlags: DISPFlagDefinition, unit: !0, retainedNodes: !334)
!753 = !DILocation(line: 0, scope: !752)
!754 = distinct !DISubprogram(linkageName: "_ZThn16_N2DD13hh_v_00000004Ev", scope: !4, file: !4, line: 245, type: !746, flags: DIFlagArtificial | DIFlagThunk, spFlags: DISPFlagDefinition, unit: !0, retainedNodes: !334)
!755 = !DILocation(line: 0, scope: !754)
!756 = distinct !DISubprogram(linkageName: "_ZThn16_N2DD13hh_v_00000005Ev", scope: !4, file: !4, line: 246, type: !746, flags: DIFlagArtificial | DIFlagThunk, spFlags: DISPFlagDefinition, unit: !0, retainedNodes: !334)
!757 = !DILocation(line: 0, scope: !756)
!758 = distinct !DISubprogram(name: "hh_v_00000006", linkageName: "_ZN2CC13hh_v_00000006Ev", scope: !152, file: !4, line: 148, type: !161, scopeLine: 148, flags: DIFlagPrototyped, spFlags: DISPFlagDefinition, unit: !0, declaration: !169, retainedNodes: !334)
!759 = !DILocalVariable(name: "this", arg: 1, scope: !758, type: !373, flags: DIFlagArtificial | DIFlagObjectPointer)
!760 = !DILocation(line: 0, scope: !758)
!761 = !DILocation(line: 148, column: 35, scope: !758)
!762 = distinct !DISubprogram(name: "hh_v_00000007", linkageName: "_ZN2CC13hh_v_00000007Ev", scope: !152, file: !4, line: 149, type: !161, scopeLine: 149, flags: DIFlagPrototyped, spFlags: DISPFlagDefinition, unit: !0, declaration: !170, retainedNodes: !334)
!763 = !DILocalVariable(name: "this", arg: 1, scope: !762, type: !373, flags: DIFlagArtificial | DIFlagObjectPointer)
!764 = !DILocation(line: 0, scope: !762)
!765 = !DILocation(line: 149, column: 35, scope: !762)
!766 = distinct !DISubprogram(name: "hh_v_00000008", linkageName: "_ZN2CC13hh_v_00000008Ev", scope: !152, file: !4, line: 150, type: !161, scopeLine: 150, flags: DIFlagPrototyped, spFlags: DISPFlagDefinition, unit: !0, declaration: !171, retainedNodes: !334)
!767 = !DILocalVariable(name: "this", arg: 1, scope: !766, type: !373, flags: DIFlagArtificial | DIFlagObjectPointer)
!768 = !DILocation(line: 0, scope: !766)
!769 = !DILocation(line: 150, column: 35, scope: !766)
!770 = distinct !DISubprogram(name: "hh_v_00000009", linkageName: "_ZN2CC13hh_v_00000009Ev", scope: !152, file: !4, line: 151, type: !161, scopeLine: 151, flags: DIFlagPrototyped, spFlags: DISPFlagDefinition, unit: !0, declaration: !172, retainedNodes: !334)
!771 = !DILocalVariable(name: "this", arg: 1, scope: !770, type: !373, flags: DIFlagArtificial | DIFlagObjectPointer)
!772 = !DILocation(line: 0, scope: !770)
!773 = !DILocation(line: 151, column: 35, scope: !770)
!774 = distinct !DISubprogram(name: "hh_v_00000010", linkageName: "_ZN2CC13hh_v_00000010Ev", scope: !152, file: !4, line: 152, type: !161, scopeLine: 152, flags: DIFlagPrototyped, spFlags: DISPFlagDefinition, unit: !0, declaration: !173, retainedNodes: !334)
!775 = !DILocalVariable(name: "this", arg: 1, scope: !774, type: !373, flags: DIFlagArtificial | DIFlagObjectPointer)
!776 = !DILocation(line: 0, scope: !774)
!777 = !DILocation(line: 152, column: 35, scope: !774)
!778 = distinct !DISubprogram(name: "hh_v_00000011", linkageName: "_ZN2CC13hh_v_00000011Ev", scope: !152, file: !4, line: 153, type: !161, scopeLine: 153, flags: DIFlagPrototyped, spFlags: DISPFlagDefinition, unit: !0, declaration: !174, retainedNodes: !334)
!779 = !DILocalVariable(name: "this", arg: 1, scope: !778, type: !373, flags: DIFlagArtificial | DIFlagObjectPointer)
!780 = !DILocation(line: 0, scope: !778)
!781 = !DILocation(line: 153, column: 35, scope: !778)
!782 = distinct !DISubprogram(name: "hh_v_00000012", linkageName: "_ZN2CC13hh_v_00000012Ev", scope: !152, file: !4, line: 154, type: !161, scopeLine: 154, flags: DIFlagPrototyped, spFlags: DISPFlagDefinition, unit: !0, declaration: !175, retainedNodes: !334)
!783 = !DILocalVariable(name: "this", arg: 1, scope: !782, type: !373, flags: DIFlagArtificial | DIFlagObjectPointer)
!784 = !DILocation(line: 0, scope: !782)
!785 = !DILocation(line: 154, column: 35, scope: !782)
!786 = distinct !DISubprogram(name: "hh_v_00000013", linkageName: "_ZN2CC13hh_v_00000013Ev", scope: !152, file: !4, line: 155, type: !161, scopeLine: 155, flags: DIFlagPrototyped, spFlags: DISPFlagDefinition, unit: !0, declaration: !176, retainedNodes: !334)
!787 = !DILocalVariable(name: "this", arg: 1, scope: !786, type: !373, flags: DIFlagArtificial | DIFlagObjectPointer)
!788 = !DILocation(line: 0, scope: !786)
!789 = !DILocation(line: 155, column: 35, scope: !786)
!790 = distinct !DISubprogram(name: "hh_v_00000014", linkageName: "_ZN2CC13hh_v_00000014Ev", scope: !152, file: !4, line: 156, type: !161, scopeLine: 156, flags: DIFlagPrototyped, spFlags: DISPFlagDefinition, unit: !0, declaration: !177, retainedNodes: !334)
!791 = !DILocalVariable(name: "this", arg: 1, scope: !790, type: !373, flags: DIFlagArtificial | DIFlagObjectPointer)
!792 = !DILocation(line: 0, scope: !790)
!793 = !DILocation(line: 156, column: 35, scope: !790)
!794 = distinct !DISubprogram(name: "hh_v_00000015", linkageName: "_ZN2CC13hh_v_00000015Ev", scope: !152, file: !4, line: 157, type: !161, scopeLine: 157, flags: DIFlagPrototyped, spFlags: DISPFlagDefinition, unit: !0, declaration: !178, retainedNodes: !334)
!795 = !DILocalVariable(name: "this", arg: 1, scope: !794, type: !373, flags: DIFlagArtificial | DIFlagObjectPointer)
!796 = !DILocation(line: 0, scope: !794)
!797 = !DILocation(line: 157, column: 35, scope: !794)
!798 = distinct !DISubprogram(name: "hh_v_00000016", linkageName: "_ZN2CC13hh_v_00000016Ev", scope: !152, file: !4, line: 158, type: !161, scopeLine: 158, flags: DIFlagPrototyped, spFlags: DISPFlagDefinition, unit: !0, declaration: !179, retainedNodes: !334)
!799 = !DILocalVariable(name: "this", arg: 1, scope: !798, type: !373, flags: DIFlagArtificial | DIFlagObjectPointer)
!800 = !DILocation(line: 0, scope: !798)
!801 = !DILocation(line: 158, column: 35, scope: !798)
!802 = distinct !DISubprogram(name: "hh_v_00000017", linkageName: "_ZN2CC13hh_v_00000017Ev", scope: !152, file: !4, line: 159, type: !161, scopeLine: 159, flags: DIFlagPrototyped, spFlags: DISPFlagDefinition, unit: !0, declaration: !180, retainedNodes: !334)
!803 = !DILocalVariable(name: "this", arg: 1, scope: !802, type: !373, flags: DIFlagArtificial | DIFlagObjectPointer)
!804 = !DILocation(line: 0, scope: !802)
!805 = !DILocation(line: 159, column: 35, scope: !802)
!806 = distinct !DISubprogram(name: "hh_v_00000018", linkageName: "_ZN2CC13hh_v_00000018Ev", scope: !152, file: !4, line: 160, type: !161, scopeLine: 160, flags: DIFlagPrototyped, spFlags: DISPFlagDefinition, unit: !0, declaration: !181, retainedNodes: !334)
!807 = !DILocalVariable(name: "this", arg: 1, scope: !806, type: !373, flags: DIFlagArtificial | DIFlagObjectPointer)
!808 = !DILocation(line: 0, scope: !806)
!809 = !DILocation(line: 160, column: 35, scope: !806)
!810 = distinct !DISubprogram(name: "hh_v_00000019", linkageName: "_ZN2CC13hh_v_00000019Ev", scope: !152, file: !4, line: 161, type: !161, scopeLine: 161, flags: DIFlagPrototyped, spFlags: DISPFlagDefinition, unit: !0, declaration: !182, retainedNodes: !334)
!811 = !DILocalVariable(name: "this", arg: 1, scope: !810, type: !373, flags: DIFlagArtificial | DIFlagObjectPointer)
!812 = !DILocation(line: 0, scope: !810)
!813 = !DILocation(line: 161, column: 35, scope: !810)
!814 = distinct !DISubprogram(name: "hh_v_00000020", linkageName: "_ZN2CC13hh_v_00000020Ev", scope: !152, file: !4, line: 162, type: !161, scopeLine: 162, flags: DIFlagPrototyped, spFlags: DISPFlagDefinition, unit: !0, declaration: !183, retainedNodes: !334)
!815 = !DILocalVariable(name: "this", arg: 1, scope: !814, type: !373, flags: DIFlagArtificial | DIFlagObjectPointer)
!816 = !DILocation(line: 0, scope: !814)
!817 = !DILocation(line: 162, column: 35, scope: !814)
!818 = distinct !DISubprogram(name: "hh_v_00000021", linkageName: "_ZN2CC13hh_v_00000021Ev", scope: !152, file: !4, line: 163, type: !161, scopeLine: 163, flags: DIFlagPrototyped, spFlags: DISPFlagDefinition, unit: !0, declaration: !184, retainedNodes: !334)
!819 = !DILocalVariable(name: "this", arg: 1, scope: !818, type: !373, flags: DIFlagArtificial | DIFlagObjectPointer)
!820 = !DILocation(line: 0, scope: !818)
!821 = !DILocation(line: 163, column: 35, scope: !818)
